ARM GAS  /tmp/ccrvI8Gd.s 			page 1


   1              		.cpu cortex-m7
   2              		.eabi_attribute 28, 1
   3              		.eabi_attribute 20, 1
   4              		.eabi_attribute 21, 1
   5              		.eabi_attribute 23, 3
   6              		.eabi_attribute 24, 1
   7              		.eabi_attribute 25, 1
   8              		.eabi_attribute 26, 1
   9              		.eabi_attribute 30, 1
  10              		.eabi_attribute 34, 1
  11              		.eabi_attribute 18, 4
  12              		.file	"stm32f7xx_ll_usb.c"
  13              		.text
  14              	.Ltext0:
  15              		.cfi_sections	.debug_frame
  16              		.section	.text.USB_CoreReset,"ax",%progbits
  17              		.align	1
  18              		.arch armv7e-m
  19              		.syntax unified
  20              		.thumb
  21              		.thumb_func
  22              		.fpu fpv5-d16
  24              	USB_CoreReset:
  25              	.LVL0:
  26              	.LFB174:
  27              		.file 1 "Drivers/STM32F7xx_HAL_Driver/Src/stm32f7xx_ll_usb.c"
   1:Drivers/STM32F7xx_HAL_Driver/Src/stm32f7xx_ll_usb.c **** /**
   2:Drivers/STM32F7xx_HAL_Driver/Src/stm32f7xx_ll_usb.c ****   ******************************************************************************
   3:Drivers/STM32F7xx_HAL_Driver/Src/stm32f7xx_ll_usb.c ****   * @file    stm32f7xx_ll_usb.c
   4:Drivers/STM32F7xx_HAL_Driver/Src/stm32f7xx_ll_usb.c ****   * @author  MCD Application Team
   5:Drivers/STM32F7xx_HAL_Driver/Src/stm32f7xx_ll_usb.c ****   * @brief   USB Low Layer HAL module driver.
   6:Drivers/STM32F7xx_HAL_Driver/Src/stm32f7xx_ll_usb.c ****   *
   7:Drivers/STM32F7xx_HAL_Driver/Src/stm32f7xx_ll_usb.c ****   *          This file provides firmware functions to manage the following
   8:Drivers/STM32F7xx_HAL_Driver/Src/stm32f7xx_ll_usb.c ****   *          functionalities of the USB Peripheral Controller:
   9:Drivers/STM32F7xx_HAL_Driver/Src/stm32f7xx_ll_usb.c ****   *           + Initialization/de-initialization functions
  10:Drivers/STM32F7xx_HAL_Driver/Src/stm32f7xx_ll_usb.c ****   *           + I/O operation functions
  11:Drivers/STM32F7xx_HAL_Driver/Src/stm32f7xx_ll_usb.c ****   *           + Peripheral Control functions
  12:Drivers/STM32F7xx_HAL_Driver/Src/stm32f7xx_ll_usb.c ****   *           + Peripheral State functions
  13:Drivers/STM32F7xx_HAL_Driver/Src/stm32f7xx_ll_usb.c ****   *
  14:Drivers/STM32F7xx_HAL_Driver/Src/stm32f7xx_ll_usb.c ****   ******************************************************************************
  15:Drivers/STM32F7xx_HAL_Driver/Src/stm32f7xx_ll_usb.c ****   * @attention
  16:Drivers/STM32F7xx_HAL_Driver/Src/stm32f7xx_ll_usb.c ****   *
  17:Drivers/STM32F7xx_HAL_Driver/Src/stm32f7xx_ll_usb.c ****   * Copyright (c) 2017 STMicroelectronics.
  18:Drivers/STM32F7xx_HAL_Driver/Src/stm32f7xx_ll_usb.c ****   * All rights reserved.
  19:Drivers/STM32F7xx_HAL_Driver/Src/stm32f7xx_ll_usb.c ****   *
  20:Drivers/STM32F7xx_HAL_Driver/Src/stm32f7xx_ll_usb.c ****   * This software is licensed under terms that can be found in the LICENSE file
  21:Drivers/STM32F7xx_HAL_Driver/Src/stm32f7xx_ll_usb.c ****   * in the root directory of this software component.
  22:Drivers/STM32F7xx_HAL_Driver/Src/stm32f7xx_ll_usb.c ****   * If no LICENSE file comes with this software, it is provided AS-IS.
  23:Drivers/STM32F7xx_HAL_Driver/Src/stm32f7xx_ll_usb.c ****   *
  24:Drivers/STM32F7xx_HAL_Driver/Src/stm32f7xx_ll_usb.c ****   ******************************************************************************
  25:Drivers/STM32F7xx_HAL_Driver/Src/stm32f7xx_ll_usb.c ****   @verbatim
  26:Drivers/STM32F7xx_HAL_Driver/Src/stm32f7xx_ll_usb.c ****   ==============================================================================
  27:Drivers/STM32F7xx_HAL_Driver/Src/stm32f7xx_ll_usb.c ****                     ##### How to use this driver #####
  28:Drivers/STM32F7xx_HAL_Driver/Src/stm32f7xx_ll_usb.c ****   ==============================================================================
  29:Drivers/STM32F7xx_HAL_Driver/Src/stm32f7xx_ll_usb.c ****     [..]
  30:Drivers/STM32F7xx_HAL_Driver/Src/stm32f7xx_ll_usb.c ****       (#) Fill parameters of Init structure in USB_OTG_CfgTypeDef structure.
  31:Drivers/STM32F7xx_HAL_Driver/Src/stm32f7xx_ll_usb.c **** 
ARM GAS  /tmp/ccrvI8Gd.s 			page 2


  32:Drivers/STM32F7xx_HAL_Driver/Src/stm32f7xx_ll_usb.c ****       (#) Call USB_CoreInit() API to initialize the USB Core peripheral.
  33:Drivers/STM32F7xx_HAL_Driver/Src/stm32f7xx_ll_usb.c **** 
  34:Drivers/STM32F7xx_HAL_Driver/Src/stm32f7xx_ll_usb.c ****       (#) The upper HAL HCD/PCD driver will call the right routines for its internal processes.
  35:Drivers/STM32F7xx_HAL_Driver/Src/stm32f7xx_ll_usb.c **** 
  36:Drivers/STM32F7xx_HAL_Driver/Src/stm32f7xx_ll_usb.c ****   @endverbatim
  37:Drivers/STM32F7xx_HAL_Driver/Src/stm32f7xx_ll_usb.c **** 
  38:Drivers/STM32F7xx_HAL_Driver/Src/stm32f7xx_ll_usb.c ****   ******************************************************************************
  39:Drivers/STM32F7xx_HAL_Driver/Src/stm32f7xx_ll_usb.c ****   */
  40:Drivers/STM32F7xx_HAL_Driver/Src/stm32f7xx_ll_usb.c **** 
  41:Drivers/STM32F7xx_HAL_Driver/Src/stm32f7xx_ll_usb.c **** /* Includes ------------------------------------------------------------------*/
  42:Drivers/STM32F7xx_HAL_Driver/Src/stm32f7xx_ll_usb.c **** #include "stm32f7xx_hal.h"
  43:Drivers/STM32F7xx_HAL_Driver/Src/stm32f7xx_ll_usb.c **** 
  44:Drivers/STM32F7xx_HAL_Driver/Src/stm32f7xx_ll_usb.c **** /** @addtogroup STM32F7xx_LL_USB_DRIVER
  45:Drivers/STM32F7xx_HAL_Driver/Src/stm32f7xx_ll_usb.c ****   * @{
  46:Drivers/STM32F7xx_HAL_Driver/Src/stm32f7xx_ll_usb.c ****   */
  47:Drivers/STM32F7xx_HAL_Driver/Src/stm32f7xx_ll_usb.c **** 
  48:Drivers/STM32F7xx_HAL_Driver/Src/stm32f7xx_ll_usb.c **** #if defined (HAL_PCD_MODULE_ENABLED) || defined (HAL_HCD_MODULE_ENABLED)
  49:Drivers/STM32F7xx_HAL_Driver/Src/stm32f7xx_ll_usb.c **** #if defined (USB_OTG_FS) || defined (USB_OTG_HS)
  50:Drivers/STM32F7xx_HAL_Driver/Src/stm32f7xx_ll_usb.c **** /* Private typedef -----------------------------------------------------------*/
  51:Drivers/STM32F7xx_HAL_Driver/Src/stm32f7xx_ll_usb.c **** /* Private define ------------------------------------------------------------*/
  52:Drivers/STM32F7xx_HAL_Driver/Src/stm32f7xx_ll_usb.c **** /* Private macro -------------------------------------------------------------*/
  53:Drivers/STM32F7xx_HAL_Driver/Src/stm32f7xx_ll_usb.c **** /* Private variables ---------------------------------------------------------*/
  54:Drivers/STM32F7xx_HAL_Driver/Src/stm32f7xx_ll_usb.c **** /* Private function prototypes -----------------------------------------------*/
  55:Drivers/STM32F7xx_HAL_Driver/Src/stm32f7xx_ll_usb.c **** /* Private functions ---------------------------------------------------------*/
  56:Drivers/STM32F7xx_HAL_Driver/Src/stm32f7xx_ll_usb.c **** #if defined (USB_OTG_FS) || defined (USB_OTG_HS)
  57:Drivers/STM32F7xx_HAL_Driver/Src/stm32f7xx_ll_usb.c **** static HAL_StatusTypeDef USB_CoreReset(USB_OTG_GlobalTypeDef *USBx);
  58:Drivers/STM32F7xx_HAL_Driver/Src/stm32f7xx_ll_usb.c **** #ifdef USBPHYC
  59:Drivers/STM32F7xx_HAL_Driver/Src/stm32f7xx_ll_usb.c **** static HAL_StatusTypeDef USB_HS_PHYCInit(USB_OTG_GlobalTypeDef *USBx);
  60:Drivers/STM32F7xx_HAL_Driver/Src/stm32f7xx_ll_usb.c **** #endif /* USBPHYC */
  61:Drivers/STM32F7xx_HAL_Driver/Src/stm32f7xx_ll_usb.c **** 
  62:Drivers/STM32F7xx_HAL_Driver/Src/stm32f7xx_ll_usb.c **** /* Exported functions --------------------------------------------------------*/
  63:Drivers/STM32F7xx_HAL_Driver/Src/stm32f7xx_ll_usb.c **** /** @defgroup USB_LL_Exported_Functions USB Low Layer Exported Functions
  64:Drivers/STM32F7xx_HAL_Driver/Src/stm32f7xx_ll_usb.c ****   * @{
  65:Drivers/STM32F7xx_HAL_Driver/Src/stm32f7xx_ll_usb.c ****   */
  66:Drivers/STM32F7xx_HAL_Driver/Src/stm32f7xx_ll_usb.c **** 
  67:Drivers/STM32F7xx_HAL_Driver/Src/stm32f7xx_ll_usb.c **** /** @defgroup USB_LL_Exported_Functions_Group1 Initialization/de-initialization functions
  68:Drivers/STM32F7xx_HAL_Driver/Src/stm32f7xx_ll_usb.c ****   *  @brief    Initialization and Configuration functions
  69:Drivers/STM32F7xx_HAL_Driver/Src/stm32f7xx_ll_usb.c ****   *
  70:Drivers/STM32F7xx_HAL_Driver/Src/stm32f7xx_ll_usb.c **** @verbatim
  71:Drivers/STM32F7xx_HAL_Driver/Src/stm32f7xx_ll_usb.c ****  ===============================================================================
  72:Drivers/STM32F7xx_HAL_Driver/Src/stm32f7xx_ll_usb.c ****                       ##### Initialization/de-initialization functions #####
  73:Drivers/STM32F7xx_HAL_Driver/Src/stm32f7xx_ll_usb.c ****  ===============================================================================
  74:Drivers/STM32F7xx_HAL_Driver/Src/stm32f7xx_ll_usb.c **** 
  75:Drivers/STM32F7xx_HAL_Driver/Src/stm32f7xx_ll_usb.c **** @endverbatim
  76:Drivers/STM32F7xx_HAL_Driver/Src/stm32f7xx_ll_usb.c ****   * @{
  77:Drivers/STM32F7xx_HAL_Driver/Src/stm32f7xx_ll_usb.c ****   */
  78:Drivers/STM32F7xx_HAL_Driver/Src/stm32f7xx_ll_usb.c **** 
  79:Drivers/STM32F7xx_HAL_Driver/Src/stm32f7xx_ll_usb.c **** /**
  80:Drivers/STM32F7xx_HAL_Driver/Src/stm32f7xx_ll_usb.c ****   * @brief  Initializes the USB Core
  81:Drivers/STM32F7xx_HAL_Driver/Src/stm32f7xx_ll_usb.c ****   * @param  USBx USB Instance
  82:Drivers/STM32F7xx_HAL_Driver/Src/stm32f7xx_ll_usb.c ****   * @param  cfg pointer to a USB_OTG_CfgTypeDef structure that contains
  83:Drivers/STM32F7xx_HAL_Driver/Src/stm32f7xx_ll_usb.c ****   *         the configuration information for the specified USBx peripheral.
  84:Drivers/STM32F7xx_HAL_Driver/Src/stm32f7xx_ll_usb.c ****   * @retval HAL status
  85:Drivers/STM32F7xx_HAL_Driver/Src/stm32f7xx_ll_usb.c ****   */
  86:Drivers/STM32F7xx_HAL_Driver/Src/stm32f7xx_ll_usb.c **** HAL_StatusTypeDef USB_CoreInit(USB_OTG_GlobalTypeDef *USBx, USB_OTG_CfgTypeDef cfg)
  87:Drivers/STM32F7xx_HAL_Driver/Src/stm32f7xx_ll_usb.c **** {
  88:Drivers/STM32F7xx_HAL_Driver/Src/stm32f7xx_ll_usb.c ****   HAL_StatusTypeDef ret;
ARM GAS  /tmp/ccrvI8Gd.s 			page 3


  89:Drivers/STM32F7xx_HAL_Driver/Src/stm32f7xx_ll_usb.c **** 
  90:Drivers/STM32F7xx_HAL_Driver/Src/stm32f7xx_ll_usb.c ****   if (cfg.phy_itface == USB_OTG_ULPI_PHY)
  91:Drivers/STM32F7xx_HAL_Driver/Src/stm32f7xx_ll_usb.c ****   {
  92:Drivers/STM32F7xx_HAL_Driver/Src/stm32f7xx_ll_usb.c ****     USBx->GCCFG &= ~(USB_OTG_GCCFG_PWRDWN);
  93:Drivers/STM32F7xx_HAL_Driver/Src/stm32f7xx_ll_usb.c **** 
  94:Drivers/STM32F7xx_HAL_Driver/Src/stm32f7xx_ll_usb.c ****     /* Init The ULPI Interface */
  95:Drivers/STM32F7xx_HAL_Driver/Src/stm32f7xx_ll_usb.c ****     USBx->GUSBCFG &= ~(USB_OTG_GUSBCFG_TSDPS | USB_OTG_GUSBCFG_ULPIFSLS | USB_OTG_GUSBCFG_PHYSEL);
  96:Drivers/STM32F7xx_HAL_Driver/Src/stm32f7xx_ll_usb.c **** 
  97:Drivers/STM32F7xx_HAL_Driver/Src/stm32f7xx_ll_usb.c **** #if defined(STM32F722xx) || defined(STM32F723xx) || defined(STM32F730xx) || defined(STM32F732xx) ||
  98:Drivers/STM32F7xx_HAL_Driver/Src/stm32f7xx_ll_usb.c ****     /* Select ULPI Interface */
  99:Drivers/STM32F7xx_HAL_Driver/Src/stm32f7xx_ll_usb.c ****     USBx->GUSBCFG |= USB_OTG_GUSBCFG_ULPI_UTMI_SEL;
 100:Drivers/STM32F7xx_HAL_Driver/Src/stm32f7xx_ll_usb.c **** #endif /* defined(STM32F722xx) || defined(STM32F723xx) || defined(STM32F730xx) || defined(STM32F732
 101:Drivers/STM32F7xx_HAL_Driver/Src/stm32f7xx_ll_usb.c **** 
 102:Drivers/STM32F7xx_HAL_Driver/Src/stm32f7xx_ll_usb.c ****     /* Select vbus source */
 103:Drivers/STM32F7xx_HAL_Driver/Src/stm32f7xx_ll_usb.c ****     USBx->GUSBCFG &= ~(USB_OTG_GUSBCFG_ULPIEVBUSD | USB_OTG_GUSBCFG_ULPIEVBUSI);
 104:Drivers/STM32F7xx_HAL_Driver/Src/stm32f7xx_ll_usb.c ****     if (cfg.use_external_vbus == 1U)
 105:Drivers/STM32F7xx_HAL_Driver/Src/stm32f7xx_ll_usb.c ****     {
 106:Drivers/STM32F7xx_HAL_Driver/Src/stm32f7xx_ll_usb.c ****       USBx->GUSBCFG |= USB_OTG_GUSBCFG_ULPIEVBUSD;
 107:Drivers/STM32F7xx_HAL_Driver/Src/stm32f7xx_ll_usb.c ****     }
 108:Drivers/STM32F7xx_HAL_Driver/Src/stm32f7xx_ll_usb.c **** 
 109:Drivers/STM32F7xx_HAL_Driver/Src/stm32f7xx_ll_usb.c ****     /* Reset after a PHY select */
 110:Drivers/STM32F7xx_HAL_Driver/Src/stm32f7xx_ll_usb.c ****     ret = USB_CoreReset(USBx);
 111:Drivers/STM32F7xx_HAL_Driver/Src/stm32f7xx_ll_usb.c ****   }
 112:Drivers/STM32F7xx_HAL_Driver/Src/stm32f7xx_ll_usb.c **** #if defined(STM32F722xx) || defined(STM32F723xx) || defined(STM32F730xx) || defined(STM32F732xx) ||
 113:Drivers/STM32F7xx_HAL_Driver/Src/stm32f7xx_ll_usb.c ****   else if (cfg.phy_itface == USB_OTG_HS_EMBEDDED_PHY)
 114:Drivers/STM32F7xx_HAL_Driver/Src/stm32f7xx_ll_usb.c ****   {
 115:Drivers/STM32F7xx_HAL_Driver/Src/stm32f7xx_ll_usb.c ****     USBx->GCCFG &= ~(USB_OTG_GCCFG_PWRDWN);
 116:Drivers/STM32F7xx_HAL_Driver/Src/stm32f7xx_ll_usb.c **** 
 117:Drivers/STM32F7xx_HAL_Driver/Src/stm32f7xx_ll_usb.c ****     /* Init The UTMI Interface */
 118:Drivers/STM32F7xx_HAL_Driver/Src/stm32f7xx_ll_usb.c ****     USBx->GUSBCFG &= ~(USB_OTG_GUSBCFG_TSDPS | USB_OTG_GUSBCFG_ULPIFSLS | USB_OTG_GUSBCFG_PHYSEL);
 119:Drivers/STM32F7xx_HAL_Driver/Src/stm32f7xx_ll_usb.c **** 
 120:Drivers/STM32F7xx_HAL_Driver/Src/stm32f7xx_ll_usb.c ****     /* Select vbus source */
 121:Drivers/STM32F7xx_HAL_Driver/Src/stm32f7xx_ll_usb.c ****     USBx->GUSBCFG &= ~(USB_OTG_GUSBCFG_ULPIEVBUSD | USB_OTG_GUSBCFG_ULPIEVBUSI);
 122:Drivers/STM32F7xx_HAL_Driver/Src/stm32f7xx_ll_usb.c **** 
 123:Drivers/STM32F7xx_HAL_Driver/Src/stm32f7xx_ll_usb.c ****     /* Select UTMI Interface */
 124:Drivers/STM32F7xx_HAL_Driver/Src/stm32f7xx_ll_usb.c ****     USBx->GUSBCFG &= ~USB_OTG_GUSBCFG_ULPI_UTMI_SEL;
 125:Drivers/STM32F7xx_HAL_Driver/Src/stm32f7xx_ll_usb.c **** #ifdef USBPHYC
 126:Drivers/STM32F7xx_HAL_Driver/Src/stm32f7xx_ll_usb.c ****     /* Enable USB HS PHY */
 127:Drivers/STM32F7xx_HAL_Driver/Src/stm32f7xx_ll_usb.c ****     USBx->GCCFG |= USB_OTG_GCCFG_PHYHSEN;
 128:Drivers/STM32F7xx_HAL_Driver/Src/stm32f7xx_ll_usb.c **** 
 129:Drivers/STM32F7xx_HAL_Driver/Src/stm32f7xx_ll_usb.c ****     /* Enables control of a High Speed USB PHY */
 130:Drivers/STM32F7xx_HAL_Driver/Src/stm32f7xx_ll_usb.c ****     if (USB_HS_PHYCInit(USBx) != HAL_OK)
 131:Drivers/STM32F7xx_HAL_Driver/Src/stm32f7xx_ll_usb.c ****     {
 132:Drivers/STM32F7xx_HAL_Driver/Src/stm32f7xx_ll_usb.c ****       return HAL_ERROR;
 133:Drivers/STM32F7xx_HAL_Driver/Src/stm32f7xx_ll_usb.c ****     }
 134:Drivers/STM32F7xx_HAL_Driver/Src/stm32f7xx_ll_usb.c **** #endif /* USBPHYC */
 135:Drivers/STM32F7xx_HAL_Driver/Src/stm32f7xx_ll_usb.c **** 
 136:Drivers/STM32F7xx_HAL_Driver/Src/stm32f7xx_ll_usb.c ****     if (cfg.use_external_vbus == 1U)
 137:Drivers/STM32F7xx_HAL_Driver/Src/stm32f7xx_ll_usb.c ****     {
 138:Drivers/STM32F7xx_HAL_Driver/Src/stm32f7xx_ll_usb.c ****       USBx->GUSBCFG |= USB_OTG_GUSBCFG_ULPIEVBUSD;
 139:Drivers/STM32F7xx_HAL_Driver/Src/stm32f7xx_ll_usb.c ****     }
 140:Drivers/STM32F7xx_HAL_Driver/Src/stm32f7xx_ll_usb.c **** 
 141:Drivers/STM32F7xx_HAL_Driver/Src/stm32f7xx_ll_usb.c ****     /* Reset after a PHY select */
 142:Drivers/STM32F7xx_HAL_Driver/Src/stm32f7xx_ll_usb.c ****     ret = USB_CoreReset(USBx);
 143:Drivers/STM32F7xx_HAL_Driver/Src/stm32f7xx_ll_usb.c ****   }
 144:Drivers/STM32F7xx_HAL_Driver/Src/stm32f7xx_ll_usb.c **** #endif /* defined(STM32F722xx) || defined(STM32F723xx) || defined(STM32F730xx) || defined(STM32F732
 145:Drivers/STM32F7xx_HAL_Driver/Src/stm32f7xx_ll_usb.c ****   else /* FS interface (embedded Phy) */
ARM GAS  /tmp/ccrvI8Gd.s 			page 4


 146:Drivers/STM32F7xx_HAL_Driver/Src/stm32f7xx_ll_usb.c ****   {
 147:Drivers/STM32F7xx_HAL_Driver/Src/stm32f7xx_ll_usb.c ****     /* Select FS Embedded PHY */
 148:Drivers/STM32F7xx_HAL_Driver/Src/stm32f7xx_ll_usb.c ****     USBx->GUSBCFG |= USB_OTG_GUSBCFG_PHYSEL;
 149:Drivers/STM32F7xx_HAL_Driver/Src/stm32f7xx_ll_usb.c **** 
 150:Drivers/STM32F7xx_HAL_Driver/Src/stm32f7xx_ll_usb.c ****     /* Reset after a PHY select */
 151:Drivers/STM32F7xx_HAL_Driver/Src/stm32f7xx_ll_usb.c ****     ret = USB_CoreReset(USBx);
 152:Drivers/STM32F7xx_HAL_Driver/Src/stm32f7xx_ll_usb.c **** 
 153:Drivers/STM32F7xx_HAL_Driver/Src/stm32f7xx_ll_usb.c ****     /* Activate the USB Transceiver */
 154:Drivers/STM32F7xx_HAL_Driver/Src/stm32f7xx_ll_usb.c ****     USBx->GCCFG |= USB_OTG_GCCFG_PWRDWN;
 155:Drivers/STM32F7xx_HAL_Driver/Src/stm32f7xx_ll_usb.c ****   }
 156:Drivers/STM32F7xx_HAL_Driver/Src/stm32f7xx_ll_usb.c **** 
 157:Drivers/STM32F7xx_HAL_Driver/Src/stm32f7xx_ll_usb.c ****   if (cfg.dma_enable == 1U)
 158:Drivers/STM32F7xx_HAL_Driver/Src/stm32f7xx_ll_usb.c ****   {
 159:Drivers/STM32F7xx_HAL_Driver/Src/stm32f7xx_ll_usb.c ****     USBx->GAHBCFG |= USB_OTG_GAHBCFG_HBSTLEN_2;
 160:Drivers/STM32F7xx_HAL_Driver/Src/stm32f7xx_ll_usb.c ****     USBx->GAHBCFG |= USB_OTG_GAHBCFG_DMAEN;
 161:Drivers/STM32F7xx_HAL_Driver/Src/stm32f7xx_ll_usb.c ****   }
 162:Drivers/STM32F7xx_HAL_Driver/Src/stm32f7xx_ll_usb.c **** 
 163:Drivers/STM32F7xx_HAL_Driver/Src/stm32f7xx_ll_usb.c ****   return ret;
 164:Drivers/STM32F7xx_HAL_Driver/Src/stm32f7xx_ll_usb.c **** }
 165:Drivers/STM32F7xx_HAL_Driver/Src/stm32f7xx_ll_usb.c **** 
 166:Drivers/STM32F7xx_HAL_Driver/Src/stm32f7xx_ll_usb.c **** 
 167:Drivers/STM32F7xx_HAL_Driver/Src/stm32f7xx_ll_usb.c **** /**
 168:Drivers/STM32F7xx_HAL_Driver/Src/stm32f7xx_ll_usb.c ****   * @brief  Set the USB turnaround time
 169:Drivers/STM32F7xx_HAL_Driver/Src/stm32f7xx_ll_usb.c ****   * @param  USBx USB Instance
 170:Drivers/STM32F7xx_HAL_Driver/Src/stm32f7xx_ll_usb.c ****   * @param  hclk: AHB clock frequency
 171:Drivers/STM32F7xx_HAL_Driver/Src/stm32f7xx_ll_usb.c ****   * @retval USB turnaround time In PHY Clocks number
 172:Drivers/STM32F7xx_HAL_Driver/Src/stm32f7xx_ll_usb.c ****   */
 173:Drivers/STM32F7xx_HAL_Driver/Src/stm32f7xx_ll_usb.c **** HAL_StatusTypeDef USB_SetTurnaroundTime(USB_OTG_GlobalTypeDef *USBx,
 174:Drivers/STM32F7xx_HAL_Driver/Src/stm32f7xx_ll_usb.c ****                                         uint32_t hclk, uint8_t speed)
 175:Drivers/STM32F7xx_HAL_Driver/Src/stm32f7xx_ll_usb.c **** {
 176:Drivers/STM32F7xx_HAL_Driver/Src/stm32f7xx_ll_usb.c ****   uint32_t UsbTrd;
 177:Drivers/STM32F7xx_HAL_Driver/Src/stm32f7xx_ll_usb.c **** 
 178:Drivers/STM32F7xx_HAL_Driver/Src/stm32f7xx_ll_usb.c ****   /* The USBTRD is configured according to the tables below, depending on AHB frequency
 179:Drivers/STM32F7xx_HAL_Driver/Src/stm32f7xx_ll_usb.c ****   used by application. In the low AHB frequency range it is used to stretch enough the USB response
 180:Drivers/STM32F7xx_HAL_Driver/Src/stm32f7xx_ll_usb.c ****   time to IN tokens, the USB turnaround time, so to compensate for the longer AHB read access
 181:Drivers/STM32F7xx_HAL_Driver/Src/stm32f7xx_ll_usb.c ****   latency to the Data FIFO */
 182:Drivers/STM32F7xx_HAL_Driver/Src/stm32f7xx_ll_usb.c ****   if (speed == USBD_FS_SPEED)
 183:Drivers/STM32F7xx_HAL_Driver/Src/stm32f7xx_ll_usb.c ****   {
 184:Drivers/STM32F7xx_HAL_Driver/Src/stm32f7xx_ll_usb.c ****     if ((hclk >= 14200000U) && (hclk < 15000000U))
 185:Drivers/STM32F7xx_HAL_Driver/Src/stm32f7xx_ll_usb.c ****     {
 186:Drivers/STM32F7xx_HAL_Driver/Src/stm32f7xx_ll_usb.c ****       /* hclk Clock Range between 14.2-15 MHz */
 187:Drivers/STM32F7xx_HAL_Driver/Src/stm32f7xx_ll_usb.c ****       UsbTrd = 0xFU;
 188:Drivers/STM32F7xx_HAL_Driver/Src/stm32f7xx_ll_usb.c ****     }
 189:Drivers/STM32F7xx_HAL_Driver/Src/stm32f7xx_ll_usb.c ****     else if ((hclk >= 15000000U) && (hclk < 16000000U))
 190:Drivers/STM32F7xx_HAL_Driver/Src/stm32f7xx_ll_usb.c ****     {
 191:Drivers/STM32F7xx_HAL_Driver/Src/stm32f7xx_ll_usb.c ****       /* hclk Clock Range between 15-16 MHz */
 192:Drivers/STM32F7xx_HAL_Driver/Src/stm32f7xx_ll_usb.c ****       UsbTrd = 0xEU;
 193:Drivers/STM32F7xx_HAL_Driver/Src/stm32f7xx_ll_usb.c ****     }
 194:Drivers/STM32F7xx_HAL_Driver/Src/stm32f7xx_ll_usb.c ****     else if ((hclk >= 16000000U) && (hclk < 17200000U))
 195:Drivers/STM32F7xx_HAL_Driver/Src/stm32f7xx_ll_usb.c ****     {
 196:Drivers/STM32F7xx_HAL_Driver/Src/stm32f7xx_ll_usb.c ****       /* hclk Clock Range between 16-17.2 MHz */
 197:Drivers/STM32F7xx_HAL_Driver/Src/stm32f7xx_ll_usb.c ****       UsbTrd = 0xDU;
 198:Drivers/STM32F7xx_HAL_Driver/Src/stm32f7xx_ll_usb.c ****     }
 199:Drivers/STM32F7xx_HAL_Driver/Src/stm32f7xx_ll_usb.c ****     else if ((hclk >= 17200000U) && (hclk < 18500000U))
 200:Drivers/STM32F7xx_HAL_Driver/Src/stm32f7xx_ll_usb.c ****     {
 201:Drivers/STM32F7xx_HAL_Driver/Src/stm32f7xx_ll_usb.c ****       /* hclk Clock Range between 17.2-18.5 MHz */
 202:Drivers/STM32F7xx_HAL_Driver/Src/stm32f7xx_ll_usb.c ****       UsbTrd = 0xCU;
ARM GAS  /tmp/ccrvI8Gd.s 			page 5


 203:Drivers/STM32F7xx_HAL_Driver/Src/stm32f7xx_ll_usb.c ****     }
 204:Drivers/STM32F7xx_HAL_Driver/Src/stm32f7xx_ll_usb.c ****     else if ((hclk >= 18500000U) && (hclk < 20000000U))
 205:Drivers/STM32F7xx_HAL_Driver/Src/stm32f7xx_ll_usb.c ****     {
 206:Drivers/STM32F7xx_HAL_Driver/Src/stm32f7xx_ll_usb.c ****       /* hclk Clock Range between 18.5-20 MHz */
 207:Drivers/STM32F7xx_HAL_Driver/Src/stm32f7xx_ll_usb.c ****       UsbTrd = 0xBU;
 208:Drivers/STM32F7xx_HAL_Driver/Src/stm32f7xx_ll_usb.c ****     }
 209:Drivers/STM32F7xx_HAL_Driver/Src/stm32f7xx_ll_usb.c ****     else if ((hclk >= 20000000U) && (hclk < 21800000U))
 210:Drivers/STM32F7xx_HAL_Driver/Src/stm32f7xx_ll_usb.c ****     {
 211:Drivers/STM32F7xx_HAL_Driver/Src/stm32f7xx_ll_usb.c ****       /* hclk Clock Range between 20-21.8 MHz */
 212:Drivers/STM32F7xx_HAL_Driver/Src/stm32f7xx_ll_usb.c ****       UsbTrd = 0xAU;
 213:Drivers/STM32F7xx_HAL_Driver/Src/stm32f7xx_ll_usb.c ****     }
 214:Drivers/STM32F7xx_HAL_Driver/Src/stm32f7xx_ll_usb.c ****     else if ((hclk >= 21800000U) && (hclk < 24000000U))
 215:Drivers/STM32F7xx_HAL_Driver/Src/stm32f7xx_ll_usb.c ****     {
 216:Drivers/STM32F7xx_HAL_Driver/Src/stm32f7xx_ll_usb.c ****       /* hclk Clock Range between 21.8-24 MHz */
 217:Drivers/STM32F7xx_HAL_Driver/Src/stm32f7xx_ll_usb.c ****       UsbTrd = 0x9U;
 218:Drivers/STM32F7xx_HAL_Driver/Src/stm32f7xx_ll_usb.c ****     }
 219:Drivers/STM32F7xx_HAL_Driver/Src/stm32f7xx_ll_usb.c ****     else if ((hclk >= 24000000U) && (hclk < 27700000U))
 220:Drivers/STM32F7xx_HAL_Driver/Src/stm32f7xx_ll_usb.c ****     {
 221:Drivers/STM32F7xx_HAL_Driver/Src/stm32f7xx_ll_usb.c ****       /* hclk Clock Range between 24-27.7 MHz */
 222:Drivers/STM32F7xx_HAL_Driver/Src/stm32f7xx_ll_usb.c ****       UsbTrd = 0x8U;
 223:Drivers/STM32F7xx_HAL_Driver/Src/stm32f7xx_ll_usb.c ****     }
 224:Drivers/STM32F7xx_HAL_Driver/Src/stm32f7xx_ll_usb.c ****     else if ((hclk >= 27700000U) && (hclk < 32000000U))
 225:Drivers/STM32F7xx_HAL_Driver/Src/stm32f7xx_ll_usb.c ****     {
 226:Drivers/STM32F7xx_HAL_Driver/Src/stm32f7xx_ll_usb.c ****       /* hclk Clock Range between 27.7-32 MHz */
 227:Drivers/STM32F7xx_HAL_Driver/Src/stm32f7xx_ll_usb.c ****       UsbTrd = 0x7U;
 228:Drivers/STM32F7xx_HAL_Driver/Src/stm32f7xx_ll_usb.c ****     }
 229:Drivers/STM32F7xx_HAL_Driver/Src/stm32f7xx_ll_usb.c ****     else /* if(hclk >= 32000000) */
 230:Drivers/STM32F7xx_HAL_Driver/Src/stm32f7xx_ll_usb.c ****     {
 231:Drivers/STM32F7xx_HAL_Driver/Src/stm32f7xx_ll_usb.c ****       /* hclk Clock Range between 32-200 MHz */
 232:Drivers/STM32F7xx_HAL_Driver/Src/stm32f7xx_ll_usb.c ****       UsbTrd = 0x6U;
 233:Drivers/STM32F7xx_HAL_Driver/Src/stm32f7xx_ll_usb.c ****     }
 234:Drivers/STM32F7xx_HAL_Driver/Src/stm32f7xx_ll_usb.c ****   }
 235:Drivers/STM32F7xx_HAL_Driver/Src/stm32f7xx_ll_usb.c ****   else if (speed == USBD_HS_SPEED)
 236:Drivers/STM32F7xx_HAL_Driver/Src/stm32f7xx_ll_usb.c ****   {
 237:Drivers/STM32F7xx_HAL_Driver/Src/stm32f7xx_ll_usb.c ****     UsbTrd = USBD_HS_TRDT_VALUE;
 238:Drivers/STM32F7xx_HAL_Driver/Src/stm32f7xx_ll_usb.c ****   }
 239:Drivers/STM32F7xx_HAL_Driver/Src/stm32f7xx_ll_usb.c ****   else
 240:Drivers/STM32F7xx_HAL_Driver/Src/stm32f7xx_ll_usb.c ****   {
 241:Drivers/STM32F7xx_HAL_Driver/Src/stm32f7xx_ll_usb.c ****     UsbTrd = USBD_DEFAULT_TRDT_VALUE;
 242:Drivers/STM32F7xx_HAL_Driver/Src/stm32f7xx_ll_usb.c ****   }
 243:Drivers/STM32F7xx_HAL_Driver/Src/stm32f7xx_ll_usb.c **** 
 244:Drivers/STM32F7xx_HAL_Driver/Src/stm32f7xx_ll_usb.c ****   USBx->GUSBCFG &= ~USB_OTG_GUSBCFG_TRDT;
 245:Drivers/STM32F7xx_HAL_Driver/Src/stm32f7xx_ll_usb.c ****   USBx->GUSBCFG |= (uint32_t)((UsbTrd << 10) & USB_OTG_GUSBCFG_TRDT);
 246:Drivers/STM32F7xx_HAL_Driver/Src/stm32f7xx_ll_usb.c **** 
 247:Drivers/STM32F7xx_HAL_Driver/Src/stm32f7xx_ll_usb.c ****   return HAL_OK;
 248:Drivers/STM32F7xx_HAL_Driver/Src/stm32f7xx_ll_usb.c **** }
 249:Drivers/STM32F7xx_HAL_Driver/Src/stm32f7xx_ll_usb.c **** 
 250:Drivers/STM32F7xx_HAL_Driver/Src/stm32f7xx_ll_usb.c **** /**
 251:Drivers/STM32F7xx_HAL_Driver/Src/stm32f7xx_ll_usb.c ****   * @brief  USB_EnableGlobalInt
 252:Drivers/STM32F7xx_HAL_Driver/Src/stm32f7xx_ll_usb.c ****   *         Enables the controller's Global Int in the AHB Config reg
 253:Drivers/STM32F7xx_HAL_Driver/Src/stm32f7xx_ll_usb.c ****   * @param  USBx  Selected device
 254:Drivers/STM32F7xx_HAL_Driver/Src/stm32f7xx_ll_usb.c ****   * @retval HAL status
 255:Drivers/STM32F7xx_HAL_Driver/Src/stm32f7xx_ll_usb.c ****   */
 256:Drivers/STM32F7xx_HAL_Driver/Src/stm32f7xx_ll_usb.c **** HAL_StatusTypeDef USB_EnableGlobalInt(USB_OTG_GlobalTypeDef *USBx)
 257:Drivers/STM32F7xx_HAL_Driver/Src/stm32f7xx_ll_usb.c **** {
 258:Drivers/STM32F7xx_HAL_Driver/Src/stm32f7xx_ll_usb.c ****   USBx->GAHBCFG |= USB_OTG_GAHBCFG_GINT;
 259:Drivers/STM32F7xx_HAL_Driver/Src/stm32f7xx_ll_usb.c ****   return HAL_OK;
ARM GAS  /tmp/ccrvI8Gd.s 			page 6


 260:Drivers/STM32F7xx_HAL_Driver/Src/stm32f7xx_ll_usb.c **** }
 261:Drivers/STM32F7xx_HAL_Driver/Src/stm32f7xx_ll_usb.c **** 
 262:Drivers/STM32F7xx_HAL_Driver/Src/stm32f7xx_ll_usb.c **** /**
 263:Drivers/STM32F7xx_HAL_Driver/Src/stm32f7xx_ll_usb.c ****   * @brief  USB_DisableGlobalInt
 264:Drivers/STM32F7xx_HAL_Driver/Src/stm32f7xx_ll_usb.c ****   *         Disable the controller's Global Int in the AHB Config reg
 265:Drivers/STM32F7xx_HAL_Driver/Src/stm32f7xx_ll_usb.c ****   * @param  USBx  Selected device
 266:Drivers/STM32F7xx_HAL_Driver/Src/stm32f7xx_ll_usb.c ****   * @retval HAL status
 267:Drivers/STM32F7xx_HAL_Driver/Src/stm32f7xx_ll_usb.c ****   */
 268:Drivers/STM32F7xx_HAL_Driver/Src/stm32f7xx_ll_usb.c **** HAL_StatusTypeDef USB_DisableGlobalInt(USB_OTG_GlobalTypeDef *USBx)
 269:Drivers/STM32F7xx_HAL_Driver/Src/stm32f7xx_ll_usb.c **** {
 270:Drivers/STM32F7xx_HAL_Driver/Src/stm32f7xx_ll_usb.c ****   USBx->GAHBCFG &= ~USB_OTG_GAHBCFG_GINT;
 271:Drivers/STM32F7xx_HAL_Driver/Src/stm32f7xx_ll_usb.c ****   return HAL_OK;
 272:Drivers/STM32F7xx_HAL_Driver/Src/stm32f7xx_ll_usb.c **** }
 273:Drivers/STM32F7xx_HAL_Driver/Src/stm32f7xx_ll_usb.c **** 
 274:Drivers/STM32F7xx_HAL_Driver/Src/stm32f7xx_ll_usb.c **** /**
 275:Drivers/STM32F7xx_HAL_Driver/Src/stm32f7xx_ll_usb.c ****   * @brief  USB_SetCurrentMode Set functional mode
 276:Drivers/STM32F7xx_HAL_Driver/Src/stm32f7xx_ll_usb.c ****   * @param  USBx  Selected device
 277:Drivers/STM32F7xx_HAL_Driver/Src/stm32f7xx_ll_usb.c ****   * @param  mode  current core mode
 278:Drivers/STM32F7xx_HAL_Driver/Src/stm32f7xx_ll_usb.c ****   *          This parameter can be one of these values:
 279:Drivers/STM32F7xx_HAL_Driver/Src/stm32f7xx_ll_usb.c ****   *            @arg USB_DEVICE_MODE Peripheral mode
 280:Drivers/STM32F7xx_HAL_Driver/Src/stm32f7xx_ll_usb.c ****   *            @arg USB_HOST_MODE Host mode
 281:Drivers/STM32F7xx_HAL_Driver/Src/stm32f7xx_ll_usb.c ****   * @retval HAL status
 282:Drivers/STM32F7xx_HAL_Driver/Src/stm32f7xx_ll_usb.c ****   */
 283:Drivers/STM32F7xx_HAL_Driver/Src/stm32f7xx_ll_usb.c **** HAL_StatusTypeDef USB_SetCurrentMode(USB_OTG_GlobalTypeDef *USBx, USB_OTG_ModeTypeDef mode)
 284:Drivers/STM32F7xx_HAL_Driver/Src/stm32f7xx_ll_usb.c **** {
 285:Drivers/STM32F7xx_HAL_Driver/Src/stm32f7xx_ll_usb.c ****   uint32_t ms = 0U;
 286:Drivers/STM32F7xx_HAL_Driver/Src/stm32f7xx_ll_usb.c **** 
 287:Drivers/STM32F7xx_HAL_Driver/Src/stm32f7xx_ll_usb.c ****   USBx->GUSBCFG &= ~(USB_OTG_GUSBCFG_FHMOD | USB_OTG_GUSBCFG_FDMOD);
 288:Drivers/STM32F7xx_HAL_Driver/Src/stm32f7xx_ll_usb.c **** 
 289:Drivers/STM32F7xx_HAL_Driver/Src/stm32f7xx_ll_usb.c ****   if (mode == USB_HOST_MODE)
 290:Drivers/STM32F7xx_HAL_Driver/Src/stm32f7xx_ll_usb.c ****   {
 291:Drivers/STM32F7xx_HAL_Driver/Src/stm32f7xx_ll_usb.c ****     USBx->GUSBCFG |= USB_OTG_GUSBCFG_FHMOD;
 292:Drivers/STM32F7xx_HAL_Driver/Src/stm32f7xx_ll_usb.c **** 
 293:Drivers/STM32F7xx_HAL_Driver/Src/stm32f7xx_ll_usb.c ****     do
 294:Drivers/STM32F7xx_HAL_Driver/Src/stm32f7xx_ll_usb.c ****     {
 295:Drivers/STM32F7xx_HAL_Driver/Src/stm32f7xx_ll_usb.c ****       HAL_Delay(1U);
 296:Drivers/STM32F7xx_HAL_Driver/Src/stm32f7xx_ll_usb.c ****       ms++;
 297:Drivers/STM32F7xx_HAL_Driver/Src/stm32f7xx_ll_usb.c ****     } while ((USB_GetMode(USBx) != (uint32_t)USB_HOST_MODE) && (ms < 50U));
 298:Drivers/STM32F7xx_HAL_Driver/Src/stm32f7xx_ll_usb.c ****   }
 299:Drivers/STM32F7xx_HAL_Driver/Src/stm32f7xx_ll_usb.c ****   else if (mode == USB_DEVICE_MODE)
 300:Drivers/STM32F7xx_HAL_Driver/Src/stm32f7xx_ll_usb.c ****   {
 301:Drivers/STM32F7xx_HAL_Driver/Src/stm32f7xx_ll_usb.c ****     USBx->GUSBCFG |= USB_OTG_GUSBCFG_FDMOD;
 302:Drivers/STM32F7xx_HAL_Driver/Src/stm32f7xx_ll_usb.c **** 
 303:Drivers/STM32F7xx_HAL_Driver/Src/stm32f7xx_ll_usb.c ****     do
 304:Drivers/STM32F7xx_HAL_Driver/Src/stm32f7xx_ll_usb.c ****     {
 305:Drivers/STM32F7xx_HAL_Driver/Src/stm32f7xx_ll_usb.c ****       HAL_Delay(1U);
 306:Drivers/STM32F7xx_HAL_Driver/Src/stm32f7xx_ll_usb.c ****       ms++;
 307:Drivers/STM32F7xx_HAL_Driver/Src/stm32f7xx_ll_usb.c ****     } while ((USB_GetMode(USBx) != (uint32_t)USB_DEVICE_MODE) && (ms < 50U));
 308:Drivers/STM32F7xx_HAL_Driver/Src/stm32f7xx_ll_usb.c ****   }
 309:Drivers/STM32F7xx_HAL_Driver/Src/stm32f7xx_ll_usb.c ****   else
 310:Drivers/STM32F7xx_HAL_Driver/Src/stm32f7xx_ll_usb.c ****   {
 311:Drivers/STM32F7xx_HAL_Driver/Src/stm32f7xx_ll_usb.c ****     return HAL_ERROR;
 312:Drivers/STM32F7xx_HAL_Driver/Src/stm32f7xx_ll_usb.c ****   }
 313:Drivers/STM32F7xx_HAL_Driver/Src/stm32f7xx_ll_usb.c **** 
 314:Drivers/STM32F7xx_HAL_Driver/Src/stm32f7xx_ll_usb.c ****   if (ms == 50U)
 315:Drivers/STM32F7xx_HAL_Driver/Src/stm32f7xx_ll_usb.c ****   {
 316:Drivers/STM32F7xx_HAL_Driver/Src/stm32f7xx_ll_usb.c ****     return HAL_ERROR;
ARM GAS  /tmp/ccrvI8Gd.s 			page 7


 317:Drivers/STM32F7xx_HAL_Driver/Src/stm32f7xx_ll_usb.c ****   }
 318:Drivers/STM32F7xx_HAL_Driver/Src/stm32f7xx_ll_usb.c **** 
 319:Drivers/STM32F7xx_HAL_Driver/Src/stm32f7xx_ll_usb.c ****   return HAL_OK;
 320:Drivers/STM32F7xx_HAL_Driver/Src/stm32f7xx_ll_usb.c **** }
 321:Drivers/STM32F7xx_HAL_Driver/Src/stm32f7xx_ll_usb.c **** 
 322:Drivers/STM32F7xx_HAL_Driver/Src/stm32f7xx_ll_usb.c **** /**
 323:Drivers/STM32F7xx_HAL_Driver/Src/stm32f7xx_ll_usb.c ****   * @brief  USB_DevInit Initializes the USB_OTG controller registers
 324:Drivers/STM32F7xx_HAL_Driver/Src/stm32f7xx_ll_usb.c ****   *         for device mode
 325:Drivers/STM32F7xx_HAL_Driver/Src/stm32f7xx_ll_usb.c ****   * @param  USBx  Selected device
 326:Drivers/STM32F7xx_HAL_Driver/Src/stm32f7xx_ll_usb.c ****   * @param  cfg   pointer to a USB_OTG_CfgTypeDef structure that contains
 327:Drivers/STM32F7xx_HAL_Driver/Src/stm32f7xx_ll_usb.c ****   *         the configuration information for the specified USBx peripheral.
 328:Drivers/STM32F7xx_HAL_Driver/Src/stm32f7xx_ll_usb.c ****   * @retval HAL status
 329:Drivers/STM32F7xx_HAL_Driver/Src/stm32f7xx_ll_usb.c ****   */
 330:Drivers/STM32F7xx_HAL_Driver/Src/stm32f7xx_ll_usb.c **** HAL_StatusTypeDef USB_DevInit(USB_OTG_GlobalTypeDef *USBx, USB_OTG_CfgTypeDef cfg)
 331:Drivers/STM32F7xx_HAL_Driver/Src/stm32f7xx_ll_usb.c **** {
 332:Drivers/STM32F7xx_HAL_Driver/Src/stm32f7xx_ll_usb.c ****   HAL_StatusTypeDef ret = HAL_OK;
 333:Drivers/STM32F7xx_HAL_Driver/Src/stm32f7xx_ll_usb.c ****   uint32_t USBx_BASE = (uint32_t)USBx;
 334:Drivers/STM32F7xx_HAL_Driver/Src/stm32f7xx_ll_usb.c ****   uint32_t i;
 335:Drivers/STM32F7xx_HAL_Driver/Src/stm32f7xx_ll_usb.c **** 
 336:Drivers/STM32F7xx_HAL_Driver/Src/stm32f7xx_ll_usb.c ****   for (i = 0U; i < 15U; i++)
 337:Drivers/STM32F7xx_HAL_Driver/Src/stm32f7xx_ll_usb.c ****   {
 338:Drivers/STM32F7xx_HAL_Driver/Src/stm32f7xx_ll_usb.c ****     USBx->DIEPTXF[i] = 0U;
 339:Drivers/STM32F7xx_HAL_Driver/Src/stm32f7xx_ll_usb.c ****   }
 340:Drivers/STM32F7xx_HAL_Driver/Src/stm32f7xx_ll_usb.c **** 
 341:Drivers/STM32F7xx_HAL_Driver/Src/stm32f7xx_ll_usb.c ****   /* VBUS Sensing setup */
 342:Drivers/STM32F7xx_HAL_Driver/Src/stm32f7xx_ll_usb.c ****   if (cfg.vbus_sensing_enable == 0U)
 343:Drivers/STM32F7xx_HAL_Driver/Src/stm32f7xx_ll_usb.c ****   {
 344:Drivers/STM32F7xx_HAL_Driver/Src/stm32f7xx_ll_usb.c ****     USBx_DEVICE->DCTL |= USB_OTG_DCTL_SDIS;
 345:Drivers/STM32F7xx_HAL_Driver/Src/stm32f7xx_ll_usb.c **** 
 346:Drivers/STM32F7xx_HAL_Driver/Src/stm32f7xx_ll_usb.c ****     /* Deactivate VBUS Sensing B */
 347:Drivers/STM32F7xx_HAL_Driver/Src/stm32f7xx_ll_usb.c ****     USBx->GCCFG &= ~USB_OTG_GCCFG_VBDEN;
 348:Drivers/STM32F7xx_HAL_Driver/Src/stm32f7xx_ll_usb.c **** 
 349:Drivers/STM32F7xx_HAL_Driver/Src/stm32f7xx_ll_usb.c ****     /* B-peripheral session valid override enable */
 350:Drivers/STM32F7xx_HAL_Driver/Src/stm32f7xx_ll_usb.c ****     USBx->GOTGCTL |= USB_OTG_GOTGCTL_BVALOEN;
 351:Drivers/STM32F7xx_HAL_Driver/Src/stm32f7xx_ll_usb.c ****     USBx->GOTGCTL |= USB_OTG_GOTGCTL_BVALOVAL;
 352:Drivers/STM32F7xx_HAL_Driver/Src/stm32f7xx_ll_usb.c ****   }
 353:Drivers/STM32F7xx_HAL_Driver/Src/stm32f7xx_ll_usb.c ****   else
 354:Drivers/STM32F7xx_HAL_Driver/Src/stm32f7xx_ll_usb.c ****   {
 355:Drivers/STM32F7xx_HAL_Driver/Src/stm32f7xx_ll_usb.c ****     /* Enable HW VBUS sensing */
 356:Drivers/STM32F7xx_HAL_Driver/Src/stm32f7xx_ll_usb.c ****     USBx->GCCFG |= USB_OTG_GCCFG_VBDEN;
 357:Drivers/STM32F7xx_HAL_Driver/Src/stm32f7xx_ll_usb.c ****   }
 358:Drivers/STM32F7xx_HAL_Driver/Src/stm32f7xx_ll_usb.c **** 
 359:Drivers/STM32F7xx_HAL_Driver/Src/stm32f7xx_ll_usb.c ****   /* Restart the Phy Clock */
 360:Drivers/STM32F7xx_HAL_Driver/Src/stm32f7xx_ll_usb.c ****   USBx_PCGCCTL = 0U;
 361:Drivers/STM32F7xx_HAL_Driver/Src/stm32f7xx_ll_usb.c **** 
 362:Drivers/STM32F7xx_HAL_Driver/Src/stm32f7xx_ll_usb.c ****   /* Device mode configuration */
 363:Drivers/STM32F7xx_HAL_Driver/Src/stm32f7xx_ll_usb.c ****   USBx_DEVICE->DCFG |= DCFG_FRAME_INTERVAL_80;
 364:Drivers/STM32F7xx_HAL_Driver/Src/stm32f7xx_ll_usb.c **** 
 365:Drivers/STM32F7xx_HAL_Driver/Src/stm32f7xx_ll_usb.c ****   if (cfg.phy_itface == USB_OTG_ULPI_PHY)
 366:Drivers/STM32F7xx_HAL_Driver/Src/stm32f7xx_ll_usb.c ****   {
 367:Drivers/STM32F7xx_HAL_Driver/Src/stm32f7xx_ll_usb.c ****     if (cfg.speed == USBD_HS_SPEED)
 368:Drivers/STM32F7xx_HAL_Driver/Src/stm32f7xx_ll_usb.c ****     {
 369:Drivers/STM32F7xx_HAL_Driver/Src/stm32f7xx_ll_usb.c ****       /* Set Core speed to High speed mode */
 370:Drivers/STM32F7xx_HAL_Driver/Src/stm32f7xx_ll_usb.c ****       (void)USB_SetDevSpeed(USBx, USB_OTG_SPEED_HIGH);
 371:Drivers/STM32F7xx_HAL_Driver/Src/stm32f7xx_ll_usb.c ****     }
 372:Drivers/STM32F7xx_HAL_Driver/Src/stm32f7xx_ll_usb.c ****     else
 373:Drivers/STM32F7xx_HAL_Driver/Src/stm32f7xx_ll_usb.c ****     {
ARM GAS  /tmp/ccrvI8Gd.s 			page 8


 374:Drivers/STM32F7xx_HAL_Driver/Src/stm32f7xx_ll_usb.c ****       /* Set Core speed to Full speed mode */
 375:Drivers/STM32F7xx_HAL_Driver/Src/stm32f7xx_ll_usb.c ****       (void)USB_SetDevSpeed(USBx, USB_OTG_SPEED_HIGH_IN_FULL);
 376:Drivers/STM32F7xx_HAL_Driver/Src/stm32f7xx_ll_usb.c ****     }
 377:Drivers/STM32F7xx_HAL_Driver/Src/stm32f7xx_ll_usb.c ****   }
 378:Drivers/STM32F7xx_HAL_Driver/Src/stm32f7xx_ll_usb.c **** #if defined(STM32F722xx) || defined(STM32F723xx) || defined(STM32F730xx) || defined(STM32F732xx) ||
 379:Drivers/STM32F7xx_HAL_Driver/Src/stm32f7xx_ll_usb.c ****   else if (cfg.phy_itface == USB_OTG_HS_EMBEDDED_PHY)
 380:Drivers/STM32F7xx_HAL_Driver/Src/stm32f7xx_ll_usb.c ****   {
 381:Drivers/STM32F7xx_HAL_Driver/Src/stm32f7xx_ll_usb.c ****     if (cfg.speed == USBD_HS_SPEED)
 382:Drivers/STM32F7xx_HAL_Driver/Src/stm32f7xx_ll_usb.c ****     {
 383:Drivers/STM32F7xx_HAL_Driver/Src/stm32f7xx_ll_usb.c ****       /* Set Core speed to High speed mode */
 384:Drivers/STM32F7xx_HAL_Driver/Src/stm32f7xx_ll_usb.c ****       (void)USB_SetDevSpeed(USBx, USB_OTG_SPEED_HIGH);
 385:Drivers/STM32F7xx_HAL_Driver/Src/stm32f7xx_ll_usb.c ****     }
 386:Drivers/STM32F7xx_HAL_Driver/Src/stm32f7xx_ll_usb.c ****     else
 387:Drivers/STM32F7xx_HAL_Driver/Src/stm32f7xx_ll_usb.c ****     {
 388:Drivers/STM32F7xx_HAL_Driver/Src/stm32f7xx_ll_usb.c ****       /* Set Core speed to Full speed mode */
 389:Drivers/STM32F7xx_HAL_Driver/Src/stm32f7xx_ll_usb.c ****       (void)USB_SetDevSpeed(USBx, USB_OTG_SPEED_HIGH_IN_FULL);
 390:Drivers/STM32F7xx_HAL_Driver/Src/stm32f7xx_ll_usb.c ****     }
 391:Drivers/STM32F7xx_HAL_Driver/Src/stm32f7xx_ll_usb.c ****   }
 392:Drivers/STM32F7xx_HAL_Driver/Src/stm32f7xx_ll_usb.c **** #endif /* defined(STM32F722xx) || defined(STM32F723xx) || defined(STM32F730xx) || defined(STM32F732
 393:Drivers/STM32F7xx_HAL_Driver/Src/stm32f7xx_ll_usb.c ****   else
 394:Drivers/STM32F7xx_HAL_Driver/Src/stm32f7xx_ll_usb.c ****   {
 395:Drivers/STM32F7xx_HAL_Driver/Src/stm32f7xx_ll_usb.c ****     /* Set Core speed to Full speed mode */
 396:Drivers/STM32F7xx_HAL_Driver/Src/stm32f7xx_ll_usb.c ****     (void)USB_SetDevSpeed(USBx, USB_OTG_SPEED_FULL);
 397:Drivers/STM32F7xx_HAL_Driver/Src/stm32f7xx_ll_usb.c ****   }
 398:Drivers/STM32F7xx_HAL_Driver/Src/stm32f7xx_ll_usb.c **** 
 399:Drivers/STM32F7xx_HAL_Driver/Src/stm32f7xx_ll_usb.c ****   /* Flush the FIFOs */
 400:Drivers/STM32F7xx_HAL_Driver/Src/stm32f7xx_ll_usb.c ****   if (USB_FlushTxFifo(USBx, 0x10U) != HAL_OK) /* all Tx FIFOs */
 401:Drivers/STM32F7xx_HAL_Driver/Src/stm32f7xx_ll_usb.c ****   {
 402:Drivers/STM32F7xx_HAL_Driver/Src/stm32f7xx_ll_usb.c ****     ret = HAL_ERROR;
 403:Drivers/STM32F7xx_HAL_Driver/Src/stm32f7xx_ll_usb.c ****   }
 404:Drivers/STM32F7xx_HAL_Driver/Src/stm32f7xx_ll_usb.c **** 
 405:Drivers/STM32F7xx_HAL_Driver/Src/stm32f7xx_ll_usb.c ****   if (USB_FlushRxFifo(USBx) != HAL_OK)
 406:Drivers/STM32F7xx_HAL_Driver/Src/stm32f7xx_ll_usb.c ****   {
 407:Drivers/STM32F7xx_HAL_Driver/Src/stm32f7xx_ll_usb.c ****     ret = HAL_ERROR;
 408:Drivers/STM32F7xx_HAL_Driver/Src/stm32f7xx_ll_usb.c ****   }
 409:Drivers/STM32F7xx_HAL_Driver/Src/stm32f7xx_ll_usb.c **** 
 410:Drivers/STM32F7xx_HAL_Driver/Src/stm32f7xx_ll_usb.c ****   /* Clear all pending Device Interrupts */
 411:Drivers/STM32F7xx_HAL_Driver/Src/stm32f7xx_ll_usb.c ****   USBx_DEVICE->DIEPMSK = 0U;
 412:Drivers/STM32F7xx_HAL_Driver/Src/stm32f7xx_ll_usb.c ****   USBx_DEVICE->DOEPMSK = 0U;
 413:Drivers/STM32F7xx_HAL_Driver/Src/stm32f7xx_ll_usb.c ****   USBx_DEVICE->DAINTMSK = 0U;
 414:Drivers/STM32F7xx_HAL_Driver/Src/stm32f7xx_ll_usb.c **** 
 415:Drivers/STM32F7xx_HAL_Driver/Src/stm32f7xx_ll_usb.c ****   for (i = 0U; i < cfg.dev_endpoints; i++)
 416:Drivers/STM32F7xx_HAL_Driver/Src/stm32f7xx_ll_usb.c ****   {
 417:Drivers/STM32F7xx_HAL_Driver/Src/stm32f7xx_ll_usb.c ****     if ((USBx_INEP(i)->DIEPCTL & USB_OTG_DIEPCTL_EPENA) == USB_OTG_DIEPCTL_EPENA)
 418:Drivers/STM32F7xx_HAL_Driver/Src/stm32f7xx_ll_usb.c ****     {
 419:Drivers/STM32F7xx_HAL_Driver/Src/stm32f7xx_ll_usb.c ****       if (i == 0U)
 420:Drivers/STM32F7xx_HAL_Driver/Src/stm32f7xx_ll_usb.c ****       {
 421:Drivers/STM32F7xx_HAL_Driver/Src/stm32f7xx_ll_usb.c ****         USBx_INEP(i)->DIEPCTL = USB_OTG_DIEPCTL_SNAK;
 422:Drivers/STM32F7xx_HAL_Driver/Src/stm32f7xx_ll_usb.c ****       }
 423:Drivers/STM32F7xx_HAL_Driver/Src/stm32f7xx_ll_usb.c ****       else
 424:Drivers/STM32F7xx_HAL_Driver/Src/stm32f7xx_ll_usb.c ****       {
 425:Drivers/STM32F7xx_HAL_Driver/Src/stm32f7xx_ll_usb.c ****         USBx_INEP(i)->DIEPCTL = USB_OTG_DIEPCTL_EPDIS | USB_OTG_DIEPCTL_SNAK;
 426:Drivers/STM32F7xx_HAL_Driver/Src/stm32f7xx_ll_usb.c ****       }
 427:Drivers/STM32F7xx_HAL_Driver/Src/stm32f7xx_ll_usb.c ****     }
 428:Drivers/STM32F7xx_HAL_Driver/Src/stm32f7xx_ll_usb.c ****     else
 429:Drivers/STM32F7xx_HAL_Driver/Src/stm32f7xx_ll_usb.c ****     {
 430:Drivers/STM32F7xx_HAL_Driver/Src/stm32f7xx_ll_usb.c ****       USBx_INEP(i)->DIEPCTL = 0U;
ARM GAS  /tmp/ccrvI8Gd.s 			page 9


 431:Drivers/STM32F7xx_HAL_Driver/Src/stm32f7xx_ll_usb.c ****     }
 432:Drivers/STM32F7xx_HAL_Driver/Src/stm32f7xx_ll_usb.c **** 
 433:Drivers/STM32F7xx_HAL_Driver/Src/stm32f7xx_ll_usb.c ****     USBx_INEP(i)->DIEPTSIZ = 0U;
 434:Drivers/STM32F7xx_HAL_Driver/Src/stm32f7xx_ll_usb.c ****     USBx_INEP(i)->DIEPINT  = 0xFB7FU;
 435:Drivers/STM32F7xx_HAL_Driver/Src/stm32f7xx_ll_usb.c ****   }
 436:Drivers/STM32F7xx_HAL_Driver/Src/stm32f7xx_ll_usb.c **** 
 437:Drivers/STM32F7xx_HAL_Driver/Src/stm32f7xx_ll_usb.c ****   for (i = 0U; i < cfg.dev_endpoints; i++)
 438:Drivers/STM32F7xx_HAL_Driver/Src/stm32f7xx_ll_usb.c ****   {
 439:Drivers/STM32F7xx_HAL_Driver/Src/stm32f7xx_ll_usb.c ****     if ((USBx_OUTEP(i)->DOEPCTL & USB_OTG_DOEPCTL_EPENA) == USB_OTG_DOEPCTL_EPENA)
 440:Drivers/STM32F7xx_HAL_Driver/Src/stm32f7xx_ll_usb.c ****     {
 441:Drivers/STM32F7xx_HAL_Driver/Src/stm32f7xx_ll_usb.c ****       if (i == 0U)
 442:Drivers/STM32F7xx_HAL_Driver/Src/stm32f7xx_ll_usb.c ****       {
 443:Drivers/STM32F7xx_HAL_Driver/Src/stm32f7xx_ll_usb.c ****         USBx_OUTEP(i)->DOEPCTL = USB_OTG_DOEPCTL_SNAK;
 444:Drivers/STM32F7xx_HAL_Driver/Src/stm32f7xx_ll_usb.c ****       }
 445:Drivers/STM32F7xx_HAL_Driver/Src/stm32f7xx_ll_usb.c ****       else
 446:Drivers/STM32F7xx_HAL_Driver/Src/stm32f7xx_ll_usb.c ****       {
 447:Drivers/STM32F7xx_HAL_Driver/Src/stm32f7xx_ll_usb.c ****         USBx_OUTEP(i)->DOEPCTL = USB_OTG_DOEPCTL_EPDIS | USB_OTG_DOEPCTL_SNAK;
 448:Drivers/STM32F7xx_HAL_Driver/Src/stm32f7xx_ll_usb.c ****       }
 449:Drivers/STM32F7xx_HAL_Driver/Src/stm32f7xx_ll_usb.c ****     }
 450:Drivers/STM32F7xx_HAL_Driver/Src/stm32f7xx_ll_usb.c ****     else
 451:Drivers/STM32F7xx_HAL_Driver/Src/stm32f7xx_ll_usb.c ****     {
 452:Drivers/STM32F7xx_HAL_Driver/Src/stm32f7xx_ll_usb.c ****       USBx_OUTEP(i)->DOEPCTL = 0U;
 453:Drivers/STM32F7xx_HAL_Driver/Src/stm32f7xx_ll_usb.c ****     }
 454:Drivers/STM32F7xx_HAL_Driver/Src/stm32f7xx_ll_usb.c **** 
 455:Drivers/STM32F7xx_HAL_Driver/Src/stm32f7xx_ll_usb.c ****     USBx_OUTEP(i)->DOEPTSIZ = 0U;
 456:Drivers/STM32F7xx_HAL_Driver/Src/stm32f7xx_ll_usb.c ****     USBx_OUTEP(i)->DOEPINT  = 0xFB7FU;
 457:Drivers/STM32F7xx_HAL_Driver/Src/stm32f7xx_ll_usb.c ****   }
 458:Drivers/STM32F7xx_HAL_Driver/Src/stm32f7xx_ll_usb.c **** 
 459:Drivers/STM32F7xx_HAL_Driver/Src/stm32f7xx_ll_usb.c ****   USBx_DEVICE->DIEPMSK &= ~(USB_OTG_DIEPMSK_TXFURM);
 460:Drivers/STM32F7xx_HAL_Driver/Src/stm32f7xx_ll_usb.c **** 
 461:Drivers/STM32F7xx_HAL_Driver/Src/stm32f7xx_ll_usb.c ****   /* Disable all interrupts. */
 462:Drivers/STM32F7xx_HAL_Driver/Src/stm32f7xx_ll_usb.c ****   USBx->GINTMSK = 0U;
 463:Drivers/STM32F7xx_HAL_Driver/Src/stm32f7xx_ll_usb.c **** 
 464:Drivers/STM32F7xx_HAL_Driver/Src/stm32f7xx_ll_usb.c ****   /* Clear any pending interrupts */
 465:Drivers/STM32F7xx_HAL_Driver/Src/stm32f7xx_ll_usb.c ****   USBx->GINTSTS = 0xBFFFFFFFU;
 466:Drivers/STM32F7xx_HAL_Driver/Src/stm32f7xx_ll_usb.c **** 
 467:Drivers/STM32F7xx_HAL_Driver/Src/stm32f7xx_ll_usb.c ****   /* Enable the common interrupts */
 468:Drivers/STM32F7xx_HAL_Driver/Src/stm32f7xx_ll_usb.c ****   if (cfg.dma_enable == 0U)
 469:Drivers/STM32F7xx_HAL_Driver/Src/stm32f7xx_ll_usb.c ****   {
 470:Drivers/STM32F7xx_HAL_Driver/Src/stm32f7xx_ll_usb.c ****     USBx->GINTMSK |= USB_OTG_GINTMSK_RXFLVLM;
 471:Drivers/STM32F7xx_HAL_Driver/Src/stm32f7xx_ll_usb.c ****   }
 472:Drivers/STM32F7xx_HAL_Driver/Src/stm32f7xx_ll_usb.c **** 
 473:Drivers/STM32F7xx_HAL_Driver/Src/stm32f7xx_ll_usb.c ****   /* Enable interrupts matching to the Device mode ONLY */
 474:Drivers/STM32F7xx_HAL_Driver/Src/stm32f7xx_ll_usb.c ****   USBx->GINTMSK |= USB_OTG_GINTMSK_USBSUSPM | USB_OTG_GINTMSK_USBRST |
 475:Drivers/STM32F7xx_HAL_Driver/Src/stm32f7xx_ll_usb.c ****                    USB_OTG_GINTMSK_ENUMDNEM | USB_OTG_GINTMSK_IEPINT |
 476:Drivers/STM32F7xx_HAL_Driver/Src/stm32f7xx_ll_usb.c ****                    USB_OTG_GINTMSK_OEPINT   | USB_OTG_GINTMSK_IISOIXFRM |
 477:Drivers/STM32F7xx_HAL_Driver/Src/stm32f7xx_ll_usb.c ****                    USB_OTG_GINTMSK_PXFRM_IISOOXFRM | USB_OTG_GINTMSK_WUIM;
 478:Drivers/STM32F7xx_HAL_Driver/Src/stm32f7xx_ll_usb.c **** 
 479:Drivers/STM32F7xx_HAL_Driver/Src/stm32f7xx_ll_usb.c ****   if (cfg.Sof_enable != 0U)
 480:Drivers/STM32F7xx_HAL_Driver/Src/stm32f7xx_ll_usb.c ****   {
 481:Drivers/STM32F7xx_HAL_Driver/Src/stm32f7xx_ll_usb.c ****     USBx->GINTMSK |= USB_OTG_GINTMSK_SOFM;
 482:Drivers/STM32F7xx_HAL_Driver/Src/stm32f7xx_ll_usb.c ****   }
 483:Drivers/STM32F7xx_HAL_Driver/Src/stm32f7xx_ll_usb.c **** 
 484:Drivers/STM32F7xx_HAL_Driver/Src/stm32f7xx_ll_usb.c ****   if (cfg.vbus_sensing_enable == 1U)
 485:Drivers/STM32F7xx_HAL_Driver/Src/stm32f7xx_ll_usb.c ****   {
 486:Drivers/STM32F7xx_HAL_Driver/Src/stm32f7xx_ll_usb.c ****     USBx->GINTMSK |= (USB_OTG_GINTMSK_SRQIM | USB_OTG_GINTMSK_OTGINT);
 487:Drivers/STM32F7xx_HAL_Driver/Src/stm32f7xx_ll_usb.c ****   }
ARM GAS  /tmp/ccrvI8Gd.s 			page 10


 488:Drivers/STM32F7xx_HAL_Driver/Src/stm32f7xx_ll_usb.c **** 
 489:Drivers/STM32F7xx_HAL_Driver/Src/stm32f7xx_ll_usb.c ****   return ret;
 490:Drivers/STM32F7xx_HAL_Driver/Src/stm32f7xx_ll_usb.c **** }
 491:Drivers/STM32F7xx_HAL_Driver/Src/stm32f7xx_ll_usb.c **** 
 492:Drivers/STM32F7xx_HAL_Driver/Src/stm32f7xx_ll_usb.c **** /**
 493:Drivers/STM32F7xx_HAL_Driver/Src/stm32f7xx_ll_usb.c ****   * @brief  USB_FlushTxFifo Flush a Tx FIFO
 494:Drivers/STM32F7xx_HAL_Driver/Src/stm32f7xx_ll_usb.c ****   * @param  USBx  Selected device
 495:Drivers/STM32F7xx_HAL_Driver/Src/stm32f7xx_ll_usb.c ****   * @param  num  FIFO number
 496:Drivers/STM32F7xx_HAL_Driver/Src/stm32f7xx_ll_usb.c ****   *         This parameter can be a value from 1 to 15
 497:Drivers/STM32F7xx_HAL_Driver/Src/stm32f7xx_ll_usb.c ****             15 means Flush all Tx FIFOs
 498:Drivers/STM32F7xx_HAL_Driver/Src/stm32f7xx_ll_usb.c ****   * @retval HAL status
 499:Drivers/STM32F7xx_HAL_Driver/Src/stm32f7xx_ll_usb.c ****   */
 500:Drivers/STM32F7xx_HAL_Driver/Src/stm32f7xx_ll_usb.c **** HAL_StatusTypeDef USB_FlushTxFifo(USB_OTG_GlobalTypeDef *USBx, uint32_t num)
 501:Drivers/STM32F7xx_HAL_Driver/Src/stm32f7xx_ll_usb.c **** {
 502:Drivers/STM32F7xx_HAL_Driver/Src/stm32f7xx_ll_usb.c ****   __IO uint32_t count = 0U;
 503:Drivers/STM32F7xx_HAL_Driver/Src/stm32f7xx_ll_usb.c **** 
 504:Drivers/STM32F7xx_HAL_Driver/Src/stm32f7xx_ll_usb.c ****   /* Wait for AHB master IDLE state. */
 505:Drivers/STM32F7xx_HAL_Driver/Src/stm32f7xx_ll_usb.c ****   do
 506:Drivers/STM32F7xx_HAL_Driver/Src/stm32f7xx_ll_usb.c ****   {
 507:Drivers/STM32F7xx_HAL_Driver/Src/stm32f7xx_ll_usb.c ****     if (++count > 200000U)
 508:Drivers/STM32F7xx_HAL_Driver/Src/stm32f7xx_ll_usb.c ****     {
 509:Drivers/STM32F7xx_HAL_Driver/Src/stm32f7xx_ll_usb.c ****       return HAL_TIMEOUT;
 510:Drivers/STM32F7xx_HAL_Driver/Src/stm32f7xx_ll_usb.c ****     }
 511:Drivers/STM32F7xx_HAL_Driver/Src/stm32f7xx_ll_usb.c ****   } while ((USBx->GRSTCTL & USB_OTG_GRSTCTL_AHBIDL) == 0U);
 512:Drivers/STM32F7xx_HAL_Driver/Src/stm32f7xx_ll_usb.c **** 
 513:Drivers/STM32F7xx_HAL_Driver/Src/stm32f7xx_ll_usb.c ****   /* Flush TX Fifo */
 514:Drivers/STM32F7xx_HAL_Driver/Src/stm32f7xx_ll_usb.c ****   count = 0U;
 515:Drivers/STM32F7xx_HAL_Driver/Src/stm32f7xx_ll_usb.c ****   USBx->GRSTCTL = (USB_OTG_GRSTCTL_TXFFLSH | (num << 6));
 516:Drivers/STM32F7xx_HAL_Driver/Src/stm32f7xx_ll_usb.c **** 
 517:Drivers/STM32F7xx_HAL_Driver/Src/stm32f7xx_ll_usb.c ****   do
 518:Drivers/STM32F7xx_HAL_Driver/Src/stm32f7xx_ll_usb.c ****   {
 519:Drivers/STM32F7xx_HAL_Driver/Src/stm32f7xx_ll_usb.c ****     if (++count > 200000U)
 520:Drivers/STM32F7xx_HAL_Driver/Src/stm32f7xx_ll_usb.c ****     {
 521:Drivers/STM32F7xx_HAL_Driver/Src/stm32f7xx_ll_usb.c ****       return HAL_TIMEOUT;
 522:Drivers/STM32F7xx_HAL_Driver/Src/stm32f7xx_ll_usb.c ****     }
 523:Drivers/STM32F7xx_HAL_Driver/Src/stm32f7xx_ll_usb.c ****   } while ((USBx->GRSTCTL & USB_OTG_GRSTCTL_TXFFLSH) == USB_OTG_GRSTCTL_TXFFLSH);
 524:Drivers/STM32F7xx_HAL_Driver/Src/stm32f7xx_ll_usb.c **** 
 525:Drivers/STM32F7xx_HAL_Driver/Src/stm32f7xx_ll_usb.c ****   return HAL_OK;
 526:Drivers/STM32F7xx_HAL_Driver/Src/stm32f7xx_ll_usb.c **** }
 527:Drivers/STM32F7xx_HAL_Driver/Src/stm32f7xx_ll_usb.c **** 
 528:Drivers/STM32F7xx_HAL_Driver/Src/stm32f7xx_ll_usb.c **** /**
 529:Drivers/STM32F7xx_HAL_Driver/Src/stm32f7xx_ll_usb.c ****   * @brief  USB_FlushRxFifo  Flush Rx FIFO
 530:Drivers/STM32F7xx_HAL_Driver/Src/stm32f7xx_ll_usb.c ****   * @param  USBx  Selected device
 531:Drivers/STM32F7xx_HAL_Driver/Src/stm32f7xx_ll_usb.c ****   * @retval HAL status
 532:Drivers/STM32F7xx_HAL_Driver/Src/stm32f7xx_ll_usb.c ****   */
 533:Drivers/STM32F7xx_HAL_Driver/Src/stm32f7xx_ll_usb.c **** HAL_StatusTypeDef USB_FlushRxFifo(USB_OTG_GlobalTypeDef *USBx)
 534:Drivers/STM32F7xx_HAL_Driver/Src/stm32f7xx_ll_usb.c **** {
 535:Drivers/STM32F7xx_HAL_Driver/Src/stm32f7xx_ll_usb.c ****   __IO uint32_t count = 0U;
 536:Drivers/STM32F7xx_HAL_Driver/Src/stm32f7xx_ll_usb.c **** 
 537:Drivers/STM32F7xx_HAL_Driver/Src/stm32f7xx_ll_usb.c ****   /* Wait for AHB master IDLE state. */
 538:Drivers/STM32F7xx_HAL_Driver/Src/stm32f7xx_ll_usb.c ****   do
 539:Drivers/STM32F7xx_HAL_Driver/Src/stm32f7xx_ll_usb.c ****   {
 540:Drivers/STM32F7xx_HAL_Driver/Src/stm32f7xx_ll_usb.c ****     if (++count > 200000U)
 541:Drivers/STM32F7xx_HAL_Driver/Src/stm32f7xx_ll_usb.c ****     {
 542:Drivers/STM32F7xx_HAL_Driver/Src/stm32f7xx_ll_usb.c ****       return HAL_TIMEOUT;
 543:Drivers/STM32F7xx_HAL_Driver/Src/stm32f7xx_ll_usb.c ****     }
 544:Drivers/STM32F7xx_HAL_Driver/Src/stm32f7xx_ll_usb.c ****   } while ((USBx->GRSTCTL & USB_OTG_GRSTCTL_AHBIDL) == 0U);
ARM GAS  /tmp/ccrvI8Gd.s 			page 11


 545:Drivers/STM32F7xx_HAL_Driver/Src/stm32f7xx_ll_usb.c **** 
 546:Drivers/STM32F7xx_HAL_Driver/Src/stm32f7xx_ll_usb.c ****   /* Flush RX Fifo */
 547:Drivers/STM32F7xx_HAL_Driver/Src/stm32f7xx_ll_usb.c ****   count = 0U;
 548:Drivers/STM32F7xx_HAL_Driver/Src/stm32f7xx_ll_usb.c ****   USBx->GRSTCTL = USB_OTG_GRSTCTL_RXFFLSH;
 549:Drivers/STM32F7xx_HAL_Driver/Src/stm32f7xx_ll_usb.c **** 
 550:Drivers/STM32F7xx_HAL_Driver/Src/stm32f7xx_ll_usb.c ****   do
 551:Drivers/STM32F7xx_HAL_Driver/Src/stm32f7xx_ll_usb.c ****   {
 552:Drivers/STM32F7xx_HAL_Driver/Src/stm32f7xx_ll_usb.c ****     if (++count > 200000U)
 553:Drivers/STM32F7xx_HAL_Driver/Src/stm32f7xx_ll_usb.c ****     {
 554:Drivers/STM32F7xx_HAL_Driver/Src/stm32f7xx_ll_usb.c ****       return HAL_TIMEOUT;
 555:Drivers/STM32F7xx_HAL_Driver/Src/stm32f7xx_ll_usb.c ****     }
 556:Drivers/STM32F7xx_HAL_Driver/Src/stm32f7xx_ll_usb.c ****   } while ((USBx->GRSTCTL & USB_OTG_GRSTCTL_RXFFLSH) == USB_OTG_GRSTCTL_RXFFLSH);
 557:Drivers/STM32F7xx_HAL_Driver/Src/stm32f7xx_ll_usb.c **** 
 558:Drivers/STM32F7xx_HAL_Driver/Src/stm32f7xx_ll_usb.c ****   return HAL_OK;
 559:Drivers/STM32F7xx_HAL_Driver/Src/stm32f7xx_ll_usb.c **** }
 560:Drivers/STM32F7xx_HAL_Driver/Src/stm32f7xx_ll_usb.c **** 
 561:Drivers/STM32F7xx_HAL_Driver/Src/stm32f7xx_ll_usb.c **** /**
 562:Drivers/STM32F7xx_HAL_Driver/Src/stm32f7xx_ll_usb.c ****   * @brief  USB_SetDevSpeed  Initializes the DevSpd field of DCFG register
 563:Drivers/STM32F7xx_HAL_Driver/Src/stm32f7xx_ll_usb.c ****   *         depending the PHY type and the enumeration speed of the device.
 564:Drivers/STM32F7xx_HAL_Driver/Src/stm32f7xx_ll_usb.c ****   * @param  USBx  Selected device
 565:Drivers/STM32F7xx_HAL_Driver/Src/stm32f7xx_ll_usb.c ****   * @param  speed  device speed
 566:Drivers/STM32F7xx_HAL_Driver/Src/stm32f7xx_ll_usb.c ****   *          This parameter can be one of these values:
 567:Drivers/STM32F7xx_HAL_Driver/Src/stm32f7xx_ll_usb.c ****   *            @arg USB_OTG_SPEED_HIGH: High speed mode
 568:Drivers/STM32F7xx_HAL_Driver/Src/stm32f7xx_ll_usb.c ****   *            @arg USB_OTG_SPEED_HIGH_IN_FULL: High speed core in Full Speed mode
 569:Drivers/STM32F7xx_HAL_Driver/Src/stm32f7xx_ll_usb.c ****   *            @arg USB_OTG_SPEED_FULL: Full speed mode
 570:Drivers/STM32F7xx_HAL_Driver/Src/stm32f7xx_ll_usb.c ****   * @retval  Hal status
 571:Drivers/STM32F7xx_HAL_Driver/Src/stm32f7xx_ll_usb.c ****   */
 572:Drivers/STM32F7xx_HAL_Driver/Src/stm32f7xx_ll_usb.c **** HAL_StatusTypeDef USB_SetDevSpeed(USB_OTG_GlobalTypeDef *USBx, uint8_t speed)
 573:Drivers/STM32F7xx_HAL_Driver/Src/stm32f7xx_ll_usb.c **** {
 574:Drivers/STM32F7xx_HAL_Driver/Src/stm32f7xx_ll_usb.c ****   uint32_t USBx_BASE = (uint32_t)USBx;
 575:Drivers/STM32F7xx_HAL_Driver/Src/stm32f7xx_ll_usb.c **** 
 576:Drivers/STM32F7xx_HAL_Driver/Src/stm32f7xx_ll_usb.c ****   USBx_DEVICE->DCFG |= speed;
 577:Drivers/STM32F7xx_HAL_Driver/Src/stm32f7xx_ll_usb.c ****   return HAL_OK;
 578:Drivers/STM32F7xx_HAL_Driver/Src/stm32f7xx_ll_usb.c **** }
 579:Drivers/STM32F7xx_HAL_Driver/Src/stm32f7xx_ll_usb.c **** 
 580:Drivers/STM32F7xx_HAL_Driver/Src/stm32f7xx_ll_usb.c **** /**
 581:Drivers/STM32F7xx_HAL_Driver/Src/stm32f7xx_ll_usb.c ****   * @brief  USB_GetDevSpeed  Return the Dev Speed
 582:Drivers/STM32F7xx_HAL_Driver/Src/stm32f7xx_ll_usb.c ****   * @param  USBx  Selected device
 583:Drivers/STM32F7xx_HAL_Driver/Src/stm32f7xx_ll_usb.c ****   * @retval speed  device speed
 584:Drivers/STM32F7xx_HAL_Driver/Src/stm32f7xx_ll_usb.c ****   *          This parameter can be one of these values:
 585:Drivers/STM32F7xx_HAL_Driver/Src/stm32f7xx_ll_usb.c ****   *            @arg USBD_HS_SPEED: High speed mode
 586:Drivers/STM32F7xx_HAL_Driver/Src/stm32f7xx_ll_usb.c ****   *            @arg USBD_FS_SPEED: Full speed mode
 587:Drivers/STM32F7xx_HAL_Driver/Src/stm32f7xx_ll_usb.c ****   */
 588:Drivers/STM32F7xx_HAL_Driver/Src/stm32f7xx_ll_usb.c **** uint8_t USB_GetDevSpeed(USB_OTG_GlobalTypeDef *USBx)
 589:Drivers/STM32F7xx_HAL_Driver/Src/stm32f7xx_ll_usb.c **** {
 590:Drivers/STM32F7xx_HAL_Driver/Src/stm32f7xx_ll_usb.c ****   uint32_t USBx_BASE = (uint32_t)USBx;
 591:Drivers/STM32F7xx_HAL_Driver/Src/stm32f7xx_ll_usb.c ****   uint8_t speed;
 592:Drivers/STM32F7xx_HAL_Driver/Src/stm32f7xx_ll_usb.c ****   uint32_t DevEnumSpeed = USBx_DEVICE->DSTS & USB_OTG_DSTS_ENUMSPD;
 593:Drivers/STM32F7xx_HAL_Driver/Src/stm32f7xx_ll_usb.c **** 
 594:Drivers/STM32F7xx_HAL_Driver/Src/stm32f7xx_ll_usb.c ****   if (DevEnumSpeed == DSTS_ENUMSPD_HS_PHY_30MHZ_OR_60MHZ)
 595:Drivers/STM32F7xx_HAL_Driver/Src/stm32f7xx_ll_usb.c ****   {
 596:Drivers/STM32F7xx_HAL_Driver/Src/stm32f7xx_ll_usb.c ****     speed = USBD_HS_SPEED;
 597:Drivers/STM32F7xx_HAL_Driver/Src/stm32f7xx_ll_usb.c ****   }
 598:Drivers/STM32F7xx_HAL_Driver/Src/stm32f7xx_ll_usb.c ****   else if ((DevEnumSpeed == DSTS_ENUMSPD_FS_PHY_30MHZ_OR_60MHZ) ||
 599:Drivers/STM32F7xx_HAL_Driver/Src/stm32f7xx_ll_usb.c ****            (DevEnumSpeed == DSTS_ENUMSPD_FS_PHY_48MHZ))
 600:Drivers/STM32F7xx_HAL_Driver/Src/stm32f7xx_ll_usb.c ****   {
 601:Drivers/STM32F7xx_HAL_Driver/Src/stm32f7xx_ll_usb.c ****     speed = USBD_FS_SPEED;
ARM GAS  /tmp/ccrvI8Gd.s 			page 12


 602:Drivers/STM32F7xx_HAL_Driver/Src/stm32f7xx_ll_usb.c ****   }
 603:Drivers/STM32F7xx_HAL_Driver/Src/stm32f7xx_ll_usb.c ****   else
 604:Drivers/STM32F7xx_HAL_Driver/Src/stm32f7xx_ll_usb.c ****   {
 605:Drivers/STM32F7xx_HAL_Driver/Src/stm32f7xx_ll_usb.c ****     speed = 0xFU;
 606:Drivers/STM32F7xx_HAL_Driver/Src/stm32f7xx_ll_usb.c ****   }
 607:Drivers/STM32F7xx_HAL_Driver/Src/stm32f7xx_ll_usb.c **** 
 608:Drivers/STM32F7xx_HAL_Driver/Src/stm32f7xx_ll_usb.c ****   return speed;
 609:Drivers/STM32F7xx_HAL_Driver/Src/stm32f7xx_ll_usb.c **** }
 610:Drivers/STM32F7xx_HAL_Driver/Src/stm32f7xx_ll_usb.c **** 
 611:Drivers/STM32F7xx_HAL_Driver/Src/stm32f7xx_ll_usb.c **** /**
 612:Drivers/STM32F7xx_HAL_Driver/Src/stm32f7xx_ll_usb.c ****   * @brief  Activate and configure an endpoint
 613:Drivers/STM32F7xx_HAL_Driver/Src/stm32f7xx_ll_usb.c ****   * @param  USBx  Selected device
 614:Drivers/STM32F7xx_HAL_Driver/Src/stm32f7xx_ll_usb.c ****   * @param  ep pointer to endpoint structure
 615:Drivers/STM32F7xx_HAL_Driver/Src/stm32f7xx_ll_usb.c ****   * @retval HAL status
 616:Drivers/STM32F7xx_HAL_Driver/Src/stm32f7xx_ll_usb.c ****   */
 617:Drivers/STM32F7xx_HAL_Driver/Src/stm32f7xx_ll_usb.c **** HAL_StatusTypeDef USB_ActivateEndpoint(USB_OTG_GlobalTypeDef *USBx, USB_OTG_EPTypeDef *ep)
 618:Drivers/STM32F7xx_HAL_Driver/Src/stm32f7xx_ll_usb.c **** {
 619:Drivers/STM32F7xx_HAL_Driver/Src/stm32f7xx_ll_usb.c ****   uint32_t USBx_BASE = (uint32_t)USBx;
 620:Drivers/STM32F7xx_HAL_Driver/Src/stm32f7xx_ll_usb.c ****   uint32_t epnum = (uint32_t)ep->num;
 621:Drivers/STM32F7xx_HAL_Driver/Src/stm32f7xx_ll_usb.c **** 
 622:Drivers/STM32F7xx_HAL_Driver/Src/stm32f7xx_ll_usb.c ****   if (ep->is_in == 1U)
 623:Drivers/STM32F7xx_HAL_Driver/Src/stm32f7xx_ll_usb.c ****   {
 624:Drivers/STM32F7xx_HAL_Driver/Src/stm32f7xx_ll_usb.c ****     USBx_DEVICE->DAINTMSK |= USB_OTG_DAINTMSK_IEPM & (uint32_t)(1UL << (ep->num & EP_ADDR_MSK));
 625:Drivers/STM32F7xx_HAL_Driver/Src/stm32f7xx_ll_usb.c **** 
 626:Drivers/STM32F7xx_HAL_Driver/Src/stm32f7xx_ll_usb.c ****     if ((USBx_INEP(epnum)->DIEPCTL & USB_OTG_DIEPCTL_USBAEP) == 0U)
 627:Drivers/STM32F7xx_HAL_Driver/Src/stm32f7xx_ll_usb.c ****     {
 628:Drivers/STM32F7xx_HAL_Driver/Src/stm32f7xx_ll_usb.c ****       USBx_INEP(epnum)->DIEPCTL |= (ep->maxpacket & USB_OTG_DIEPCTL_MPSIZ) |
 629:Drivers/STM32F7xx_HAL_Driver/Src/stm32f7xx_ll_usb.c ****                                    ((uint32_t)ep->type << 18) | (epnum << 22) |
 630:Drivers/STM32F7xx_HAL_Driver/Src/stm32f7xx_ll_usb.c ****                                    USB_OTG_DIEPCTL_SD0PID_SEVNFRM |
 631:Drivers/STM32F7xx_HAL_Driver/Src/stm32f7xx_ll_usb.c ****                                    USB_OTG_DIEPCTL_USBAEP;
 632:Drivers/STM32F7xx_HAL_Driver/Src/stm32f7xx_ll_usb.c ****     }
 633:Drivers/STM32F7xx_HAL_Driver/Src/stm32f7xx_ll_usb.c ****   }
 634:Drivers/STM32F7xx_HAL_Driver/Src/stm32f7xx_ll_usb.c ****   else
 635:Drivers/STM32F7xx_HAL_Driver/Src/stm32f7xx_ll_usb.c ****   {
 636:Drivers/STM32F7xx_HAL_Driver/Src/stm32f7xx_ll_usb.c ****     USBx_DEVICE->DAINTMSK |= USB_OTG_DAINTMSK_OEPM & ((uint32_t)(1UL << (ep->num & EP_ADDR_MSK)) <<
 637:Drivers/STM32F7xx_HAL_Driver/Src/stm32f7xx_ll_usb.c **** 
 638:Drivers/STM32F7xx_HAL_Driver/Src/stm32f7xx_ll_usb.c ****     if (((USBx_OUTEP(epnum)->DOEPCTL) & USB_OTG_DOEPCTL_USBAEP) == 0U)
 639:Drivers/STM32F7xx_HAL_Driver/Src/stm32f7xx_ll_usb.c ****     {
 640:Drivers/STM32F7xx_HAL_Driver/Src/stm32f7xx_ll_usb.c ****       USBx_OUTEP(epnum)->DOEPCTL |= (ep->maxpacket & USB_OTG_DOEPCTL_MPSIZ) |
 641:Drivers/STM32F7xx_HAL_Driver/Src/stm32f7xx_ll_usb.c ****                                     ((uint32_t)ep->type << 18) |
 642:Drivers/STM32F7xx_HAL_Driver/Src/stm32f7xx_ll_usb.c ****                                     USB_OTG_DIEPCTL_SD0PID_SEVNFRM |
 643:Drivers/STM32F7xx_HAL_Driver/Src/stm32f7xx_ll_usb.c ****                                     USB_OTG_DOEPCTL_USBAEP;
 644:Drivers/STM32F7xx_HAL_Driver/Src/stm32f7xx_ll_usb.c ****     }
 645:Drivers/STM32F7xx_HAL_Driver/Src/stm32f7xx_ll_usb.c ****   }
 646:Drivers/STM32F7xx_HAL_Driver/Src/stm32f7xx_ll_usb.c ****   return HAL_OK;
 647:Drivers/STM32F7xx_HAL_Driver/Src/stm32f7xx_ll_usb.c **** }
 648:Drivers/STM32F7xx_HAL_Driver/Src/stm32f7xx_ll_usb.c **** 
 649:Drivers/STM32F7xx_HAL_Driver/Src/stm32f7xx_ll_usb.c **** /**
 650:Drivers/STM32F7xx_HAL_Driver/Src/stm32f7xx_ll_usb.c ****   * @brief  Activate and configure a dedicated endpoint
 651:Drivers/STM32F7xx_HAL_Driver/Src/stm32f7xx_ll_usb.c ****   * @param  USBx  Selected device
 652:Drivers/STM32F7xx_HAL_Driver/Src/stm32f7xx_ll_usb.c ****   * @param  ep pointer to endpoint structure
 653:Drivers/STM32F7xx_HAL_Driver/Src/stm32f7xx_ll_usb.c ****   * @retval HAL status
 654:Drivers/STM32F7xx_HAL_Driver/Src/stm32f7xx_ll_usb.c ****   */
 655:Drivers/STM32F7xx_HAL_Driver/Src/stm32f7xx_ll_usb.c **** HAL_StatusTypeDef USB_ActivateDedicatedEndpoint(USB_OTG_GlobalTypeDef *USBx, USB_OTG_EPTypeDef *ep)
 656:Drivers/STM32F7xx_HAL_Driver/Src/stm32f7xx_ll_usb.c **** {
 657:Drivers/STM32F7xx_HAL_Driver/Src/stm32f7xx_ll_usb.c ****   uint32_t USBx_BASE = (uint32_t)USBx;
 658:Drivers/STM32F7xx_HAL_Driver/Src/stm32f7xx_ll_usb.c ****   uint32_t epnum = (uint32_t)ep->num;
ARM GAS  /tmp/ccrvI8Gd.s 			page 13


 659:Drivers/STM32F7xx_HAL_Driver/Src/stm32f7xx_ll_usb.c **** 
 660:Drivers/STM32F7xx_HAL_Driver/Src/stm32f7xx_ll_usb.c ****   /* Read DEPCTLn register */
 661:Drivers/STM32F7xx_HAL_Driver/Src/stm32f7xx_ll_usb.c ****   if (ep->is_in == 1U)
 662:Drivers/STM32F7xx_HAL_Driver/Src/stm32f7xx_ll_usb.c ****   {
 663:Drivers/STM32F7xx_HAL_Driver/Src/stm32f7xx_ll_usb.c ****     if (((USBx_INEP(epnum)->DIEPCTL) & USB_OTG_DIEPCTL_USBAEP) == 0U)
 664:Drivers/STM32F7xx_HAL_Driver/Src/stm32f7xx_ll_usb.c ****     {
 665:Drivers/STM32F7xx_HAL_Driver/Src/stm32f7xx_ll_usb.c ****       USBx_INEP(epnum)->DIEPCTL |= (ep->maxpacket & USB_OTG_DIEPCTL_MPSIZ) |
 666:Drivers/STM32F7xx_HAL_Driver/Src/stm32f7xx_ll_usb.c ****                                    ((uint32_t)ep->type << 18) | (epnum << 22) |
 667:Drivers/STM32F7xx_HAL_Driver/Src/stm32f7xx_ll_usb.c ****                                    USB_OTG_DIEPCTL_SD0PID_SEVNFRM |
 668:Drivers/STM32F7xx_HAL_Driver/Src/stm32f7xx_ll_usb.c ****                                    USB_OTG_DIEPCTL_USBAEP;
 669:Drivers/STM32F7xx_HAL_Driver/Src/stm32f7xx_ll_usb.c ****     }
 670:Drivers/STM32F7xx_HAL_Driver/Src/stm32f7xx_ll_usb.c **** 
 671:Drivers/STM32F7xx_HAL_Driver/Src/stm32f7xx_ll_usb.c ****     USBx_DEVICE->DEACHMSK |= USB_OTG_DAINTMSK_IEPM & (uint32_t)(1UL << (ep->num & EP_ADDR_MSK));
 672:Drivers/STM32F7xx_HAL_Driver/Src/stm32f7xx_ll_usb.c ****   }
 673:Drivers/STM32F7xx_HAL_Driver/Src/stm32f7xx_ll_usb.c ****   else
 674:Drivers/STM32F7xx_HAL_Driver/Src/stm32f7xx_ll_usb.c ****   {
 675:Drivers/STM32F7xx_HAL_Driver/Src/stm32f7xx_ll_usb.c ****     if (((USBx_OUTEP(epnum)->DOEPCTL) & USB_OTG_DOEPCTL_USBAEP) == 0U)
 676:Drivers/STM32F7xx_HAL_Driver/Src/stm32f7xx_ll_usb.c ****     {
 677:Drivers/STM32F7xx_HAL_Driver/Src/stm32f7xx_ll_usb.c ****       USBx_OUTEP(epnum)->DOEPCTL |= (ep->maxpacket & USB_OTG_DOEPCTL_MPSIZ) |
 678:Drivers/STM32F7xx_HAL_Driver/Src/stm32f7xx_ll_usb.c ****                                     ((uint32_t)ep->type << 18) | (epnum << 22) |
 679:Drivers/STM32F7xx_HAL_Driver/Src/stm32f7xx_ll_usb.c ****                                     USB_OTG_DOEPCTL_USBAEP;
 680:Drivers/STM32F7xx_HAL_Driver/Src/stm32f7xx_ll_usb.c ****     }
 681:Drivers/STM32F7xx_HAL_Driver/Src/stm32f7xx_ll_usb.c **** 
 682:Drivers/STM32F7xx_HAL_Driver/Src/stm32f7xx_ll_usb.c ****     USBx_DEVICE->DEACHMSK |= USB_OTG_DAINTMSK_OEPM & ((uint32_t)(1UL << (ep->num & EP_ADDR_MSK)) <<
 683:Drivers/STM32F7xx_HAL_Driver/Src/stm32f7xx_ll_usb.c ****   }
 684:Drivers/STM32F7xx_HAL_Driver/Src/stm32f7xx_ll_usb.c **** 
 685:Drivers/STM32F7xx_HAL_Driver/Src/stm32f7xx_ll_usb.c ****   return HAL_OK;
 686:Drivers/STM32F7xx_HAL_Driver/Src/stm32f7xx_ll_usb.c **** }
 687:Drivers/STM32F7xx_HAL_Driver/Src/stm32f7xx_ll_usb.c **** 
 688:Drivers/STM32F7xx_HAL_Driver/Src/stm32f7xx_ll_usb.c **** /**
 689:Drivers/STM32F7xx_HAL_Driver/Src/stm32f7xx_ll_usb.c ****   * @brief  De-activate and de-initialize an endpoint
 690:Drivers/STM32F7xx_HAL_Driver/Src/stm32f7xx_ll_usb.c ****   * @param  USBx  Selected device
 691:Drivers/STM32F7xx_HAL_Driver/Src/stm32f7xx_ll_usb.c ****   * @param  ep pointer to endpoint structure
 692:Drivers/STM32F7xx_HAL_Driver/Src/stm32f7xx_ll_usb.c ****   * @retval HAL status
 693:Drivers/STM32F7xx_HAL_Driver/Src/stm32f7xx_ll_usb.c ****   */
 694:Drivers/STM32F7xx_HAL_Driver/Src/stm32f7xx_ll_usb.c **** HAL_StatusTypeDef USB_DeactivateEndpoint(USB_OTG_GlobalTypeDef *USBx, USB_OTG_EPTypeDef *ep)
 695:Drivers/STM32F7xx_HAL_Driver/Src/stm32f7xx_ll_usb.c **** {
 696:Drivers/STM32F7xx_HAL_Driver/Src/stm32f7xx_ll_usb.c ****   uint32_t USBx_BASE = (uint32_t)USBx;
 697:Drivers/STM32F7xx_HAL_Driver/Src/stm32f7xx_ll_usb.c ****   uint32_t epnum = (uint32_t)ep->num;
 698:Drivers/STM32F7xx_HAL_Driver/Src/stm32f7xx_ll_usb.c **** 
 699:Drivers/STM32F7xx_HAL_Driver/Src/stm32f7xx_ll_usb.c ****   /* Read DEPCTLn register */
 700:Drivers/STM32F7xx_HAL_Driver/Src/stm32f7xx_ll_usb.c ****   if (ep->is_in == 1U)
 701:Drivers/STM32F7xx_HAL_Driver/Src/stm32f7xx_ll_usb.c ****   {
 702:Drivers/STM32F7xx_HAL_Driver/Src/stm32f7xx_ll_usb.c ****     if ((USBx_INEP(epnum)->DIEPCTL & USB_OTG_DIEPCTL_EPENA) == USB_OTG_DIEPCTL_EPENA)
 703:Drivers/STM32F7xx_HAL_Driver/Src/stm32f7xx_ll_usb.c ****     {
 704:Drivers/STM32F7xx_HAL_Driver/Src/stm32f7xx_ll_usb.c ****       USBx_INEP(epnum)->DIEPCTL |= USB_OTG_DIEPCTL_SNAK;
 705:Drivers/STM32F7xx_HAL_Driver/Src/stm32f7xx_ll_usb.c ****       USBx_INEP(epnum)->DIEPCTL |= USB_OTG_DIEPCTL_EPDIS;
 706:Drivers/STM32F7xx_HAL_Driver/Src/stm32f7xx_ll_usb.c ****     }
 707:Drivers/STM32F7xx_HAL_Driver/Src/stm32f7xx_ll_usb.c **** 
 708:Drivers/STM32F7xx_HAL_Driver/Src/stm32f7xx_ll_usb.c ****     USBx_DEVICE->DEACHMSK &= ~(USB_OTG_DAINTMSK_IEPM & (uint32_t)(1UL << (ep->num & EP_ADDR_MSK)));
 709:Drivers/STM32F7xx_HAL_Driver/Src/stm32f7xx_ll_usb.c ****     USBx_DEVICE->DAINTMSK &= ~(USB_OTG_DAINTMSK_IEPM & (uint32_t)(1UL << (ep->num & EP_ADDR_MSK)));
 710:Drivers/STM32F7xx_HAL_Driver/Src/stm32f7xx_ll_usb.c ****     USBx_INEP(epnum)->DIEPCTL &= ~(USB_OTG_DIEPCTL_USBAEP |
 711:Drivers/STM32F7xx_HAL_Driver/Src/stm32f7xx_ll_usb.c ****                                    USB_OTG_DIEPCTL_MPSIZ |
 712:Drivers/STM32F7xx_HAL_Driver/Src/stm32f7xx_ll_usb.c ****                                    USB_OTG_DIEPCTL_TXFNUM |
 713:Drivers/STM32F7xx_HAL_Driver/Src/stm32f7xx_ll_usb.c ****                                    USB_OTG_DIEPCTL_SD0PID_SEVNFRM |
 714:Drivers/STM32F7xx_HAL_Driver/Src/stm32f7xx_ll_usb.c ****                                    USB_OTG_DIEPCTL_EPTYP);
 715:Drivers/STM32F7xx_HAL_Driver/Src/stm32f7xx_ll_usb.c ****   }
ARM GAS  /tmp/ccrvI8Gd.s 			page 14


 716:Drivers/STM32F7xx_HAL_Driver/Src/stm32f7xx_ll_usb.c ****   else
 717:Drivers/STM32F7xx_HAL_Driver/Src/stm32f7xx_ll_usb.c ****   {
 718:Drivers/STM32F7xx_HAL_Driver/Src/stm32f7xx_ll_usb.c ****     if ((USBx_OUTEP(epnum)->DOEPCTL & USB_OTG_DOEPCTL_EPENA) == USB_OTG_DOEPCTL_EPENA)
 719:Drivers/STM32F7xx_HAL_Driver/Src/stm32f7xx_ll_usb.c ****     {
 720:Drivers/STM32F7xx_HAL_Driver/Src/stm32f7xx_ll_usb.c ****       USBx_OUTEP(epnum)->DOEPCTL |= USB_OTG_DOEPCTL_SNAK;
 721:Drivers/STM32F7xx_HAL_Driver/Src/stm32f7xx_ll_usb.c ****       USBx_OUTEP(epnum)->DOEPCTL |= USB_OTG_DOEPCTL_EPDIS;
 722:Drivers/STM32F7xx_HAL_Driver/Src/stm32f7xx_ll_usb.c ****     }
 723:Drivers/STM32F7xx_HAL_Driver/Src/stm32f7xx_ll_usb.c **** 
 724:Drivers/STM32F7xx_HAL_Driver/Src/stm32f7xx_ll_usb.c ****     USBx_DEVICE->DEACHMSK &= ~(USB_OTG_DAINTMSK_OEPM & ((uint32_t)(1UL << (ep->num & EP_ADDR_MSK)) 
 725:Drivers/STM32F7xx_HAL_Driver/Src/stm32f7xx_ll_usb.c ****     USBx_DEVICE->DAINTMSK &= ~(USB_OTG_DAINTMSK_OEPM & ((uint32_t)(1UL << (ep->num & EP_ADDR_MSK)) 
 726:Drivers/STM32F7xx_HAL_Driver/Src/stm32f7xx_ll_usb.c ****     USBx_OUTEP(epnum)->DOEPCTL &= ~(USB_OTG_DOEPCTL_USBAEP |
 727:Drivers/STM32F7xx_HAL_Driver/Src/stm32f7xx_ll_usb.c ****                                     USB_OTG_DOEPCTL_MPSIZ |
 728:Drivers/STM32F7xx_HAL_Driver/Src/stm32f7xx_ll_usb.c ****                                     USB_OTG_DOEPCTL_SD0PID_SEVNFRM |
 729:Drivers/STM32F7xx_HAL_Driver/Src/stm32f7xx_ll_usb.c ****                                     USB_OTG_DOEPCTL_EPTYP);
 730:Drivers/STM32F7xx_HAL_Driver/Src/stm32f7xx_ll_usb.c ****   }
 731:Drivers/STM32F7xx_HAL_Driver/Src/stm32f7xx_ll_usb.c **** 
 732:Drivers/STM32F7xx_HAL_Driver/Src/stm32f7xx_ll_usb.c ****   return HAL_OK;
 733:Drivers/STM32F7xx_HAL_Driver/Src/stm32f7xx_ll_usb.c **** }
 734:Drivers/STM32F7xx_HAL_Driver/Src/stm32f7xx_ll_usb.c **** 
 735:Drivers/STM32F7xx_HAL_Driver/Src/stm32f7xx_ll_usb.c **** /**
 736:Drivers/STM32F7xx_HAL_Driver/Src/stm32f7xx_ll_usb.c ****   * @brief  De-activate and de-initialize a dedicated endpoint
 737:Drivers/STM32F7xx_HAL_Driver/Src/stm32f7xx_ll_usb.c ****   * @param  USBx  Selected device
 738:Drivers/STM32F7xx_HAL_Driver/Src/stm32f7xx_ll_usb.c ****   * @param  ep pointer to endpoint structure
 739:Drivers/STM32F7xx_HAL_Driver/Src/stm32f7xx_ll_usb.c ****   * @retval HAL status
 740:Drivers/STM32F7xx_HAL_Driver/Src/stm32f7xx_ll_usb.c ****   */
 741:Drivers/STM32F7xx_HAL_Driver/Src/stm32f7xx_ll_usb.c **** HAL_StatusTypeDef USB_DeactivateDedicatedEndpoint(USB_OTG_GlobalTypeDef *USBx, USB_OTG_EPTypeDef *e
 742:Drivers/STM32F7xx_HAL_Driver/Src/stm32f7xx_ll_usb.c **** {
 743:Drivers/STM32F7xx_HAL_Driver/Src/stm32f7xx_ll_usb.c ****   uint32_t USBx_BASE = (uint32_t)USBx;
 744:Drivers/STM32F7xx_HAL_Driver/Src/stm32f7xx_ll_usb.c ****   uint32_t epnum = (uint32_t)ep->num;
 745:Drivers/STM32F7xx_HAL_Driver/Src/stm32f7xx_ll_usb.c **** 
 746:Drivers/STM32F7xx_HAL_Driver/Src/stm32f7xx_ll_usb.c ****   /* Read DEPCTLn register */
 747:Drivers/STM32F7xx_HAL_Driver/Src/stm32f7xx_ll_usb.c ****   if (ep->is_in == 1U)
 748:Drivers/STM32F7xx_HAL_Driver/Src/stm32f7xx_ll_usb.c ****   {
 749:Drivers/STM32F7xx_HAL_Driver/Src/stm32f7xx_ll_usb.c ****     if ((USBx_INEP(epnum)->DIEPCTL & USB_OTG_DIEPCTL_EPENA) == USB_OTG_DIEPCTL_EPENA)
 750:Drivers/STM32F7xx_HAL_Driver/Src/stm32f7xx_ll_usb.c ****     {
 751:Drivers/STM32F7xx_HAL_Driver/Src/stm32f7xx_ll_usb.c ****       USBx_INEP(epnum)->DIEPCTL  |= USB_OTG_DIEPCTL_SNAK;
 752:Drivers/STM32F7xx_HAL_Driver/Src/stm32f7xx_ll_usb.c ****       USBx_INEP(epnum)->DIEPCTL  |= USB_OTG_DIEPCTL_EPDIS;
 753:Drivers/STM32F7xx_HAL_Driver/Src/stm32f7xx_ll_usb.c ****     }
 754:Drivers/STM32F7xx_HAL_Driver/Src/stm32f7xx_ll_usb.c **** 
 755:Drivers/STM32F7xx_HAL_Driver/Src/stm32f7xx_ll_usb.c ****     USBx_INEP(epnum)->DIEPCTL &= ~ USB_OTG_DIEPCTL_USBAEP;
 756:Drivers/STM32F7xx_HAL_Driver/Src/stm32f7xx_ll_usb.c ****     USBx_DEVICE->DAINTMSK &= ~(USB_OTG_DAINTMSK_IEPM & (uint32_t)(1UL << (ep->num & EP_ADDR_MSK)));
 757:Drivers/STM32F7xx_HAL_Driver/Src/stm32f7xx_ll_usb.c ****   }
 758:Drivers/STM32F7xx_HAL_Driver/Src/stm32f7xx_ll_usb.c ****   else
 759:Drivers/STM32F7xx_HAL_Driver/Src/stm32f7xx_ll_usb.c ****   {
 760:Drivers/STM32F7xx_HAL_Driver/Src/stm32f7xx_ll_usb.c ****     if ((USBx_OUTEP(epnum)->DOEPCTL & USB_OTG_DOEPCTL_EPENA) == USB_OTG_DOEPCTL_EPENA)
 761:Drivers/STM32F7xx_HAL_Driver/Src/stm32f7xx_ll_usb.c ****     {
 762:Drivers/STM32F7xx_HAL_Driver/Src/stm32f7xx_ll_usb.c ****       USBx_OUTEP(epnum)->DOEPCTL  |= USB_OTG_DOEPCTL_SNAK;
 763:Drivers/STM32F7xx_HAL_Driver/Src/stm32f7xx_ll_usb.c ****       USBx_OUTEP(epnum)->DOEPCTL  |= USB_OTG_DOEPCTL_EPDIS;
 764:Drivers/STM32F7xx_HAL_Driver/Src/stm32f7xx_ll_usb.c ****     }
 765:Drivers/STM32F7xx_HAL_Driver/Src/stm32f7xx_ll_usb.c **** 
 766:Drivers/STM32F7xx_HAL_Driver/Src/stm32f7xx_ll_usb.c ****     USBx_OUTEP(epnum)->DOEPCTL &= ~USB_OTG_DOEPCTL_USBAEP;
 767:Drivers/STM32F7xx_HAL_Driver/Src/stm32f7xx_ll_usb.c ****     USBx_DEVICE->DAINTMSK &= ~(USB_OTG_DAINTMSK_OEPM & ((uint32_t)(1UL << (ep->num & EP_ADDR_MSK)) 
 768:Drivers/STM32F7xx_HAL_Driver/Src/stm32f7xx_ll_usb.c ****   }
 769:Drivers/STM32F7xx_HAL_Driver/Src/stm32f7xx_ll_usb.c **** 
 770:Drivers/STM32F7xx_HAL_Driver/Src/stm32f7xx_ll_usb.c ****   return HAL_OK;
 771:Drivers/STM32F7xx_HAL_Driver/Src/stm32f7xx_ll_usb.c **** }
 772:Drivers/STM32F7xx_HAL_Driver/Src/stm32f7xx_ll_usb.c **** 
ARM GAS  /tmp/ccrvI8Gd.s 			page 15


 773:Drivers/STM32F7xx_HAL_Driver/Src/stm32f7xx_ll_usb.c **** /**
 774:Drivers/STM32F7xx_HAL_Driver/Src/stm32f7xx_ll_usb.c ****   * @brief  USB_EPStartXfer : setup and starts a transfer over an EP
 775:Drivers/STM32F7xx_HAL_Driver/Src/stm32f7xx_ll_usb.c ****   * @param  USBx  Selected device
 776:Drivers/STM32F7xx_HAL_Driver/Src/stm32f7xx_ll_usb.c ****   * @param  ep pointer to endpoint structure
 777:Drivers/STM32F7xx_HAL_Driver/Src/stm32f7xx_ll_usb.c ****   * @param  dma USB dma enabled or disabled
 778:Drivers/STM32F7xx_HAL_Driver/Src/stm32f7xx_ll_usb.c ****   *          This parameter can be one of these values:
 779:Drivers/STM32F7xx_HAL_Driver/Src/stm32f7xx_ll_usb.c ****   *           0 : DMA feature not used
 780:Drivers/STM32F7xx_HAL_Driver/Src/stm32f7xx_ll_usb.c ****   *           1 : DMA feature used
 781:Drivers/STM32F7xx_HAL_Driver/Src/stm32f7xx_ll_usb.c ****   * @retval HAL status
 782:Drivers/STM32F7xx_HAL_Driver/Src/stm32f7xx_ll_usb.c ****   */
 783:Drivers/STM32F7xx_HAL_Driver/Src/stm32f7xx_ll_usb.c **** HAL_StatusTypeDef USB_EPStartXfer(USB_OTG_GlobalTypeDef *USBx, USB_OTG_EPTypeDef *ep, uint8_t dma)
 784:Drivers/STM32F7xx_HAL_Driver/Src/stm32f7xx_ll_usb.c **** {
 785:Drivers/STM32F7xx_HAL_Driver/Src/stm32f7xx_ll_usb.c ****   uint32_t USBx_BASE = (uint32_t)USBx;
 786:Drivers/STM32F7xx_HAL_Driver/Src/stm32f7xx_ll_usb.c ****   uint32_t epnum = (uint32_t)ep->num;
 787:Drivers/STM32F7xx_HAL_Driver/Src/stm32f7xx_ll_usb.c ****   uint16_t pktcnt;
 788:Drivers/STM32F7xx_HAL_Driver/Src/stm32f7xx_ll_usb.c **** 
 789:Drivers/STM32F7xx_HAL_Driver/Src/stm32f7xx_ll_usb.c ****   /* IN endpoint */
 790:Drivers/STM32F7xx_HAL_Driver/Src/stm32f7xx_ll_usb.c ****   if (ep->is_in == 1U)
 791:Drivers/STM32F7xx_HAL_Driver/Src/stm32f7xx_ll_usb.c ****   {
 792:Drivers/STM32F7xx_HAL_Driver/Src/stm32f7xx_ll_usb.c ****     /* Zero Length Packet? */
 793:Drivers/STM32F7xx_HAL_Driver/Src/stm32f7xx_ll_usb.c ****     if (ep->xfer_len == 0U)
 794:Drivers/STM32F7xx_HAL_Driver/Src/stm32f7xx_ll_usb.c ****     {
 795:Drivers/STM32F7xx_HAL_Driver/Src/stm32f7xx_ll_usb.c ****       USBx_INEP(epnum)->DIEPTSIZ &= ~(USB_OTG_DIEPTSIZ_PKTCNT);
 796:Drivers/STM32F7xx_HAL_Driver/Src/stm32f7xx_ll_usb.c ****       USBx_INEP(epnum)->DIEPTSIZ |= (USB_OTG_DIEPTSIZ_PKTCNT & (1U << 19));
 797:Drivers/STM32F7xx_HAL_Driver/Src/stm32f7xx_ll_usb.c ****       USBx_INEP(epnum)->DIEPTSIZ &= ~(USB_OTG_DIEPTSIZ_XFRSIZ);
 798:Drivers/STM32F7xx_HAL_Driver/Src/stm32f7xx_ll_usb.c ****     }
 799:Drivers/STM32F7xx_HAL_Driver/Src/stm32f7xx_ll_usb.c ****     else
 800:Drivers/STM32F7xx_HAL_Driver/Src/stm32f7xx_ll_usb.c ****     {
 801:Drivers/STM32F7xx_HAL_Driver/Src/stm32f7xx_ll_usb.c ****       /* Program the transfer size and packet count
 802:Drivers/STM32F7xx_HAL_Driver/Src/stm32f7xx_ll_usb.c ****       * as follows: xfersize = N * maxpacket +
 803:Drivers/STM32F7xx_HAL_Driver/Src/stm32f7xx_ll_usb.c ****       * short_packet pktcnt = N + (short_packet
 804:Drivers/STM32F7xx_HAL_Driver/Src/stm32f7xx_ll_usb.c ****       * exist ? 1 : 0)
 805:Drivers/STM32F7xx_HAL_Driver/Src/stm32f7xx_ll_usb.c ****       */
 806:Drivers/STM32F7xx_HAL_Driver/Src/stm32f7xx_ll_usb.c ****       USBx_INEP(epnum)->DIEPTSIZ &= ~(USB_OTG_DIEPTSIZ_XFRSIZ);
 807:Drivers/STM32F7xx_HAL_Driver/Src/stm32f7xx_ll_usb.c ****       USBx_INEP(epnum)->DIEPTSIZ &= ~(USB_OTG_DIEPTSIZ_PKTCNT);
 808:Drivers/STM32F7xx_HAL_Driver/Src/stm32f7xx_ll_usb.c ****       USBx_INEP(epnum)->DIEPTSIZ |= (USB_OTG_DIEPTSIZ_PKTCNT &
 809:Drivers/STM32F7xx_HAL_Driver/Src/stm32f7xx_ll_usb.c ****                                      (((ep->xfer_len + ep->maxpacket - 1U) / ep->maxpacket) << 19))
 810:Drivers/STM32F7xx_HAL_Driver/Src/stm32f7xx_ll_usb.c **** 
 811:Drivers/STM32F7xx_HAL_Driver/Src/stm32f7xx_ll_usb.c ****       USBx_INEP(epnum)->DIEPTSIZ |= (USB_OTG_DIEPTSIZ_XFRSIZ & ep->xfer_len);
 812:Drivers/STM32F7xx_HAL_Driver/Src/stm32f7xx_ll_usb.c **** 
 813:Drivers/STM32F7xx_HAL_Driver/Src/stm32f7xx_ll_usb.c ****       if (ep->type == EP_TYPE_ISOC)
 814:Drivers/STM32F7xx_HAL_Driver/Src/stm32f7xx_ll_usb.c ****       {
 815:Drivers/STM32F7xx_HAL_Driver/Src/stm32f7xx_ll_usb.c ****         USBx_INEP(epnum)->DIEPTSIZ &= ~(USB_OTG_DIEPTSIZ_MULCNT);
 816:Drivers/STM32F7xx_HAL_Driver/Src/stm32f7xx_ll_usb.c ****         USBx_INEP(epnum)->DIEPTSIZ |= (USB_OTG_DIEPTSIZ_MULCNT & (1U << 29));
 817:Drivers/STM32F7xx_HAL_Driver/Src/stm32f7xx_ll_usb.c ****       }
 818:Drivers/STM32F7xx_HAL_Driver/Src/stm32f7xx_ll_usb.c ****     }
 819:Drivers/STM32F7xx_HAL_Driver/Src/stm32f7xx_ll_usb.c **** 
 820:Drivers/STM32F7xx_HAL_Driver/Src/stm32f7xx_ll_usb.c ****     if (dma == 1U)
 821:Drivers/STM32F7xx_HAL_Driver/Src/stm32f7xx_ll_usb.c ****     {
 822:Drivers/STM32F7xx_HAL_Driver/Src/stm32f7xx_ll_usb.c ****       if ((uint32_t)ep->dma_addr != 0U)
 823:Drivers/STM32F7xx_HAL_Driver/Src/stm32f7xx_ll_usb.c ****       {
 824:Drivers/STM32F7xx_HAL_Driver/Src/stm32f7xx_ll_usb.c ****         USBx_INEP(epnum)->DIEPDMA = (uint32_t)(ep->dma_addr);
 825:Drivers/STM32F7xx_HAL_Driver/Src/stm32f7xx_ll_usb.c ****       }
 826:Drivers/STM32F7xx_HAL_Driver/Src/stm32f7xx_ll_usb.c **** 
 827:Drivers/STM32F7xx_HAL_Driver/Src/stm32f7xx_ll_usb.c ****       if (ep->type == EP_TYPE_ISOC)
 828:Drivers/STM32F7xx_HAL_Driver/Src/stm32f7xx_ll_usb.c ****       {
 829:Drivers/STM32F7xx_HAL_Driver/Src/stm32f7xx_ll_usb.c ****         if ((USBx_DEVICE->DSTS & (1U << 8)) == 0U)
ARM GAS  /tmp/ccrvI8Gd.s 			page 16


 830:Drivers/STM32F7xx_HAL_Driver/Src/stm32f7xx_ll_usb.c ****         {
 831:Drivers/STM32F7xx_HAL_Driver/Src/stm32f7xx_ll_usb.c ****           USBx_INEP(epnum)->DIEPCTL |= USB_OTG_DIEPCTL_SODDFRM;
 832:Drivers/STM32F7xx_HAL_Driver/Src/stm32f7xx_ll_usb.c ****         }
 833:Drivers/STM32F7xx_HAL_Driver/Src/stm32f7xx_ll_usb.c ****         else
 834:Drivers/STM32F7xx_HAL_Driver/Src/stm32f7xx_ll_usb.c ****         {
 835:Drivers/STM32F7xx_HAL_Driver/Src/stm32f7xx_ll_usb.c ****           USBx_INEP(epnum)->DIEPCTL |= USB_OTG_DIEPCTL_SD0PID_SEVNFRM;
 836:Drivers/STM32F7xx_HAL_Driver/Src/stm32f7xx_ll_usb.c ****         }
 837:Drivers/STM32F7xx_HAL_Driver/Src/stm32f7xx_ll_usb.c ****       }
 838:Drivers/STM32F7xx_HAL_Driver/Src/stm32f7xx_ll_usb.c **** 
 839:Drivers/STM32F7xx_HAL_Driver/Src/stm32f7xx_ll_usb.c ****       /* EP enable, IN data in FIFO */
 840:Drivers/STM32F7xx_HAL_Driver/Src/stm32f7xx_ll_usb.c ****       USBx_INEP(epnum)->DIEPCTL |= (USB_OTG_DIEPCTL_CNAK | USB_OTG_DIEPCTL_EPENA);
 841:Drivers/STM32F7xx_HAL_Driver/Src/stm32f7xx_ll_usb.c ****     }
 842:Drivers/STM32F7xx_HAL_Driver/Src/stm32f7xx_ll_usb.c ****     else
 843:Drivers/STM32F7xx_HAL_Driver/Src/stm32f7xx_ll_usb.c ****     {
 844:Drivers/STM32F7xx_HAL_Driver/Src/stm32f7xx_ll_usb.c ****       /* EP enable, IN data in FIFO */
 845:Drivers/STM32F7xx_HAL_Driver/Src/stm32f7xx_ll_usb.c ****       USBx_INEP(epnum)->DIEPCTL |= (USB_OTG_DIEPCTL_CNAK | USB_OTG_DIEPCTL_EPENA);
 846:Drivers/STM32F7xx_HAL_Driver/Src/stm32f7xx_ll_usb.c **** 
 847:Drivers/STM32F7xx_HAL_Driver/Src/stm32f7xx_ll_usb.c ****       if (ep->type != EP_TYPE_ISOC)
 848:Drivers/STM32F7xx_HAL_Driver/Src/stm32f7xx_ll_usb.c ****       {
 849:Drivers/STM32F7xx_HAL_Driver/Src/stm32f7xx_ll_usb.c ****         /* Enable the Tx FIFO Empty Interrupt for this EP */
 850:Drivers/STM32F7xx_HAL_Driver/Src/stm32f7xx_ll_usb.c ****         if (ep->xfer_len > 0U)
 851:Drivers/STM32F7xx_HAL_Driver/Src/stm32f7xx_ll_usb.c ****         {
 852:Drivers/STM32F7xx_HAL_Driver/Src/stm32f7xx_ll_usb.c ****           USBx_DEVICE->DIEPEMPMSK |= 1UL << (ep->num & EP_ADDR_MSK);
 853:Drivers/STM32F7xx_HAL_Driver/Src/stm32f7xx_ll_usb.c ****         }
 854:Drivers/STM32F7xx_HAL_Driver/Src/stm32f7xx_ll_usb.c ****       }
 855:Drivers/STM32F7xx_HAL_Driver/Src/stm32f7xx_ll_usb.c ****       else
 856:Drivers/STM32F7xx_HAL_Driver/Src/stm32f7xx_ll_usb.c ****       {
 857:Drivers/STM32F7xx_HAL_Driver/Src/stm32f7xx_ll_usb.c ****         if ((USBx_DEVICE->DSTS & (1U << 8)) == 0U)
 858:Drivers/STM32F7xx_HAL_Driver/Src/stm32f7xx_ll_usb.c ****         {
 859:Drivers/STM32F7xx_HAL_Driver/Src/stm32f7xx_ll_usb.c ****           USBx_INEP(epnum)->DIEPCTL |= USB_OTG_DIEPCTL_SODDFRM;
 860:Drivers/STM32F7xx_HAL_Driver/Src/stm32f7xx_ll_usb.c ****         }
 861:Drivers/STM32F7xx_HAL_Driver/Src/stm32f7xx_ll_usb.c ****         else
 862:Drivers/STM32F7xx_HAL_Driver/Src/stm32f7xx_ll_usb.c ****         {
 863:Drivers/STM32F7xx_HAL_Driver/Src/stm32f7xx_ll_usb.c ****           USBx_INEP(epnum)->DIEPCTL |= USB_OTG_DIEPCTL_SD0PID_SEVNFRM;
 864:Drivers/STM32F7xx_HAL_Driver/Src/stm32f7xx_ll_usb.c ****         }
 865:Drivers/STM32F7xx_HAL_Driver/Src/stm32f7xx_ll_usb.c **** 
 866:Drivers/STM32F7xx_HAL_Driver/Src/stm32f7xx_ll_usb.c ****         (void)USB_WritePacket(USBx, ep->xfer_buff, ep->num, (uint16_t)ep->xfer_len, dma);
 867:Drivers/STM32F7xx_HAL_Driver/Src/stm32f7xx_ll_usb.c ****       }
 868:Drivers/STM32F7xx_HAL_Driver/Src/stm32f7xx_ll_usb.c ****     }
 869:Drivers/STM32F7xx_HAL_Driver/Src/stm32f7xx_ll_usb.c ****   }
 870:Drivers/STM32F7xx_HAL_Driver/Src/stm32f7xx_ll_usb.c ****   else /* OUT endpoint */
 871:Drivers/STM32F7xx_HAL_Driver/Src/stm32f7xx_ll_usb.c ****   {
 872:Drivers/STM32F7xx_HAL_Driver/Src/stm32f7xx_ll_usb.c ****     /* Program the transfer size and packet count as follows:
 873:Drivers/STM32F7xx_HAL_Driver/Src/stm32f7xx_ll_usb.c ****     * pktcnt = N
 874:Drivers/STM32F7xx_HAL_Driver/Src/stm32f7xx_ll_usb.c ****     * xfersize = N * maxpacket
 875:Drivers/STM32F7xx_HAL_Driver/Src/stm32f7xx_ll_usb.c ****     */
 876:Drivers/STM32F7xx_HAL_Driver/Src/stm32f7xx_ll_usb.c ****     USBx_OUTEP(epnum)->DOEPTSIZ &= ~(USB_OTG_DOEPTSIZ_XFRSIZ);
 877:Drivers/STM32F7xx_HAL_Driver/Src/stm32f7xx_ll_usb.c ****     USBx_OUTEP(epnum)->DOEPTSIZ &= ~(USB_OTG_DOEPTSIZ_PKTCNT);
 878:Drivers/STM32F7xx_HAL_Driver/Src/stm32f7xx_ll_usb.c **** 
 879:Drivers/STM32F7xx_HAL_Driver/Src/stm32f7xx_ll_usb.c ****     if (ep->xfer_len == 0U)
 880:Drivers/STM32F7xx_HAL_Driver/Src/stm32f7xx_ll_usb.c ****     {
 881:Drivers/STM32F7xx_HAL_Driver/Src/stm32f7xx_ll_usb.c ****       USBx_OUTEP(epnum)->DOEPTSIZ |= (USB_OTG_DOEPTSIZ_XFRSIZ & ep->maxpacket);
 882:Drivers/STM32F7xx_HAL_Driver/Src/stm32f7xx_ll_usb.c ****       USBx_OUTEP(epnum)->DOEPTSIZ |= (USB_OTG_DOEPTSIZ_PKTCNT & (1U << 19));
 883:Drivers/STM32F7xx_HAL_Driver/Src/stm32f7xx_ll_usb.c ****     }
 884:Drivers/STM32F7xx_HAL_Driver/Src/stm32f7xx_ll_usb.c ****     else
 885:Drivers/STM32F7xx_HAL_Driver/Src/stm32f7xx_ll_usb.c ****     {
 886:Drivers/STM32F7xx_HAL_Driver/Src/stm32f7xx_ll_usb.c ****       pktcnt = (uint16_t)((ep->xfer_len + ep->maxpacket - 1U) / ep->maxpacket);
ARM GAS  /tmp/ccrvI8Gd.s 			page 17


 887:Drivers/STM32F7xx_HAL_Driver/Src/stm32f7xx_ll_usb.c ****       USBx_OUTEP(epnum)->DOEPTSIZ |= USB_OTG_DOEPTSIZ_PKTCNT & ((uint32_t)pktcnt << 19);
 888:Drivers/STM32F7xx_HAL_Driver/Src/stm32f7xx_ll_usb.c ****       USBx_OUTEP(epnum)->DOEPTSIZ |= USB_OTG_DOEPTSIZ_XFRSIZ & (ep->maxpacket * pktcnt);
 889:Drivers/STM32F7xx_HAL_Driver/Src/stm32f7xx_ll_usb.c ****     }
 890:Drivers/STM32F7xx_HAL_Driver/Src/stm32f7xx_ll_usb.c **** 
 891:Drivers/STM32F7xx_HAL_Driver/Src/stm32f7xx_ll_usb.c ****     if (dma == 1U)
 892:Drivers/STM32F7xx_HAL_Driver/Src/stm32f7xx_ll_usb.c ****     {
 893:Drivers/STM32F7xx_HAL_Driver/Src/stm32f7xx_ll_usb.c ****       if ((uint32_t)ep->xfer_buff != 0U)
 894:Drivers/STM32F7xx_HAL_Driver/Src/stm32f7xx_ll_usb.c ****       {
 895:Drivers/STM32F7xx_HAL_Driver/Src/stm32f7xx_ll_usb.c ****         USBx_OUTEP(epnum)->DOEPDMA = (uint32_t)(ep->xfer_buff);
 896:Drivers/STM32F7xx_HAL_Driver/Src/stm32f7xx_ll_usb.c ****       }
 897:Drivers/STM32F7xx_HAL_Driver/Src/stm32f7xx_ll_usb.c ****     }
 898:Drivers/STM32F7xx_HAL_Driver/Src/stm32f7xx_ll_usb.c **** 
 899:Drivers/STM32F7xx_HAL_Driver/Src/stm32f7xx_ll_usb.c ****     if (ep->type == EP_TYPE_ISOC)
 900:Drivers/STM32F7xx_HAL_Driver/Src/stm32f7xx_ll_usb.c ****     {
 901:Drivers/STM32F7xx_HAL_Driver/Src/stm32f7xx_ll_usb.c ****       if ((USBx_DEVICE->DSTS & (1U << 8)) == 0U)
 902:Drivers/STM32F7xx_HAL_Driver/Src/stm32f7xx_ll_usb.c ****       {
 903:Drivers/STM32F7xx_HAL_Driver/Src/stm32f7xx_ll_usb.c ****         USBx_OUTEP(epnum)->DOEPCTL |= USB_OTG_DOEPCTL_SODDFRM;
 904:Drivers/STM32F7xx_HAL_Driver/Src/stm32f7xx_ll_usb.c ****       }
 905:Drivers/STM32F7xx_HAL_Driver/Src/stm32f7xx_ll_usb.c ****       else
 906:Drivers/STM32F7xx_HAL_Driver/Src/stm32f7xx_ll_usb.c ****       {
 907:Drivers/STM32F7xx_HAL_Driver/Src/stm32f7xx_ll_usb.c ****         USBx_OUTEP(epnum)->DOEPCTL |= USB_OTG_DOEPCTL_SD0PID_SEVNFRM;
 908:Drivers/STM32F7xx_HAL_Driver/Src/stm32f7xx_ll_usb.c ****       }
 909:Drivers/STM32F7xx_HAL_Driver/Src/stm32f7xx_ll_usb.c ****     }
 910:Drivers/STM32F7xx_HAL_Driver/Src/stm32f7xx_ll_usb.c ****     /* EP enable */
 911:Drivers/STM32F7xx_HAL_Driver/Src/stm32f7xx_ll_usb.c ****     USBx_OUTEP(epnum)->DOEPCTL |= (USB_OTG_DOEPCTL_CNAK | USB_OTG_DOEPCTL_EPENA);
 912:Drivers/STM32F7xx_HAL_Driver/Src/stm32f7xx_ll_usb.c ****   }
 913:Drivers/STM32F7xx_HAL_Driver/Src/stm32f7xx_ll_usb.c **** 
 914:Drivers/STM32F7xx_HAL_Driver/Src/stm32f7xx_ll_usb.c ****   return HAL_OK;
 915:Drivers/STM32F7xx_HAL_Driver/Src/stm32f7xx_ll_usb.c **** }
 916:Drivers/STM32F7xx_HAL_Driver/Src/stm32f7xx_ll_usb.c **** 
 917:Drivers/STM32F7xx_HAL_Driver/Src/stm32f7xx_ll_usb.c **** /**
 918:Drivers/STM32F7xx_HAL_Driver/Src/stm32f7xx_ll_usb.c ****   * @brief  USB_EP0StartXfer : setup and starts a transfer over the EP  0
 919:Drivers/STM32F7xx_HAL_Driver/Src/stm32f7xx_ll_usb.c ****   * @param  USBx  Selected device
 920:Drivers/STM32F7xx_HAL_Driver/Src/stm32f7xx_ll_usb.c ****   * @param  ep pointer to endpoint structure
 921:Drivers/STM32F7xx_HAL_Driver/Src/stm32f7xx_ll_usb.c ****   * @param  dma USB dma enabled or disabled
 922:Drivers/STM32F7xx_HAL_Driver/Src/stm32f7xx_ll_usb.c ****   *          This parameter can be one of these values:
 923:Drivers/STM32F7xx_HAL_Driver/Src/stm32f7xx_ll_usb.c ****   *           0 : DMA feature not used
 924:Drivers/STM32F7xx_HAL_Driver/Src/stm32f7xx_ll_usb.c ****   *           1 : DMA feature used
 925:Drivers/STM32F7xx_HAL_Driver/Src/stm32f7xx_ll_usb.c ****   * @retval HAL status
 926:Drivers/STM32F7xx_HAL_Driver/Src/stm32f7xx_ll_usb.c ****   */
 927:Drivers/STM32F7xx_HAL_Driver/Src/stm32f7xx_ll_usb.c **** HAL_StatusTypeDef USB_EP0StartXfer(USB_OTG_GlobalTypeDef *USBx, USB_OTG_EPTypeDef *ep, uint8_t dma)
 928:Drivers/STM32F7xx_HAL_Driver/Src/stm32f7xx_ll_usb.c **** {
 929:Drivers/STM32F7xx_HAL_Driver/Src/stm32f7xx_ll_usb.c ****   uint32_t USBx_BASE = (uint32_t)USBx;
 930:Drivers/STM32F7xx_HAL_Driver/Src/stm32f7xx_ll_usb.c ****   uint32_t epnum = (uint32_t)ep->num;
 931:Drivers/STM32F7xx_HAL_Driver/Src/stm32f7xx_ll_usb.c **** 
 932:Drivers/STM32F7xx_HAL_Driver/Src/stm32f7xx_ll_usb.c ****   /* IN endpoint */
 933:Drivers/STM32F7xx_HAL_Driver/Src/stm32f7xx_ll_usb.c ****   if (ep->is_in == 1U)
 934:Drivers/STM32F7xx_HAL_Driver/Src/stm32f7xx_ll_usb.c ****   {
 935:Drivers/STM32F7xx_HAL_Driver/Src/stm32f7xx_ll_usb.c ****     /* Zero Length Packet? */
 936:Drivers/STM32F7xx_HAL_Driver/Src/stm32f7xx_ll_usb.c ****     if (ep->xfer_len == 0U)
 937:Drivers/STM32F7xx_HAL_Driver/Src/stm32f7xx_ll_usb.c ****     {
 938:Drivers/STM32F7xx_HAL_Driver/Src/stm32f7xx_ll_usb.c ****       USBx_INEP(epnum)->DIEPTSIZ &= ~(USB_OTG_DIEPTSIZ_PKTCNT);
 939:Drivers/STM32F7xx_HAL_Driver/Src/stm32f7xx_ll_usb.c ****       USBx_INEP(epnum)->DIEPTSIZ |= (USB_OTG_DIEPTSIZ_PKTCNT & (1U << 19));
 940:Drivers/STM32F7xx_HAL_Driver/Src/stm32f7xx_ll_usb.c ****       USBx_INEP(epnum)->DIEPTSIZ &= ~(USB_OTG_DIEPTSIZ_XFRSIZ);
 941:Drivers/STM32F7xx_HAL_Driver/Src/stm32f7xx_ll_usb.c ****     }
 942:Drivers/STM32F7xx_HAL_Driver/Src/stm32f7xx_ll_usb.c ****     else
 943:Drivers/STM32F7xx_HAL_Driver/Src/stm32f7xx_ll_usb.c ****     {
ARM GAS  /tmp/ccrvI8Gd.s 			page 18


 944:Drivers/STM32F7xx_HAL_Driver/Src/stm32f7xx_ll_usb.c ****       /* Program the transfer size and packet count
 945:Drivers/STM32F7xx_HAL_Driver/Src/stm32f7xx_ll_usb.c ****       * as follows: xfersize = N * maxpacket +
 946:Drivers/STM32F7xx_HAL_Driver/Src/stm32f7xx_ll_usb.c ****       * short_packet pktcnt = N + (short_packet
 947:Drivers/STM32F7xx_HAL_Driver/Src/stm32f7xx_ll_usb.c ****       * exist ? 1 : 0)
 948:Drivers/STM32F7xx_HAL_Driver/Src/stm32f7xx_ll_usb.c ****       */
 949:Drivers/STM32F7xx_HAL_Driver/Src/stm32f7xx_ll_usb.c ****       USBx_INEP(epnum)->DIEPTSIZ &= ~(USB_OTG_DIEPTSIZ_XFRSIZ);
 950:Drivers/STM32F7xx_HAL_Driver/Src/stm32f7xx_ll_usb.c ****       USBx_INEP(epnum)->DIEPTSIZ &= ~(USB_OTG_DIEPTSIZ_PKTCNT);
 951:Drivers/STM32F7xx_HAL_Driver/Src/stm32f7xx_ll_usb.c **** 
 952:Drivers/STM32F7xx_HAL_Driver/Src/stm32f7xx_ll_usb.c ****       if (ep->xfer_len > ep->maxpacket)
 953:Drivers/STM32F7xx_HAL_Driver/Src/stm32f7xx_ll_usb.c ****       {
 954:Drivers/STM32F7xx_HAL_Driver/Src/stm32f7xx_ll_usb.c ****         ep->xfer_len = ep->maxpacket;
 955:Drivers/STM32F7xx_HAL_Driver/Src/stm32f7xx_ll_usb.c ****       }
 956:Drivers/STM32F7xx_HAL_Driver/Src/stm32f7xx_ll_usb.c ****       USBx_INEP(epnum)->DIEPTSIZ |= (USB_OTG_DIEPTSIZ_PKTCNT & (1U << 19));
 957:Drivers/STM32F7xx_HAL_Driver/Src/stm32f7xx_ll_usb.c ****       USBx_INEP(epnum)->DIEPTSIZ |= (USB_OTG_DIEPTSIZ_XFRSIZ & ep->xfer_len);
 958:Drivers/STM32F7xx_HAL_Driver/Src/stm32f7xx_ll_usb.c ****     }
 959:Drivers/STM32F7xx_HAL_Driver/Src/stm32f7xx_ll_usb.c **** 
 960:Drivers/STM32F7xx_HAL_Driver/Src/stm32f7xx_ll_usb.c ****     if (dma == 1U)
 961:Drivers/STM32F7xx_HAL_Driver/Src/stm32f7xx_ll_usb.c ****     {
 962:Drivers/STM32F7xx_HAL_Driver/Src/stm32f7xx_ll_usb.c ****       if ((uint32_t)ep->dma_addr != 0U)
 963:Drivers/STM32F7xx_HAL_Driver/Src/stm32f7xx_ll_usb.c ****       {
 964:Drivers/STM32F7xx_HAL_Driver/Src/stm32f7xx_ll_usb.c ****         USBx_INEP(epnum)->DIEPDMA = (uint32_t)(ep->dma_addr);
 965:Drivers/STM32F7xx_HAL_Driver/Src/stm32f7xx_ll_usb.c ****       }
 966:Drivers/STM32F7xx_HAL_Driver/Src/stm32f7xx_ll_usb.c **** 
 967:Drivers/STM32F7xx_HAL_Driver/Src/stm32f7xx_ll_usb.c ****       /* EP enable, IN data in FIFO */
 968:Drivers/STM32F7xx_HAL_Driver/Src/stm32f7xx_ll_usb.c ****       USBx_INEP(epnum)->DIEPCTL |= (USB_OTG_DIEPCTL_CNAK | USB_OTG_DIEPCTL_EPENA);
 969:Drivers/STM32F7xx_HAL_Driver/Src/stm32f7xx_ll_usb.c ****     }
 970:Drivers/STM32F7xx_HAL_Driver/Src/stm32f7xx_ll_usb.c ****     else
 971:Drivers/STM32F7xx_HAL_Driver/Src/stm32f7xx_ll_usb.c ****     {
 972:Drivers/STM32F7xx_HAL_Driver/Src/stm32f7xx_ll_usb.c ****       /* EP enable, IN data in FIFO */
 973:Drivers/STM32F7xx_HAL_Driver/Src/stm32f7xx_ll_usb.c ****       USBx_INEP(epnum)->DIEPCTL |= (USB_OTG_DIEPCTL_CNAK | USB_OTG_DIEPCTL_EPENA);
 974:Drivers/STM32F7xx_HAL_Driver/Src/stm32f7xx_ll_usb.c **** 
 975:Drivers/STM32F7xx_HAL_Driver/Src/stm32f7xx_ll_usb.c ****       /* Enable the Tx FIFO Empty Interrupt for this EP */
 976:Drivers/STM32F7xx_HAL_Driver/Src/stm32f7xx_ll_usb.c ****       if (ep->xfer_len > 0U)
 977:Drivers/STM32F7xx_HAL_Driver/Src/stm32f7xx_ll_usb.c ****       {
 978:Drivers/STM32F7xx_HAL_Driver/Src/stm32f7xx_ll_usb.c ****         USBx_DEVICE->DIEPEMPMSK |= 1UL << (ep->num & EP_ADDR_MSK);
 979:Drivers/STM32F7xx_HAL_Driver/Src/stm32f7xx_ll_usb.c ****       }
 980:Drivers/STM32F7xx_HAL_Driver/Src/stm32f7xx_ll_usb.c ****     }
 981:Drivers/STM32F7xx_HAL_Driver/Src/stm32f7xx_ll_usb.c ****   }
 982:Drivers/STM32F7xx_HAL_Driver/Src/stm32f7xx_ll_usb.c ****   else /* OUT endpoint */
 983:Drivers/STM32F7xx_HAL_Driver/Src/stm32f7xx_ll_usb.c ****   {
 984:Drivers/STM32F7xx_HAL_Driver/Src/stm32f7xx_ll_usb.c ****     /* Program the transfer size and packet count as follows:
 985:Drivers/STM32F7xx_HAL_Driver/Src/stm32f7xx_ll_usb.c ****     * pktcnt = N
 986:Drivers/STM32F7xx_HAL_Driver/Src/stm32f7xx_ll_usb.c ****     * xfersize = N * maxpacket
 987:Drivers/STM32F7xx_HAL_Driver/Src/stm32f7xx_ll_usb.c ****     */
 988:Drivers/STM32F7xx_HAL_Driver/Src/stm32f7xx_ll_usb.c ****     USBx_OUTEP(epnum)->DOEPTSIZ &= ~(USB_OTG_DOEPTSIZ_XFRSIZ);
 989:Drivers/STM32F7xx_HAL_Driver/Src/stm32f7xx_ll_usb.c ****     USBx_OUTEP(epnum)->DOEPTSIZ &= ~(USB_OTG_DOEPTSIZ_PKTCNT);
 990:Drivers/STM32F7xx_HAL_Driver/Src/stm32f7xx_ll_usb.c **** 
 991:Drivers/STM32F7xx_HAL_Driver/Src/stm32f7xx_ll_usb.c ****     if (ep->xfer_len > 0U)
 992:Drivers/STM32F7xx_HAL_Driver/Src/stm32f7xx_ll_usb.c ****     {
 993:Drivers/STM32F7xx_HAL_Driver/Src/stm32f7xx_ll_usb.c ****       ep->xfer_len = ep->maxpacket;
 994:Drivers/STM32F7xx_HAL_Driver/Src/stm32f7xx_ll_usb.c ****     }
 995:Drivers/STM32F7xx_HAL_Driver/Src/stm32f7xx_ll_usb.c **** 
 996:Drivers/STM32F7xx_HAL_Driver/Src/stm32f7xx_ll_usb.c ****     USBx_OUTEP(epnum)->DOEPTSIZ |= (USB_OTG_DOEPTSIZ_PKTCNT & (1U << 19));
 997:Drivers/STM32F7xx_HAL_Driver/Src/stm32f7xx_ll_usb.c ****     USBx_OUTEP(epnum)->DOEPTSIZ |= (USB_OTG_DOEPTSIZ_XFRSIZ & (ep->maxpacket));
 998:Drivers/STM32F7xx_HAL_Driver/Src/stm32f7xx_ll_usb.c **** 
 999:Drivers/STM32F7xx_HAL_Driver/Src/stm32f7xx_ll_usb.c ****     if (dma == 1U)
1000:Drivers/STM32F7xx_HAL_Driver/Src/stm32f7xx_ll_usb.c ****     {
ARM GAS  /tmp/ccrvI8Gd.s 			page 19


1001:Drivers/STM32F7xx_HAL_Driver/Src/stm32f7xx_ll_usb.c ****       if ((uint32_t)ep->xfer_buff != 0U)
1002:Drivers/STM32F7xx_HAL_Driver/Src/stm32f7xx_ll_usb.c ****       {
1003:Drivers/STM32F7xx_HAL_Driver/Src/stm32f7xx_ll_usb.c ****         USBx_OUTEP(epnum)->DOEPDMA = (uint32_t)(ep->xfer_buff);
1004:Drivers/STM32F7xx_HAL_Driver/Src/stm32f7xx_ll_usb.c ****       }
1005:Drivers/STM32F7xx_HAL_Driver/Src/stm32f7xx_ll_usb.c ****     }
1006:Drivers/STM32F7xx_HAL_Driver/Src/stm32f7xx_ll_usb.c **** 
1007:Drivers/STM32F7xx_HAL_Driver/Src/stm32f7xx_ll_usb.c ****     /* EP enable */
1008:Drivers/STM32F7xx_HAL_Driver/Src/stm32f7xx_ll_usb.c ****     USBx_OUTEP(epnum)->DOEPCTL |= (USB_OTG_DOEPCTL_CNAK | USB_OTG_DOEPCTL_EPENA);
1009:Drivers/STM32F7xx_HAL_Driver/Src/stm32f7xx_ll_usb.c ****   }
1010:Drivers/STM32F7xx_HAL_Driver/Src/stm32f7xx_ll_usb.c **** 
1011:Drivers/STM32F7xx_HAL_Driver/Src/stm32f7xx_ll_usb.c ****   return HAL_OK;
1012:Drivers/STM32F7xx_HAL_Driver/Src/stm32f7xx_ll_usb.c **** }
1013:Drivers/STM32F7xx_HAL_Driver/Src/stm32f7xx_ll_usb.c **** 
1014:Drivers/STM32F7xx_HAL_Driver/Src/stm32f7xx_ll_usb.c **** /**
1015:Drivers/STM32F7xx_HAL_Driver/Src/stm32f7xx_ll_usb.c ****   * @brief  USB_WritePacket : Writes a packet into the Tx FIFO associated
1016:Drivers/STM32F7xx_HAL_Driver/Src/stm32f7xx_ll_usb.c ****   *         with the EP/channel
1017:Drivers/STM32F7xx_HAL_Driver/Src/stm32f7xx_ll_usb.c ****   * @param  USBx  Selected device
1018:Drivers/STM32F7xx_HAL_Driver/Src/stm32f7xx_ll_usb.c ****   * @param  src   pointer to source buffer
1019:Drivers/STM32F7xx_HAL_Driver/Src/stm32f7xx_ll_usb.c ****   * @param  ch_ep_num  endpoint or host channel number
1020:Drivers/STM32F7xx_HAL_Driver/Src/stm32f7xx_ll_usb.c ****   * @param  len  Number of bytes to write
1021:Drivers/STM32F7xx_HAL_Driver/Src/stm32f7xx_ll_usb.c ****   * @param  dma USB dma enabled or disabled
1022:Drivers/STM32F7xx_HAL_Driver/Src/stm32f7xx_ll_usb.c ****   *          This parameter can be one of these values:
1023:Drivers/STM32F7xx_HAL_Driver/Src/stm32f7xx_ll_usb.c ****   *           0 : DMA feature not used
1024:Drivers/STM32F7xx_HAL_Driver/Src/stm32f7xx_ll_usb.c ****   *           1 : DMA feature used
1025:Drivers/STM32F7xx_HAL_Driver/Src/stm32f7xx_ll_usb.c ****   * @retval HAL status
1026:Drivers/STM32F7xx_HAL_Driver/Src/stm32f7xx_ll_usb.c ****   */
1027:Drivers/STM32F7xx_HAL_Driver/Src/stm32f7xx_ll_usb.c **** HAL_StatusTypeDef USB_WritePacket(USB_OTG_GlobalTypeDef *USBx, uint8_t *src,
1028:Drivers/STM32F7xx_HAL_Driver/Src/stm32f7xx_ll_usb.c ****                                   uint8_t ch_ep_num, uint16_t len, uint8_t dma)
1029:Drivers/STM32F7xx_HAL_Driver/Src/stm32f7xx_ll_usb.c **** {
1030:Drivers/STM32F7xx_HAL_Driver/Src/stm32f7xx_ll_usb.c ****   uint32_t USBx_BASE = (uint32_t)USBx;
1031:Drivers/STM32F7xx_HAL_Driver/Src/stm32f7xx_ll_usb.c ****   uint8_t *pSrc = src;
1032:Drivers/STM32F7xx_HAL_Driver/Src/stm32f7xx_ll_usb.c ****   uint32_t count32b;
1033:Drivers/STM32F7xx_HAL_Driver/Src/stm32f7xx_ll_usb.c ****   uint32_t i;
1034:Drivers/STM32F7xx_HAL_Driver/Src/stm32f7xx_ll_usb.c **** 
1035:Drivers/STM32F7xx_HAL_Driver/Src/stm32f7xx_ll_usb.c ****   if (dma == 0U)
1036:Drivers/STM32F7xx_HAL_Driver/Src/stm32f7xx_ll_usb.c ****   {
1037:Drivers/STM32F7xx_HAL_Driver/Src/stm32f7xx_ll_usb.c ****     count32b = ((uint32_t)len + 3U) / 4U;
1038:Drivers/STM32F7xx_HAL_Driver/Src/stm32f7xx_ll_usb.c ****     for (i = 0U; i < count32b; i++)
1039:Drivers/STM32F7xx_HAL_Driver/Src/stm32f7xx_ll_usb.c ****     {
1040:Drivers/STM32F7xx_HAL_Driver/Src/stm32f7xx_ll_usb.c ****       USBx_DFIFO((uint32_t)ch_ep_num) = __UNALIGNED_UINT32_READ(pSrc);
1041:Drivers/STM32F7xx_HAL_Driver/Src/stm32f7xx_ll_usb.c ****       pSrc++;
1042:Drivers/STM32F7xx_HAL_Driver/Src/stm32f7xx_ll_usb.c ****       pSrc++;
1043:Drivers/STM32F7xx_HAL_Driver/Src/stm32f7xx_ll_usb.c ****       pSrc++;
1044:Drivers/STM32F7xx_HAL_Driver/Src/stm32f7xx_ll_usb.c ****       pSrc++;
1045:Drivers/STM32F7xx_HAL_Driver/Src/stm32f7xx_ll_usb.c ****     }
1046:Drivers/STM32F7xx_HAL_Driver/Src/stm32f7xx_ll_usb.c ****   }
1047:Drivers/STM32F7xx_HAL_Driver/Src/stm32f7xx_ll_usb.c **** 
1048:Drivers/STM32F7xx_HAL_Driver/Src/stm32f7xx_ll_usb.c ****   return HAL_OK;
1049:Drivers/STM32F7xx_HAL_Driver/Src/stm32f7xx_ll_usb.c **** }
1050:Drivers/STM32F7xx_HAL_Driver/Src/stm32f7xx_ll_usb.c **** 
1051:Drivers/STM32F7xx_HAL_Driver/Src/stm32f7xx_ll_usb.c **** /**
1052:Drivers/STM32F7xx_HAL_Driver/Src/stm32f7xx_ll_usb.c ****   * @brief  USB_ReadPacket : read a packet from the RX FIFO
1053:Drivers/STM32F7xx_HAL_Driver/Src/stm32f7xx_ll_usb.c ****   * @param  USBx  Selected device
1054:Drivers/STM32F7xx_HAL_Driver/Src/stm32f7xx_ll_usb.c ****   * @param  dest  source pointer
1055:Drivers/STM32F7xx_HAL_Driver/Src/stm32f7xx_ll_usb.c ****   * @param  len  Number of bytes to read
1056:Drivers/STM32F7xx_HAL_Driver/Src/stm32f7xx_ll_usb.c ****   * @retval pointer to destination buffer
1057:Drivers/STM32F7xx_HAL_Driver/Src/stm32f7xx_ll_usb.c ****   */
ARM GAS  /tmp/ccrvI8Gd.s 			page 20


1058:Drivers/STM32F7xx_HAL_Driver/Src/stm32f7xx_ll_usb.c **** void *USB_ReadPacket(USB_OTG_GlobalTypeDef *USBx, uint8_t *dest, uint16_t len)
1059:Drivers/STM32F7xx_HAL_Driver/Src/stm32f7xx_ll_usb.c **** {
1060:Drivers/STM32F7xx_HAL_Driver/Src/stm32f7xx_ll_usb.c ****   uint32_t USBx_BASE = (uint32_t)USBx;
1061:Drivers/STM32F7xx_HAL_Driver/Src/stm32f7xx_ll_usb.c ****   uint8_t *pDest = dest;
1062:Drivers/STM32F7xx_HAL_Driver/Src/stm32f7xx_ll_usb.c ****   uint32_t pData;
1063:Drivers/STM32F7xx_HAL_Driver/Src/stm32f7xx_ll_usb.c ****   uint32_t i;
1064:Drivers/STM32F7xx_HAL_Driver/Src/stm32f7xx_ll_usb.c ****   uint32_t count32b = (uint32_t)len >> 2U;
1065:Drivers/STM32F7xx_HAL_Driver/Src/stm32f7xx_ll_usb.c ****   uint16_t remaining_bytes = len % 4U;
1066:Drivers/STM32F7xx_HAL_Driver/Src/stm32f7xx_ll_usb.c **** 
1067:Drivers/STM32F7xx_HAL_Driver/Src/stm32f7xx_ll_usb.c ****   for (i = 0U; i < count32b; i++)
1068:Drivers/STM32F7xx_HAL_Driver/Src/stm32f7xx_ll_usb.c ****   {
1069:Drivers/STM32F7xx_HAL_Driver/Src/stm32f7xx_ll_usb.c ****     __UNALIGNED_UINT32_WRITE(pDest, USBx_DFIFO(0U));
1070:Drivers/STM32F7xx_HAL_Driver/Src/stm32f7xx_ll_usb.c ****     pDest++;
1071:Drivers/STM32F7xx_HAL_Driver/Src/stm32f7xx_ll_usb.c ****     pDest++;
1072:Drivers/STM32F7xx_HAL_Driver/Src/stm32f7xx_ll_usb.c ****     pDest++;
1073:Drivers/STM32F7xx_HAL_Driver/Src/stm32f7xx_ll_usb.c ****     pDest++;
1074:Drivers/STM32F7xx_HAL_Driver/Src/stm32f7xx_ll_usb.c ****   }
1075:Drivers/STM32F7xx_HAL_Driver/Src/stm32f7xx_ll_usb.c **** 
1076:Drivers/STM32F7xx_HAL_Driver/Src/stm32f7xx_ll_usb.c ****   /* When Number of data is not word aligned, read the remaining byte */
1077:Drivers/STM32F7xx_HAL_Driver/Src/stm32f7xx_ll_usb.c ****   if (remaining_bytes != 0U)
1078:Drivers/STM32F7xx_HAL_Driver/Src/stm32f7xx_ll_usb.c ****   {
1079:Drivers/STM32F7xx_HAL_Driver/Src/stm32f7xx_ll_usb.c ****     i = 0U;
1080:Drivers/STM32F7xx_HAL_Driver/Src/stm32f7xx_ll_usb.c ****     __UNALIGNED_UINT32_WRITE(&pData, USBx_DFIFO(0U));
1081:Drivers/STM32F7xx_HAL_Driver/Src/stm32f7xx_ll_usb.c **** 
1082:Drivers/STM32F7xx_HAL_Driver/Src/stm32f7xx_ll_usb.c ****     do
1083:Drivers/STM32F7xx_HAL_Driver/Src/stm32f7xx_ll_usb.c ****     {
1084:Drivers/STM32F7xx_HAL_Driver/Src/stm32f7xx_ll_usb.c ****       *(uint8_t *)pDest = (uint8_t)(pData >> (8U * (uint8_t)(i)));
1085:Drivers/STM32F7xx_HAL_Driver/Src/stm32f7xx_ll_usb.c ****       i++;
1086:Drivers/STM32F7xx_HAL_Driver/Src/stm32f7xx_ll_usb.c ****       pDest++;
1087:Drivers/STM32F7xx_HAL_Driver/Src/stm32f7xx_ll_usb.c ****       remaining_bytes--;
1088:Drivers/STM32F7xx_HAL_Driver/Src/stm32f7xx_ll_usb.c ****     } while (remaining_bytes != 0U);
1089:Drivers/STM32F7xx_HAL_Driver/Src/stm32f7xx_ll_usb.c ****   }
1090:Drivers/STM32F7xx_HAL_Driver/Src/stm32f7xx_ll_usb.c **** 
1091:Drivers/STM32F7xx_HAL_Driver/Src/stm32f7xx_ll_usb.c ****   return ((void *)pDest);
1092:Drivers/STM32F7xx_HAL_Driver/Src/stm32f7xx_ll_usb.c **** }
1093:Drivers/STM32F7xx_HAL_Driver/Src/stm32f7xx_ll_usb.c **** 
1094:Drivers/STM32F7xx_HAL_Driver/Src/stm32f7xx_ll_usb.c **** /**
1095:Drivers/STM32F7xx_HAL_Driver/Src/stm32f7xx_ll_usb.c ****   * @brief  USB_EPSetStall : set a stall condition over an EP
1096:Drivers/STM32F7xx_HAL_Driver/Src/stm32f7xx_ll_usb.c ****   * @param  USBx  Selected device
1097:Drivers/STM32F7xx_HAL_Driver/Src/stm32f7xx_ll_usb.c ****   * @param  ep pointer to endpoint structure
1098:Drivers/STM32F7xx_HAL_Driver/Src/stm32f7xx_ll_usb.c ****   * @retval HAL status
1099:Drivers/STM32F7xx_HAL_Driver/Src/stm32f7xx_ll_usb.c ****   */
1100:Drivers/STM32F7xx_HAL_Driver/Src/stm32f7xx_ll_usb.c **** HAL_StatusTypeDef USB_EPSetStall(USB_OTG_GlobalTypeDef *USBx, USB_OTG_EPTypeDef *ep)
1101:Drivers/STM32F7xx_HAL_Driver/Src/stm32f7xx_ll_usb.c **** {
1102:Drivers/STM32F7xx_HAL_Driver/Src/stm32f7xx_ll_usb.c ****   uint32_t USBx_BASE = (uint32_t)USBx;
1103:Drivers/STM32F7xx_HAL_Driver/Src/stm32f7xx_ll_usb.c ****   uint32_t epnum = (uint32_t)ep->num;
1104:Drivers/STM32F7xx_HAL_Driver/Src/stm32f7xx_ll_usb.c **** 
1105:Drivers/STM32F7xx_HAL_Driver/Src/stm32f7xx_ll_usb.c ****   if (ep->is_in == 1U)
1106:Drivers/STM32F7xx_HAL_Driver/Src/stm32f7xx_ll_usb.c ****   {
1107:Drivers/STM32F7xx_HAL_Driver/Src/stm32f7xx_ll_usb.c ****     if (((USBx_INEP(epnum)->DIEPCTL & USB_OTG_DIEPCTL_EPENA) == 0U) && (epnum != 0U))
1108:Drivers/STM32F7xx_HAL_Driver/Src/stm32f7xx_ll_usb.c ****     {
1109:Drivers/STM32F7xx_HAL_Driver/Src/stm32f7xx_ll_usb.c ****       USBx_INEP(epnum)->DIEPCTL &= ~(USB_OTG_DIEPCTL_EPDIS);
1110:Drivers/STM32F7xx_HAL_Driver/Src/stm32f7xx_ll_usb.c ****     }
1111:Drivers/STM32F7xx_HAL_Driver/Src/stm32f7xx_ll_usb.c ****     USBx_INEP(epnum)->DIEPCTL |= USB_OTG_DIEPCTL_STALL;
1112:Drivers/STM32F7xx_HAL_Driver/Src/stm32f7xx_ll_usb.c ****   }
1113:Drivers/STM32F7xx_HAL_Driver/Src/stm32f7xx_ll_usb.c ****   else
1114:Drivers/STM32F7xx_HAL_Driver/Src/stm32f7xx_ll_usb.c ****   {
ARM GAS  /tmp/ccrvI8Gd.s 			page 21


1115:Drivers/STM32F7xx_HAL_Driver/Src/stm32f7xx_ll_usb.c ****     if (((USBx_OUTEP(epnum)->DOEPCTL & USB_OTG_DOEPCTL_EPENA) == 0U) && (epnum != 0U))
1116:Drivers/STM32F7xx_HAL_Driver/Src/stm32f7xx_ll_usb.c ****     {
1117:Drivers/STM32F7xx_HAL_Driver/Src/stm32f7xx_ll_usb.c ****       USBx_OUTEP(epnum)->DOEPCTL &= ~(USB_OTG_DOEPCTL_EPDIS);
1118:Drivers/STM32F7xx_HAL_Driver/Src/stm32f7xx_ll_usb.c ****     }
1119:Drivers/STM32F7xx_HAL_Driver/Src/stm32f7xx_ll_usb.c ****     USBx_OUTEP(epnum)->DOEPCTL |= USB_OTG_DOEPCTL_STALL;
1120:Drivers/STM32F7xx_HAL_Driver/Src/stm32f7xx_ll_usb.c ****   }
1121:Drivers/STM32F7xx_HAL_Driver/Src/stm32f7xx_ll_usb.c **** 
1122:Drivers/STM32F7xx_HAL_Driver/Src/stm32f7xx_ll_usb.c ****   return HAL_OK;
1123:Drivers/STM32F7xx_HAL_Driver/Src/stm32f7xx_ll_usb.c **** }
1124:Drivers/STM32F7xx_HAL_Driver/Src/stm32f7xx_ll_usb.c **** 
1125:Drivers/STM32F7xx_HAL_Driver/Src/stm32f7xx_ll_usb.c **** /**
1126:Drivers/STM32F7xx_HAL_Driver/Src/stm32f7xx_ll_usb.c ****   * @brief  USB_EPClearStall : Clear a stall condition over an EP
1127:Drivers/STM32F7xx_HAL_Driver/Src/stm32f7xx_ll_usb.c ****   * @param  USBx  Selected device
1128:Drivers/STM32F7xx_HAL_Driver/Src/stm32f7xx_ll_usb.c ****   * @param  ep pointer to endpoint structure
1129:Drivers/STM32F7xx_HAL_Driver/Src/stm32f7xx_ll_usb.c ****   * @retval HAL status
1130:Drivers/STM32F7xx_HAL_Driver/Src/stm32f7xx_ll_usb.c ****   */
1131:Drivers/STM32F7xx_HAL_Driver/Src/stm32f7xx_ll_usb.c **** HAL_StatusTypeDef USB_EPClearStall(USB_OTG_GlobalTypeDef *USBx, USB_OTG_EPTypeDef *ep)
1132:Drivers/STM32F7xx_HAL_Driver/Src/stm32f7xx_ll_usb.c **** {
1133:Drivers/STM32F7xx_HAL_Driver/Src/stm32f7xx_ll_usb.c ****   uint32_t USBx_BASE = (uint32_t)USBx;
1134:Drivers/STM32F7xx_HAL_Driver/Src/stm32f7xx_ll_usb.c ****   uint32_t epnum = (uint32_t)ep->num;
1135:Drivers/STM32F7xx_HAL_Driver/Src/stm32f7xx_ll_usb.c **** 
1136:Drivers/STM32F7xx_HAL_Driver/Src/stm32f7xx_ll_usb.c ****   if (ep->is_in == 1U)
1137:Drivers/STM32F7xx_HAL_Driver/Src/stm32f7xx_ll_usb.c ****   {
1138:Drivers/STM32F7xx_HAL_Driver/Src/stm32f7xx_ll_usb.c ****     USBx_INEP(epnum)->DIEPCTL &= ~USB_OTG_DIEPCTL_STALL;
1139:Drivers/STM32F7xx_HAL_Driver/Src/stm32f7xx_ll_usb.c ****     if ((ep->type == EP_TYPE_INTR) || (ep->type == EP_TYPE_BULK))
1140:Drivers/STM32F7xx_HAL_Driver/Src/stm32f7xx_ll_usb.c ****     {
1141:Drivers/STM32F7xx_HAL_Driver/Src/stm32f7xx_ll_usb.c ****       USBx_INEP(epnum)->DIEPCTL |= USB_OTG_DIEPCTL_SD0PID_SEVNFRM; /* DATA0 */
1142:Drivers/STM32F7xx_HAL_Driver/Src/stm32f7xx_ll_usb.c ****     }
1143:Drivers/STM32F7xx_HAL_Driver/Src/stm32f7xx_ll_usb.c ****   }
1144:Drivers/STM32F7xx_HAL_Driver/Src/stm32f7xx_ll_usb.c ****   else
1145:Drivers/STM32F7xx_HAL_Driver/Src/stm32f7xx_ll_usb.c ****   {
1146:Drivers/STM32F7xx_HAL_Driver/Src/stm32f7xx_ll_usb.c ****     USBx_OUTEP(epnum)->DOEPCTL &= ~USB_OTG_DOEPCTL_STALL;
1147:Drivers/STM32F7xx_HAL_Driver/Src/stm32f7xx_ll_usb.c ****     if ((ep->type == EP_TYPE_INTR) || (ep->type == EP_TYPE_BULK))
1148:Drivers/STM32F7xx_HAL_Driver/Src/stm32f7xx_ll_usb.c ****     {
1149:Drivers/STM32F7xx_HAL_Driver/Src/stm32f7xx_ll_usb.c ****       USBx_OUTEP(epnum)->DOEPCTL |= USB_OTG_DOEPCTL_SD0PID_SEVNFRM; /* DATA0 */
1150:Drivers/STM32F7xx_HAL_Driver/Src/stm32f7xx_ll_usb.c ****     }
1151:Drivers/STM32F7xx_HAL_Driver/Src/stm32f7xx_ll_usb.c ****   }
1152:Drivers/STM32F7xx_HAL_Driver/Src/stm32f7xx_ll_usb.c ****   return HAL_OK;
1153:Drivers/STM32F7xx_HAL_Driver/Src/stm32f7xx_ll_usb.c **** }
1154:Drivers/STM32F7xx_HAL_Driver/Src/stm32f7xx_ll_usb.c **** 
1155:Drivers/STM32F7xx_HAL_Driver/Src/stm32f7xx_ll_usb.c **** /**
1156:Drivers/STM32F7xx_HAL_Driver/Src/stm32f7xx_ll_usb.c ****   * @brief  USB_StopDevice : Stop the usb device mode
1157:Drivers/STM32F7xx_HAL_Driver/Src/stm32f7xx_ll_usb.c ****   * @param  USBx  Selected device
1158:Drivers/STM32F7xx_HAL_Driver/Src/stm32f7xx_ll_usb.c ****   * @retval HAL status
1159:Drivers/STM32F7xx_HAL_Driver/Src/stm32f7xx_ll_usb.c ****   */
1160:Drivers/STM32F7xx_HAL_Driver/Src/stm32f7xx_ll_usb.c **** HAL_StatusTypeDef USB_StopDevice(USB_OTG_GlobalTypeDef *USBx)
1161:Drivers/STM32F7xx_HAL_Driver/Src/stm32f7xx_ll_usb.c **** {
1162:Drivers/STM32F7xx_HAL_Driver/Src/stm32f7xx_ll_usb.c ****   HAL_StatusTypeDef ret;
1163:Drivers/STM32F7xx_HAL_Driver/Src/stm32f7xx_ll_usb.c ****   uint32_t USBx_BASE = (uint32_t)USBx;
1164:Drivers/STM32F7xx_HAL_Driver/Src/stm32f7xx_ll_usb.c ****   uint32_t i;
1165:Drivers/STM32F7xx_HAL_Driver/Src/stm32f7xx_ll_usb.c **** 
1166:Drivers/STM32F7xx_HAL_Driver/Src/stm32f7xx_ll_usb.c ****   /* Clear Pending interrupt */
1167:Drivers/STM32F7xx_HAL_Driver/Src/stm32f7xx_ll_usb.c ****   for (i = 0U; i < 15U; i++)
1168:Drivers/STM32F7xx_HAL_Driver/Src/stm32f7xx_ll_usb.c ****   {
1169:Drivers/STM32F7xx_HAL_Driver/Src/stm32f7xx_ll_usb.c ****     USBx_INEP(i)->DIEPINT = 0xFB7FU;
1170:Drivers/STM32F7xx_HAL_Driver/Src/stm32f7xx_ll_usb.c ****     USBx_OUTEP(i)->DOEPINT = 0xFB7FU;
1171:Drivers/STM32F7xx_HAL_Driver/Src/stm32f7xx_ll_usb.c ****   }
ARM GAS  /tmp/ccrvI8Gd.s 			page 22


1172:Drivers/STM32F7xx_HAL_Driver/Src/stm32f7xx_ll_usb.c **** 
1173:Drivers/STM32F7xx_HAL_Driver/Src/stm32f7xx_ll_usb.c ****   /* Clear interrupt masks */
1174:Drivers/STM32F7xx_HAL_Driver/Src/stm32f7xx_ll_usb.c ****   USBx_DEVICE->DIEPMSK  = 0U;
1175:Drivers/STM32F7xx_HAL_Driver/Src/stm32f7xx_ll_usb.c ****   USBx_DEVICE->DOEPMSK  = 0U;
1176:Drivers/STM32F7xx_HAL_Driver/Src/stm32f7xx_ll_usb.c ****   USBx_DEVICE->DAINTMSK = 0U;
1177:Drivers/STM32F7xx_HAL_Driver/Src/stm32f7xx_ll_usb.c **** 
1178:Drivers/STM32F7xx_HAL_Driver/Src/stm32f7xx_ll_usb.c ****   /* Flush the FIFO */
1179:Drivers/STM32F7xx_HAL_Driver/Src/stm32f7xx_ll_usb.c ****   ret = USB_FlushRxFifo(USBx);
1180:Drivers/STM32F7xx_HAL_Driver/Src/stm32f7xx_ll_usb.c ****   if (ret != HAL_OK)
1181:Drivers/STM32F7xx_HAL_Driver/Src/stm32f7xx_ll_usb.c ****   {
1182:Drivers/STM32F7xx_HAL_Driver/Src/stm32f7xx_ll_usb.c ****     return ret;
1183:Drivers/STM32F7xx_HAL_Driver/Src/stm32f7xx_ll_usb.c ****   }
1184:Drivers/STM32F7xx_HAL_Driver/Src/stm32f7xx_ll_usb.c **** 
1185:Drivers/STM32F7xx_HAL_Driver/Src/stm32f7xx_ll_usb.c ****   ret = USB_FlushTxFifo(USBx,  0x10U);
1186:Drivers/STM32F7xx_HAL_Driver/Src/stm32f7xx_ll_usb.c ****   if (ret != HAL_OK)
1187:Drivers/STM32F7xx_HAL_Driver/Src/stm32f7xx_ll_usb.c ****   {
1188:Drivers/STM32F7xx_HAL_Driver/Src/stm32f7xx_ll_usb.c ****     return ret;
1189:Drivers/STM32F7xx_HAL_Driver/Src/stm32f7xx_ll_usb.c ****   }
1190:Drivers/STM32F7xx_HAL_Driver/Src/stm32f7xx_ll_usb.c **** 
1191:Drivers/STM32F7xx_HAL_Driver/Src/stm32f7xx_ll_usb.c ****   return ret;
1192:Drivers/STM32F7xx_HAL_Driver/Src/stm32f7xx_ll_usb.c **** }
1193:Drivers/STM32F7xx_HAL_Driver/Src/stm32f7xx_ll_usb.c **** 
1194:Drivers/STM32F7xx_HAL_Driver/Src/stm32f7xx_ll_usb.c **** /**
1195:Drivers/STM32F7xx_HAL_Driver/Src/stm32f7xx_ll_usb.c ****   * @brief  USB_SetDevAddress : Stop the usb device mode
1196:Drivers/STM32F7xx_HAL_Driver/Src/stm32f7xx_ll_usb.c ****   * @param  USBx  Selected device
1197:Drivers/STM32F7xx_HAL_Driver/Src/stm32f7xx_ll_usb.c ****   * @param  address  new device address to be assigned
1198:Drivers/STM32F7xx_HAL_Driver/Src/stm32f7xx_ll_usb.c ****   *          This parameter can be a value from 0 to 255
1199:Drivers/STM32F7xx_HAL_Driver/Src/stm32f7xx_ll_usb.c ****   * @retval HAL status
1200:Drivers/STM32F7xx_HAL_Driver/Src/stm32f7xx_ll_usb.c ****   */
1201:Drivers/STM32F7xx_HAL_Driver/Src/stm32f7xx_ll_usb.c **** HAL_StatusTypeDef  USB_SetDevAddress(USB_OTG_GlobalTypeDef *USBx, uint8_t address)
1202:Drivers/STM32F7xx_HAL_Driver/Src/stm32f7xx_ll_usb.c **** {
1203:Drivers/STM32F7xx_HAL_Driver/Src/stm32f7xx_ll_usb.c ****   uint32_t USBx_BASE = (uint32_t)USBx;
1204:Drivers/STM32F7xx_HAL_Driver/Src/stm32f7xx_ll_usb.c **** 
1205:Drivers/STM32F7xx_HAL_Driver/Src/stm32f7xx_ll_usb.c ****   USBx_DEVICE->DCFG &= ~(USB_OTG_DCFG_DAD);
1206:Drivers/STM32F7xx_HAL_Driver/Src/stm32f7xx_ll_usb.c ****   USBx_DEVICE->DCFG |= ((uint32_t)address << 4) & USB_OTG_DCFG_DAD;
1207:Drivers/STM32F7xx_HAL_Driver/Src/stm32f7xx_ll_usb.c **** 
1208:Drivers/STM32F7xx_HAL_Driver/Src/stm32f7xx_ll_usb.c ****   return HAL_OK;
1209:Drivers/STM32F7xx_HAL_Driver/Src/stm32f7xx_ll_usb.c **** }
1210:Drivers/STM32F7xx_HAL_Driver/Src/stm32f7xx_ll_usb.c **** 
1211:Drivers/STM32F7xx_HAL_Driver/Src/stm32f7xx_ll_usb.c **** /**
1212:Drivers/STM32F7xx_HAL_Driver/Src/stm32f7xx_ll_usb.c ****   * @brief  USB_DevConnect : Connect the USB device by enabling Rpu
1213:Drivers/STM32F7xx_HAL_Driver/Src/stm32f7xx_ll_usb.c ****   * @param  USBx  Selected device
1214:Drivers/STM32F7xx_HAL_Driver/Src/stm32f7xx_ll_usb.c ****   * @retval HAL status
1215:Drivers/STM32F7xx_HAL_Driver/Src/stm32f7xx_ll_usb.c ****   */
1216:Drivers/STM32F7xx_HAL_Driver/Src/stm32f7xx_ll_usb.c **** HAL_StatusTypeDef  USB_DevConnect(USB_OTG_GlobalTypeDef *USBx)
1217:Drivers/STM32F7xx_HAL_Driver/Src/stm32f7xx_ll_usb.c **** {
1218:Drivers/STM32F7xx_HAL_Driver/Src/stm32f7xx_ll_usb.c ****   uint32_t USBx_BASE = (uint32_t)USBx;
1219:Drivers/STM32F7xx_HAL_Driver/Src/stm32f7xx_ll_usb.c **** 
1220:Drivers/STM32F7xx_HAL_Driver/Src/stm32f7xx_ll_usb.c ****   /* In case phy is stopped, ensure to ungate and restore the phy CLK */
1221:Drivers/STM32F7xx_HAL_Driver/Src/stm32f7xx_ll_usb.c ****   USBx_PCGCCTL &= ~(USB_OTG_PCGCCTL_STOPCLK | USB_OTG_PCGCCTL_GATECLK);
1222:Drivers/STM32F7xx_HAL_Driver/Src/stm32f7xx_ll_usb.c **** 
1223:Drivers/STM32F7xx_HAL_Driver/Src/stm32f7xx_ll_usb.c ****   USBx_DEVICE->DCTL &= ~USB_OTG_DCTL_SDIS;
1224:Drivers/STM32F7xx_HAL_Driver/Src/stm32f7xx_ll_usb.c **** 
1225:Drivers/STM32F7xx_HAL_Driver/Src/stm32f7xx_ll_usb.c ****   return HAL_OK;
1226:Drivers/STM32F7xx_HAL_Driver/Src/stm32f7xx_ll_usb.c **** }
1227:Drivers/STM32F7xx_HAL_Driver/Src/stm32f7xx_ll_usb.c **** 
1228:Drivers/STM32F7xx_HAL_Driver/Src/stm32f7xx_ll_usb.c **** /**
ARM GAS  /tmp/ccrvI8Gd.s 			page 23


1229:Drivers/STM32F7xx_HAL_Driver/Src/stm32f7xx_ll_usb.c ****   * @brief  USB_DevDisconnect : Disconnect the USB device by disabling Rpu
1230:Drivers/STM32F7xx_HAL_Driver/Src/stm32f7xx_ll_usb.c ****   * @param  USBx  Selected device
1231:Drivers/STM32F7xx_HAL_Driver/Src/stm32f7xx_ll_usb.c ****   * @retval HAL status
1232:Drivers/STM32F7xx_HAL_Driver/Src/stm32f7xx_ll_usb.c ****   */
1233:Drivers/STM32F7xx_HAL_Driver/Src/stm32f7xx_ll_usb.c **** HAL_StatusTypeDef  USB_DevDisconnect(USB_OTG_GlobalTypeDef *USBx)
1234:Drivers/STM32F7xx_HAL_Driver/Src/stm32f7xx_ll_usb.c **** {
1235:Drivers/STM32F7xx_HAL_Driver/Src/stm32f7xx_ll_usb.c ****   uint32_t USBx_BASE = (uint32_t)USBx;
1236:Drivers/STM32F7xx_HAL_Driver/Src/stm32f7xx_ll_usb.c **** 
1237:Drivers/STM32F7xx_HAL_Driver/Src/stm32f7xx_ll_usb.c ****   /* In case phy is stopped, ensure to ungate and restore the phy CLK */
1238:Drivers/STM32F7xx_HAL_Driver/Src/stm32f7xx_ll_usb.c ****   USBx_PCGCCTL &= ~(USB_OTG_PCGCCTL_STOPCLK | USB_OTG_PCGCCTL_GATECLK);
1239:Drivers/STM32F7xx_HAL_Driver/Src/stm32f7xx_ll_usb.c **** 
1240:Drivers/STM32F7xx_HAL_Driver/Src/stm32f7xx_ll_usb.c ****   USBx_DEVICE->DCTL |= USB_OTG_DCTL_SDIS;
1241:Drivers/STM32F7xx_HAL_Driver/Src/stm32f7xx_ll_usb.c **** 
1242:Drivers/STM32F7xx_HAL_Driver/Src/stm32f7xx_ll_usb.c ****   return HAL_OK;
1243:Drivers/STM32F7xx_HAL_Driver/Src/stm32f7xx_ll_usb.c **** }
1244:Drivers/STM32F7xx_HAL_Driver/Src/stm32f7xx_ll_usb.c **** 
1245:Drivers/STM32F7xx_HAL_Driver/Src/stm32f7xx_ll_usb.c **** /**
1246:Drivers/STM32F7xx_HAL_Driver/Src/stm32f7xx_ll_usb.c ****   * @brief  USB_ReadInterrupts: return the global USB interrupt status
1247:Drivers/STM32F7xx_HAL_Driver/Src/stm32f7xx_ll_usb.c ****   * @param  USBx  Selected device
1248:Drivers/STM32F7xx_HAL_Driver/Src/stm32f7xx_ll_usb.c ****   * @retval HAL status
1249:Drivers/STM32F7xx_HAL_Driver/Src/stm32f7xx_ll_usb.c ****   */
1250:Drivers/STM32F7xx_HAL_Driver/Src/stm32f7xx_ll_usb.c **** uint32_t  USB_ReadInterrupts(USB_OTG_GlobalTypeDef *USBx)
1251:Drivers/STM32F7xx_HAL_Driver/Src/stm32f7xx_ll_usb.c **** {
1252:Drivers/STM32F7xx_HAL_Driver/Src/stm32f7xx_ll_usb.c ****   uint32_t tmpreg;
1253:Drivers/STM32F7xx_HAL_Driver/Src/stm32f7xx_ll_usb.c **** 
1254:Drivers/STM32F7xx_HAL_Driver/Src/stm32f7xx_ll_usb.c ****   tmpreg = USBx->GINTSTS;
1255:Drivers/STM32F7xx_HAL_Driver/Src/stm32f7xx_ll_usb.c ****   tmpreg &= USBx->GINTMSK;
1256:Drivers/STM32F7xx_HAL_Driver/Src/stm32f7xx_ll_usb.c **** 
1257:Drivers/STM32F7xx_HAL_Driver/Src/stm32f7xx_ll_usb.c ****   return tmpreg;
1258:Drivers/STM32F7xx_HAL_Driver/Src/stm32f7xx_ll_usb.c **** }
1259:Drivers/STM32F7xx_HAL_Driver/Src/stm32f7xx_ll_usb.c **** 
1260:Drivers/STM32F7xx_HAL_Driver/Src/stm32f7xx_ll_usb.c **** /**
1261:Drivers/STM32F7xx_HAL_Driver/Src/stm32f7xx_ll_usb.c ****   * @brief  USB_ReadDevAllOutEpInterrupt: return the USB device OUT endpoints interrupt status
1262:Drivers/STM32F7xx_HAL_Driver/Src/stm32f7xx_ll_usb.c ****   * @param  USBx  Selected device
1263:Drivers/STM32F7xx_HAL_Driver/Src/stm32f7xx_ll_usb.c ****   * @retval HAL status
1264:Drivers/STM32F7xx_HAL_Driver/Src/stm32f7xx_ll_usb.c ****   */
1265:Drivers/STM32F7xx_HAL_Driver/Src/stm32f7xx_ll_usb.c **** uint32_t USB_ReadDevAllOutEpInterrupt(USB_OTG_GlobalTypeDef *USBx)
1266:Drivers/STM32F7xx_HAL_Driver/Src/stm32f7xx_ll_usb.c **** {
1267:Drivers/STM32F7xx_HAL_Driver/Src/stm32f7xx_ll_usb.c ****   uint32_t USBx_BASE = (uint32_t)USBx;
1268:Drivers/STM32F7xx_HAL_Driver/Src/stm32f7xx_ll_usb.c ****   uint32_t tmpreg;
1269:Drivers/STM32F7xx_HAL_Driver/Src/stm32f7xx_ll_usb.c **** 
1270:Drivers/STM32F7xx_HAL_Driver/Src/stm32f7xx_ll_usb.c ****   tmpreg  = USBx_DEVICE->DAINT;
1271:Drivers/STM32F7xx_HAL_Driver/Src/stm32f7xx_ll_usb.c ****   tmpreg &= USBx_DEVICE->DAINTMSK;
1272:Drivers/STM32F7xx_HAL_Driver/Src/stm32f7xx_ll_usb.c **** 
1273:Drivers/STM32F7xx_HAL_Driver/Src/stm32f7xx_ll_usb.c ****   return ((tmpreg & 0xffff0000U) >> 16);
1274:Drivers/STM32F7xx_HAL_Driver/Src/stm32f7xx_ll_usb.c **** }
1275:Drivers/STM32F7xx_HAL_Driver/Src/stm32f7xx_ll_usb.c **** 
1276:Drivers/STM32F7xx_HAL_Driver/Src/stm32f7xx_ll_usb.c **** /**
1277:Drivers/STM32F7xx_HAL_Driver/Src/stm32f7xx_ll_usb.c ****   * @brief  USB_ReadDevAllInEpInterrupt: return the USB device IN endpoints interrupt status
1278:Drivers/STM32F7xx_HAL_Driver/Src/stm32f7xx_ll_usb.c ****   * @param  USBx  Selected device
1279:Drivers/STM32F7xx_HAL_Driver/Src/stm32f7xx_ll_usb.c ****   * @retval HAL status
1280:Drivers/STM32F7xx_HAL_Driver/Src/stm32f7xx_ll_usb.c ****   */
1281:Drivers/STM32F7xx_HAL_Driver/Src/stm32f7xx_ll_usb.c **** uint32_t USB_ReadDevAllInEpInterrupt(USB_OTG_GlobalTypeDef *USBx)
1282:Drivers/STM32F7xx_HAL_Driver/Src/stm32f7xx_ll_usb.c **** {
1283:Drivers/STM32F7xx_HAL_Driver/Src/stm32f7xx_ll_usb.c ****   uint32_t USBx_BASE = (uint32_t)USBx;
1284:Drivers/STM32F7xx_HAL_Driver/Src/stm32f7xx_ll_usb.c ****   uint32_t tmpreg;
1285:Drivers/STM32F7xx_HAL_Driver/Src/stm32f7xx_ll_usb.c **** 
ARM GAS  /tmp/ccrvI8Gd.s 			page 24


1286:Drivers/STM32F7xx_HAL_Driver/Src/stm32f7xx_ll_usb.c ****   tmpreg  = USBx_DEVICE->DAINT;
1287:Drivers/STM32F7xx_HAL_Driver/Src/stm32f7xx_ll_usb.c ****   tmpreg &= USBx_DEVICE->DAINTMSK;
1288:Drivers/STM32F7xx_HAL_Driver/Src/stm32f7xx_ll_usb.c **** 
1289:Drivers/STM32F7xx_HAL_Driver/Src/stm32f7xx_ll_usb.c ****   return ((tmpreg & 0xFFFFU));
1290:Drivers/STM32F7xx_HAL_Driver/Src/stm32f7xx_ll_usb.c **** }
1291:Drivers/STM32F7xx_HAL_Driver/Src/stm32f7xx_ll_usb.c **** 
1292:Drivers/STM32F7xx_HAL_Driver/Src/stm32f7xx_ll_usb.c **** /**
1293:Drivers/STM32F7xx_HAL_Driver/Src/stm32f7xx_ll_usb.c ****   * @brief  Returns Device OUT EP Interrupt register
1294:Drivers/STM32F7xx_HAL_Driver/Src/stm32f7xx_ll_usb.c ****   * @param  USBx  Selected device
1295:Drivers/STM32F7xx_HAL_Driver/Src/stm32f7xx_ll_usb.c ****   * @param  epnum  endpoint number
1296:Drivers/STM32F7xx_HAL_Driver/Src/stm32f7xx_ll_usb.c ****   *          This parameter can be a value from 0 to 15
1297:Drivers/STM32F7xx_HAL_Driver/Src/stm32f7xx_ll_usb.c ****   * @retval Device OUT EP Interrupt register
1298:Drivers/STM32F7xx_HAL_Driver/Src/stm32f7xx_ll_usb.c ****   */
1299:Drivers/STM32F7xx_HAL_Driver/Src/stm32f7xx_ll_usb.c **** uint32_t USB_ReadDevOutEPInterrupt(USB_OTG_GlobalTypeDef *USBx, uint8_t epnum)
1300:Drivers/STM32F7xx_HAL_Driver/Src/stm32f7xx_ll_usb.c **** {
1301:Drivers/STM32F7xx_HAL_Driver/Src/stm32f7xx_ll_usb.c ****   uint32_t USBx_BASE = (uint32_t)USBx;
1302:Drivers/STM32F7xx_HAL_Driver/Src/stm32f7xx_ll_usb.c ****   uint32_t tmpreg;
1303:Drivers/STM32F7xx_HAL_Driver/Src/stm32f7xx_ll_usb.c **** 
1304:Drivers/STM32F7xx_HAL_Driver/Src/stm32f7xx_ll_usb.c ****   tmpreg  = USBx_OUTEP((uint32_t)epnum)->DOEPINT;
1305:Drivers/STM32F7xx_HAL_Driver/Src/stm32f7xx_ll_usb.c ****   tmpreg &= USBx_DEVICE->DOEPMSK;
1306:Drivers/STM32F7xx_HAL_Driver/Src/stm32f7xx_ll_usb.c **** 
1307:Drivers/STM32F7xx_HAL_Driver/Src/stm32f7xx_ll_usb.c ****   return tmpreg;
1308:Drivers/STM32F7xx_HAL_Driver/Src/stm32f7xx_ll_usb.c **** }
1309:Drivers/STM32F7xx_HAL_Driver/Src/stm32f7xx_ll_usb.c **** 
1310:Drivers/STM32F7xx_HAL_Driver/Src/stm32f7xx_ll_usb.c **** /**
1311:Drivers/STM32F7xx_HAL_Driver/Src/stm32f7xx_ll_usb.c ****   * @brief  Returns Device IN EP Interrupt register
1312:Drivers/STM32F7xx_HAL_Driver/Src/stm32f7xx_ll_usb.c ****   * @param  USBx  Selected device
1313:Drivers/STM32F7xx_HAL_Driver/Src/stm32f7xx_ll_usb.c ****   * @param  epnum  endpoint number
1314:Drivers/STM32F7xx_HAL_Driver/Src/stm32f7xx_ll_usb.c ****   *          This parameter can be a value from 0 to 15
1315:Drivers/STM32F7xx_HAL_Driver/Src/stm32f7xx_ll_usb.c ****   * @retval Device IN EP Interrupt register
1316:Drivers/STM32F7xx_HAL_Driver/Src/stm32f7xx_ll_usb.c ****   */
1317:Drivers/STM32F7xx_HAL_Driver/Src/stm32f7xx_ll_usb.c **** uint32_t USB_ReadDevInEPInterrupt(USB_OTG_GlobalTypeDef *USBx, uint8_t epnum)
1318:Drivers/STM32F7xx_HAL_Driver/Src/stm32f7xx_ll_usb.c **** {
1319:Drivers/STM32F7xx_HAL_Driver/Src/stm32f7xx_ll_usb.c ****   uint32_t USBx_BASE = (uint32_t)USBx;
1320:Drivers/STM32F7xx_HAL_Driver/Src/stm32f7xx_ll_usb.c ****   uint32_t tmpreg;
1321:Drivers/STM32F7xx_HAL_Driver/Src/stm32f7xx_ll_usb.c ****   uint32_t msk;
1322:Drivers/STM32F7xx_HAL_Driver/Src/stm32f7xx_ll_usb.c ****   uint32_t emp;
1323:Drivers/STM32F7xx_HAL_Driver/Src/stm32f7xx_ll_usb.c **** 
1324:Drivers/STM32F7xx_HAL_Driver/Src/stm32f7xx_ll_usb.c ****   msk = USBx_DEVICE->DIEPMSK;
1325:Drivers/STM32F7xx_HAL_Driver/Src/stm32f7xx_ll_usb.c ****   emp = USBx_DEVICE->DIEPEMPMSK;
1326:Drivers/STM32F7xx_HAL_Driver/Src/stm32f7xx_ll_usb.c ****   msk |= ((emp >> (epnum & EP_ADDR_MSK)) & 0x1U) << 7;
1327:Drivers/STM32F7xx_HAL_Driver/Src/stm32f7xx_ll_usb.c ****   tmpreg = USBx_INEP((uint32_t)epnum)->DIEPINT & msk;
1328:Drivers/STM32F7xx_HAL_Driver/Src/stm32f7xx_ll_usb.c **** 
1329:Drivers/STM32F7xx_HAL_Driver/Src/stm32f7xx_ll_usb.c ****   return tmpreg;
1330:Drivers/STM32F7xx_HAL_Driver/Src/stm32f7xx_ll_usb.c **** }
1331:Drivers/STM32F7xx_HAL_Driver/Src/stm32f7xx_ll_usb.c **** 
1332:Drivers/STM32F7xx_HAL_Driver/Src/stm32f7xx_ll_usb.c **** /**
1333:Drivers/STM32F7xx_HAL_Driver/Src/stm32f7xx_ll_usb.c ****   * @brief  USB_ClearInterrupts: clear a USB interrupt
1334:Drivers/STM32F7xx_HAL_Driver/Src/stm32f7xx_ll_usb.c ****   * @param  USBx  Selected device
1335:Drivers/STM32F7xx_HAL_Driver/Src/stm32f7xx_ll_usb.c ****   * @param  interrupt  flag
1336:Drivers/STM32F7xx_HAL_Driver/Src/stm32f7xx_ll_usb.c ****   * @retval None
1337:Drivers/STM32F7xx_HAL_Driver/Src/stm32f7xx_ll_usb.c ****   */
1338:Drivers/STM32F7xx_HAL_Driver/Src/stm32f7xx_ll_usb.c **** void  USB_ClearInterrupts(USB_OTG_GlobalTypeDef *USBx, uint32_t interrupt)
1339:Drivers/STM32F7xx_HAL_Driver/Src/stm32f7xx_ll_usb.c **** {
1340:Drivers/STM32F7xx_HAL_Driver/Src/stm32f7xx_ll_usb.c ****   USBx->GINTSTS |= interrupt;
1341:Drivers/STM32F7xx_HAL_Driver/Src/stm32f7xx_ll_usb.c **** }
1342:Drivers/STM32F7xx_HAL_Driver/Src/stm32f7xx_ll_usb.c **** 
ARM GAS  /tmp/ccrvI8Gd.s 			page 25


1343:Drivers/STM32F7xx_HAL_Driver/Src/stm32f7xx_ll_usb.c **** /**
1344:Drivers/STM32F7xx_HAL_Driver/Src/stm32f7xx_ll_usb.c ****   * @brief  Returns USB core mode
1345:Drivers/STM32F7xx_HAL_Driver/Src/stm32f7xx_ll_usb.c ****   * @param  USBx  Selected device
1346:Drivers/STM32F7xx_HAL_Driver/Src/stm32f7xx_ll_usb.c ****   * @retval return core mode : Host or Device
1347:Drivers/STM32F7xx_HAL_Driver/Src/stm32f7xx_ll_usb.c ****   *          This parameter can be one of these values:
1348:Drivers/STM32F7xx_HAL_Driver/Src/stm32f7xx_ll_usb.c ****   *           0 : Host
1349:Drivers/STM32F7xx_HAL_Driver/Src/stm32f7xx_ll_usb.c ****   *           1 : Device
1350:Drivers/STM32F7xx_HAL_Driver/Src/stm32f7xx_ll_usb.c ****   */
1351:Drivers/STM32F7xx_HAL_Driver/Src/stm32f7xx_ll_usb.c **** uint32_t USB_GetMode(USB_OTG_GlobalTypeDef *USBx)
1352:Drivers/STM32F7xx_HAL_Driver/Src/stm32f7xx_ll_usb.c **** {
1353:Drivers/STM32F7xx_HAL_Driver/Src/stm32f7xx_ll_usb.c ****   return ((USBx->GINTSTS) & 0x1U);
1354:Drivers/STM32F7xx_HAL_Driver/Src/stm32f7xx_ll_usb.c **** }
1355:Drivers/STM32F7xx_HAL_Driver/Src/stm32f7xx_ll_usb.c **** 
1356:Drivers/STM32F7xx_HAL_Driver/Src/stm32f7xx_ll_usb.c **** /**
1357:Drivers/STM32F7xx_HAL_Driver/Src/stm32f7xx_ll_usb.c ****   * @brief  Activate EP0 for Setup transactions
1358:Drivers/STM32F7xx_HAL_Driver/Src/stm32f7xx_ll_usb.c ****   * @param  USBx  Selected device
1359:Drivers/STM32F7xx_HAL_Driver/Src/stm32f7xx_ll_usb.c ****   * @retval HAL status
1360:Drivers/STM32F7xx_HAL_Driver/Src/stm32f7xx_ll_usb.c ****   */
1361:Drivers/STM32F7xx_HAL_Driver/Src/stm32f7xx_ll_usb.c **** HAL_StatusTypeDef  USB_ActivateSetup(USB_OTG_GlobalTypeDef *USBx)
1362:Drivers/STM32F7xx_HAL_Driver/Src/stm32f7xx_ll_usb.c **** {
1363:Drivers/STM32F7xx_HAL_Driver/Src/stm32f7xx_ll_usb.c ****   uint32_t USBx_BASE = (uint32_t)USBx;
1364:Drivers/STM32F7xx_HAL_Driver/Src/stm32f7xx_ll_usb.c **** 
1365:Drivers/STM32F7xx_HAL_Driver/Src/stm32f7xx_ll_usb.c ****   /* Set the MPS of the IN EP0 to 64 bytes */
1366:Drivers/STM32F7xx_HAL_Driver/Src/stm32f7xx_ll_usb.c ****   USBx_INEP(0U)->DIEPCTL &= ~USB_OTG_DIEPCTL_MPSIZ;
1367:Drivers/STM32F7xx_HAL_Driver/Src/stm32f7xx_ll_usb.c **** 
1368:Drivers/STM32F7xx_HAL_Driver/Src/stm32f7xx_ll_usb.c ****   USBx_DEVICE->DCTL |= USB_OTG_DCTL_CGINAK;
1369:Drivers/STM32F7xx_HAL_Driver/Src/stm32f7xx_ll_usb.c **** 
1370:Drivers/STM32F7xx_HAL_Driver/Src/stm32f7xx_ll_usb.c ****   return HAL_OK;
1371:Drivers/STM32F7xx_HAL_Driver/Src/stm32f7xx_ll_usb.c **** }
1372:Drivers/STM32F7xx_HAL_Driver/Src/stm32f7xx_ll_usb.c **** 
1373:Drivers/STM32F7xx_HAL_Driver/Src/stm32f7xx_ll_usb.c **** /**
1374:Drivers/STM32F7xx_HAL_Driver/Src/stm32f7xx_ll_usb.c ****   * @brief  Prepare the EP0 to start the first control setup
1375:Drivers/STM32F7xx_HAL_Driver/Src/stm32f7xx_ll_usb.c ****   * @param  USBx  Selected device
1376:Drivers/STM32F7xx_HAL_Driver/Src/stm32f7xx_ll_usb.c ****   * @param  dma USB dma enabled or disabled
1377:Drivers/STM32F7xx_HAL_Driver/Src/stm32f7xx_ll_usb.c ****   *          This parameter can be one of these values:
1378:Drivers/STM32F7xx_HAL_Driver/Src/stm32f7xx_ll_usb.c ****   *           0 : DMA feature not used
1379:Drivers/STM32F7xx_HAL_Driver/Src/stm32f7xx_ll_usb.c ****   *           1 : DMA feature used
1380:Drivers/STM32F7xx_HAL_Driver/Src/stm32f7xx_ll_usb.c ****   * @param  psetup  pointer to setup packet
1381:Drivers/STM32F7xx_HAL_Driver/Src/stm32f7xx_ll_usb.c ****   * @retval HAL status
1382:Drivers/STM32F7xx_HAL_Driver/Src/stm32f7xx_ll_usb.c ****   */
1383:Drivers/STM32F7xx_HAL_Driver/Src/stm32f7xx_ll_usb.c **** HAL_StatusTypeDef USB_EP0_OutStart(USB_OTG_GlobalTypeDef *USBx, uint8_t dma, uint8_t *psetup)
1384:Drivers/STM32F7xx_HAL_Driver/Src/stm32f7xx_ll_usb.c **** {
1385:Drivers/STM32F7xx_HAL_Driver/Src/stm32f7xx_ll_usb.c ****   uint32_t USBx_BASE = (uint32_t)USBx;
1386:Drivers/STM32F7xx_HAL_Driver/Src/stm32f7xx_ll_usb.c ****   uint32_t gSNPSiD = *(__IO uint32_t *)(&USBx->CID + 0x1U);
1387:Drivers/STM32F7xx_HAL_Driver/Src/stm32f7xx_ll_usb.c **** 
1388:Drivers/STM32F7xx_HAL_Driver/Src/stm32f7xx_ll_usb.c ****   if (gSNPSiD > USB_OTG_CORE_ID_300A)
1389:Drivers/STM32F7xx_HAL_Driver/Src/stm32f7xx_ll_usb.c ****   {
1390:Drivers/STM32F7xx_HAL_Driver/Src/stm32f7xx_ll_usb.c ****     if ((USBx_OUTEP(0U)->DOEPCTL & USB_OTG_DOEPCTL_EPENA) == USB_OTG_DOEPCTL_EPENA)
1391:Drivers/STM32F7xx_HAL_Driver/Src/stm32f7xx_ll_usb.c ****     {
1392:Drivers/STM32F7xx_HAL_Driver/Src/stm32f7xx_ll_usb.c ****       return HAL_OK;
1393:Drivers/STM32F7xx_HAL_Driver/Src/stm32f7xx_ll_usb.c ****     }
1394:Drivers/STM32F7xx_HAL_Driver/Src/stm32f7xx_ll_usb.c ****   }
1395:Drivers/STM32F7xx_HAL_Driver/Src/stm32f7xx_ll_usb.c **** 
1396:Drivers/STM32F7xx_HAL_Driver/Src/stm32f7xx_ll_usb.c ****   USBx_OUTEP(0U)->DOEPTSIZ = 0U;
1397:Drivers/STM32F7xx_HAL_Driver/Src/stm32f7xx_ll_usb.c ****   USBx_OUTEP(0U)->DOEPTSIZ |= (USB_OTG_DOEPTSIZ_PKTCNT & (1U << 19));
1398:Drivers/STM32F7xx_HAL_Driver/Src/stm32f7xx_ll_usb.c ****   USBx_OUTEP(0U)->DOEPTSIZ |= (3U * 8U);
1399:Drivers/STM32F7xx_HAL_Driver/Src/stm32f7xx_ll_usb.c ****   USBx_OUTEP(0U)->DOEPTSIZ |=  USB_OTG_DOEPTSIZ_STUPCNT;
ARM GAS  /tmp/ccrvI8Gd.s 			page 26


1400:Drivers/STM32F7xx_HAL_Driver/Src/stm32f7xx_ll_usb.c **** 
1401:Drivers/STM32F7xx_HAL_Driver/Src/stm32f7xx_ll_usb.c ****   if (dma == 1U)
1402:Drivers/STM32F7xx_HAL_Driver/Src/stm32f7xx_ll_usb.c ****   {
1403:Drivers/STM32F7xx_HAL_Driver/Src/stm32f7xx_ll_usb.c ****     USBx_OUTEP(0U)->DOEPDMA = (uint32_t)psetup;
1404:Drivers/STM32F7xx_HAL_Driver/Src/stm32f7xx_ll_usb.c ****     /* EP enable */
1405:Drivers/STM32F7xx_HAL_Driver/Src/stm32f7xx_ll_usb.c ****     USBx_OUTEP(0U)->DOEPCTL |= USB_OTG_DOEPCTL_EPENA | USB_OTG_DOEPCTL_USBAEP;
1406:Drivers/STM32F7xx_HAL_Driver/Src/stm32f7xx_ll_usb.c ****   }
1407:Drivers/STM32F7xx_HAL_Driver/Src/stm32f7xx_ll_usb.c **** 
1408:Drivers/STM32F7xx_HAL_Driver/Src/stm32f7xx_ll_usb.c ****   return HAL_OK;
1409:Drivers/STM32F7xx_HAL_Driver/Src/stm32f7xx_ll_usb.c **** }
1410:Drivers/STM32F7xx_HAL_Driver/Src/stm32f7xx_ll_usb.c **** 
1411:Drivers/STM32F7xx_HAL_Driver/Src/stm32f7xx_ll_usb.c **** /**
1412:Drivers/STM32F7xx_HAL_Driver/Src/stm32f7xx_ll_usb.c ****   * @brief  Reset the USB Core (needed after USB clock settings change)
1413:Drivers/STM32F7xx_HAL_Driver/Src/stm32f7xx_ll_usb.c ****   * @param  USBx  Selected device
1414:Drivers/STM32F7xx_HAL_Driver/Src/stm32f7xx_ll_usb.c ****   * @retval HAL status
1415:Drivers/STM32F7xx_HAL_Driver/Src/stm32f7xx_ll_usb.c ****   */
1416:Drivers/STM32F7xx_HAL_Driver/Src/stm32f7xx_ll_usb.c **** static HAL_StatusTypeDef USB_CoreReset(USB_OTG_GlobalTypeDef *USBx)
1417:Drivers/STM32F7xx_HAL_Driver/Src/stm32f7xx_ll_usb.c **** {
  28              		.loc 1 1417 1 view -0
  29              		.cfi_startproc
  30              		@ args = 0, pretend = 0, frame = 8
  31              		@ frame_needed = 0, uses_anonymous_args = 0
  32              		@ link register save eliminated.
  33              		.loc 1 1417 1 is_stmt 0 view .LVU1
  34 0000 82B0     		sub	sp, sp, #8
  35              	.LCFI0:
  36              		.cfi_def_cfa_offset 8
1418:Drivers/STM32F7xx_HAL_Driver/Src/stm32f7xx_ll_usb.c ****   __IO uint32_t count = 0U;
  37              		.loc 1 1418 3 is_stmt 1 view .LVU2
  38              		.loc 1 1418 17 is_stmt 0 view .LVU3
  39 0002 0023     		movs	r3, #0
  40 0004 0193     		str	r3, [sp, #4]
  41              	.L3:
1419:Drivers/STM32F7xx_HAL_Driver/Src/stm32f7xx_ll_usb.c **** 
1420:Drivers/STM32F7xx_HAL_Driver/Src/stm32f7xx_ll_usb.c ****   /* Wait for AHB master IDLE state. */
1421:Drivers/STM32F7xx_HAL_Driver/Src/stm32f7xx_ll_usb.c ****   do
  42              		.loc 1 1421 3 is_stmt 1 view .LVU4
1422:Drivers/STM32F7xx_HAL_Driver/Src/stm32f7xx_ll_usb.c ****   {
1423:Drivers/STM32F7xx_HAL_Driver/Src/stm32f7xx_ll_usb.c ****     if (++count > 200000U)
  43              		.loc 1 1423 5 view .LVU5
  44              		.loc 1 1423 9 is_stmt 0 view .LVU6
  45 0006 019B     		ldr	r3, [sp, #4]
  46 0008 0133     		adds	r3, r3, #1
  47              		.loc 1 1423 8 view .LVU7
  48 000a 0193     		str	r3, [sp, #4]
  49 000c 0E4A     		ldr	r2, .L8
  50 000e 9342     		cmp	r3, r2
  51 0010 14D8     		bhi	.L5
1424:Drivers/STM32F7xx_HAL_Driver/Src/stm32f7xx_ll_usb.c ****     {
1425:Drivers/STM32F7xx_HAL_Driver/Src/stm32f7xx_ll_usb.c ****       return HAL_TIMEOUT;
1426:Drivers/STM32F7xx_HAL_Driver/Src/stm32f7xx_ll_usb.c ****     }
1427:Drivers/STM32F7xx_HAL_Driver/Src/stm32f7xx_ll_usb.c ****   } while ((USBx->GRSTCTL & USB_OTG_GRSTCTL_AHBIDL) == 0U);
  52              		.loc 1 1427 11 is_stmt 1 view .LVU8
  53              		.loc 1 1427 17 is_stmt 0 view .LVU9
  54 0012 0369     		ldr	r3, [r0, #16]
  55              		.loc 1 1427 3 view .LVU10
  56 0014 002B     		cmp	r3, #0
ARM GAS  /tmp/ccrvI8Gd.s 			page 27


  57 0016 F6DA     		bge	.L3
1428:Drivers/STM32F7xx_HAL_Driver/Src/stm32f7xx_ll_usb.c **** 
1429:Drivers/STM32F7xx_HAL_Driver/Src/stm32f7xx_ll_usb.c ****   /* Core Soft Reset */
1430:Drivers/STM32F7xx_HAL_Driver/Src/stm32f7xx_ll_usb.c ****   count = 0U;
  58              		.loc 1 1430 3 is_stmt 1 view .LVU11
  59              		.loc 1 1430 9 is_stmt 0 view .LVU12
  60 0018 0023     		movs	r3, #0
  61 001a 0193     		str	r3, [sp, #4]
1431:Drivers/STM32F7xx_HAL_Driver/Src/stm32f7xx_ll_usb.c ****   USBx->GRSTCTL |= USB_OTG_GRSTCTL_CSRST;
  62              		.loc 1 1431 3 is_stmt 1 view .LVU13
  63              		.loc 1 1431 17 is_stmt 0 view .LVU14
  64 001c 0369     		ldr	r3, [r0, #16]
  65 001e 43F00103 		orr	r3, r3, #1
  66 0022 0361     		str	r3, [r0, #16]
  67              	.L4:
1432:Drivers/STM32F7xx_HAL_Driver/Src/stm32f7xx_ll_usb.c **** 
1433:Drivers/STM32F7xx_HAL_Driver/Src/stm32f7xx_ll_usb.c ****   do
  68              		.loc 1 1433 3 is_stmt 1 view .LVU15
1434:Drivers/STM32F7xx_HAL_Driver/Src/stm32f7xx_ll_usb.c ****   {
1435:Drivers/STM32F7xx_HAL_Driver/Src/stm32f7xx_ll_usb.c ****     if (++count > 200000U)
  69              		.loc 1 1435 5 view .LVU16
  70              		.loc 1 1435 9 is_stmt 0 view .LVU17
  71 0024 019B     		ldr	r3, [sp, #4]
  72 0026 0133     		adds	r3, r3, #1
  73              		.loc 1 1435 8 view .LVU18
  74 0028 0193     		str	r3, [sp, #4]
  75 002a 074A     		ldr	r2, .L8
  76 002c 9342     		cmp	r3, r2
  77 002e 08D8     		bhi	.L6
1436:Drivers/STM32F7xx_HAL_Driver/Src/stm32f7xx_ll_usb.c ****     {
1437:Drivers/STM32F7xx_HAL_Driver/Src/stm32f7xx_ll_usb.c ****       return HAL_TIMEOUT;
1438:Drivers/STM32F7xx_HAL_Driver/Src/stm32f7xx_ll_usb.c ****     }
1439:Drivers/STM32F7xx_HAL_Driver/Src/stm32f7xx_ll_usb.c ****   } while ((USBx->GRSTCTL & USB_OTG_GRSTCTL_CSRST) == USB_OTG_GRSTCTL_CSRST);
  78              		.loc 1 1439 11 is_stmt 1 view .LVU19
  79              		.loc 1 1439 17 is_stmt 0 view .LVU20
  80 0030 0369     		ldr	r3, [r0, #16]
  81              		.loc 1 1439 3 view .LVU21
  82 0032 13F0010F 		tst	r3, #1
  83 0036 F5D1     		bne	.L4
1440:Drivers/STM32F7xx_HAL_Driver/Src/stm32f7xx_ll_usb.c **** 
1441:Drivers/STM32F7xx_HAL_Driver/Src/stm32f7xx_ll_usb.c ****   return HAL_OK;
  84              		.loc 1 1441 10 view .LVU22
  85 0038 0020     		movs	r0, #0
  86              	.LVL1:
  87              		.loc 1 1441 10 view .LVU23
  88 003a 00E0     		b	.L2
  89              	.LVL2:
  90              	.L5:
1425:Drivers/STM32F7xx_HAL_Driver/Src/stm32f7xx_ll_usb.c ****     }
  91              		.loc 1 1425 14 view .LVU24
  92 003c 0320     		movs	r0, #3
  93              	.LVL3:
  94              	.L2:
1442:Drivers/STM32F7xx_HAL_Driver/Src/stm32f7xx_ll_usb.c **** }
  95              		.loc 1 1442 1 view .LVU25
  96 003e 02B0     		add	sp, sp, #8
  97              	.LCFI1:
ARM GAS  /tmp/ccrvI8Gd.s 			page 28


  98              		.cfi_remember_state
  99              		.cfi_def_cfa_offset 0
 100              		@ sp needed
 101 0040 7047     		bx	lr
 102              	.LVL4:
 103              	.L6:
 104              	.LCFI2:
 105              		.cfi_restore_state
1437:Drivers/STM32F7xx_HAL_Driver/Src/stm32f7xx_ll_usb.c ****     }
 106              		.loc 1 1437 14 view .LVU26
 107 0042 0320     		movs	r0, #3
 108              	.LVL5:
1437:Drivers/STM32F7xx_HAL_Driver/Src/stm32f7xx_ll_usb.c ****     }
 109              		.loc 1 1437 14 view .LVU27
 110 0044 FBE7     		b	.L2
 111              	.L9:
 112 0046 00BF     		.align	2
 113              	.L8:
 114 0048 400D0300 		.word	200000
 115              		.cfi_endproc
 116              	.LFE174:
 118              		.section	.text.USB_CoreInit,"ax",%progbits
 119              		.align	1
 120              		.global	USB_CoreInit
 121              		.syntax unified
 122              		.thumb
 123              		.thumb_func
 124              		.fpu fpv5-d16
 126              	USB_CoreInit:
 127              	.LVL6:
 128              	.LFB141:
  87:Drivers/STM32F7xx_HAL_Driver/Src/stm32f7xx_ll_usb.c ****   HAL_StatusTypeDef ret;
 129              		.loc 1 87 1 is_stmt 1 view -0
 130              		.cfi_startproc
 131              		@ args = 56, pretend = 16, frame = 0
 132              		@ frame_needed = 0, uses_anonymous_args = 0
  87:Drivers/STM32F7xx_HAL_Driver/Src/stm32f7xx_ll_usb.c ****   HAL_StatusTypeDef ret;
 133              		.loc 1 87 1 is_stmt 0 view .LVU29
 134 0000 84B0     		sub	sp, sp, #16
 135              	.LCFI3:
 136              		.cfi_def_cfa_offset 16
 137 0002 10B5     		push	{r4, lr}
 138              	.LCFI4:
 139              		.cfi_def_cfa_offset 24
 140              		.cfi_offset 4, -24
 141              		.cfi_offset 14, -20
 142 0004 0446     		mov	r4, r0
 143 0006 03A8     		add	r0, sp, #12
 144              	.LVL7:
  87:Drivers/STM32F7xx_HAL_Driver/Src/stm32f7xx_ll_usb.c ****   HAL_StatusTypeDef ret;
 145              		.loc 1 87 1 view .LVU30
 146 0008 80E80E00 		stm	r0, {r1, r2, r3}
  88:Drivers/STM32F7xx_HAL_Driver/Src/stm32f7xx_ll_usb.c **** 
 147              		.loc 1 88 3 is_stmt 1 view .LVU31
  90:Drivers/STM32F7xx_HAL_Driver/Src/stm32f7xx_ll_usb.c ****   {
 148              		.loc 1 90 3 view .LVU32
  90:Drivers/STM32F7xx_HAL_Driver/Src/stm32f7xx_ll_usb.c ****   {
ARM GAS  /tmp/ccrvI8Gd.s 			page 29


 149              		.loc 1 90 10 is_stmt 0 view .LVU33
 150 000c 089B     		ldr	r3, [sp, #32]
  90:Drivers/STM32F7xx_HAL_Driver/Src/stm32f7xx_ll_usb.c ****   {
 151              		.loc 1 90 6 view .LVU34
 152 000e 012B     		cmp	r3, #1
 153 0010 1DD1     		bne	.L11
  92:Drivers/STM32F7xx_HAL_Driver/Src/stm32f7xx_ll_usb.c **** 
 154              		.loc 1 92 5 is_stmt 1 view .LVU35
  92:Drivers/STM32F7xx_HAL_Driver/Src/stm32f7xx_ll_usb.c **** 
 155              		.loc 1 92 17 is_stmt 0 view .LVU36
 156 0012 A36B     		ldr	r3, [r4, #56]
 157 0014 23F48033 		bic	r3, r3, #65536
 158 0018 A363     		str	r3, [r4, #56]
  95:Drivers/STM32F7xx_HAL_Driver/Src/stm32f7xx_ll_usb.c **** 
 159              		.loc 1 95 5 is_stmt 1 view .LVU37
  95:Drivers/STM32F7xx_HAL_Driver/Src/stm32f7xx_ll_usb.c **** 
 160              		.loc 1 95 19 is_stmt 0 view .LVU38
 161 001a E268     		ldr	r2, [r4, #12]
 162 001c 164B     		ldr	r3, .L18
 163 001e 1340     		ands	r3, r3, r2
 164 0020 E360     		str	r3, [r4, #12]
 103:Drivers/STM32F7xx_HAL_Driver/Src/stm32f7xx_ll_usb.c ****     if (cfg.use_external_vbus == 1U)
 165              		.loc 1 103 5 is_stmt 1 view .LVU39
 103:Drivers/STM32F7xx_HAL_Driver/Src/stm32f7xx_ll_usb.c ****     if (cfg.use_external_vbus == 1U)
 166              		.loc 1 103 19 is_stmt 0 view .LVU40
 167 0022 E368     		ldr	r3, [r4, #12]
 168 0024 23F44013 		bic	r3, r3, #3145728
 169 0028 E360     		str	r3, [r4, #12]
 104:Drivers/STM32F7xx_HAL_Driver/Src/stm32f7xx_ll_usb.c ****     {
 170              		.loc 1 104 5 is_stmt 1 view .LVU41
 104:Drivers/STM32F7xx_HAL_Driver/Src/stm32f7xx_ll_usb.c ****     {
 171              		.loc 1 104 12 is_stmt 0 view .LVU42
 172 002a 0F9B     		ldr	r3, [sp, #60]
 104:Drivers/STM32F7xx_HAL_Driver/Src/stm32f7xx_ll_usb.c ****     {
 173              		.loc 1 104 8 view .LVU43
 174 002c 012B     		cmp	r3, #1
 175 002e 09D0     		beq	.L16
 176              	.L12:
 110:Drivers/STM32F7xx_HAL_Driver/Src/stm32f7xx_ll_usb.c ****   }
 177              		.loc 1 110 5 is_stmt 1 view .LVU44
 110:Drivers/STM32F7xx_HAL_Driver/Src/stm32f7xx_ll_usb.c ****   }
 178              		.loc 1 110 11 is_stmt 0 view .LVU45
 179 0030 2046     		mov	r0, r4
 180 0032 FFF7FEFF 		bl	USB_CoreReset
 181              	.LVL8:
 182              	.L13:
 157:Drivers/STM32F7xx_HAL_Driver/Src/stm32f7xx_ll_usb.c ****   {
 183              		.loc 1 157 3 is_stmt 1 view .LVU46
 157:Drivers/STM32F7xx_HAL_Driver/Src/stm32f7xx_ll_usb.c ****   {
 184              		.loc 1 157 10 is_stmt 0 view .LVU47
 185 0036 069B     		ldr	r3, [sp, #24]
 157:Drivers/STM32F7xx_HAL_Driver/Src/stm32f7xx_ll_usb.c ****   {
 186              		.loc 1 157 6 view .LVU48
 187 0038 012B     		cmp	r3, #1
 188 003a 14D0     		beq	.L17
 189              	.L14:
 163:Drivers/STM32F7xx_HAL_Driver/Src/stm32f7xx_ll_usb.c **** }
ARM GAS  /tmp/ccrvI8Gd.s 			page 30


 190              		.loc 1 163 3 is_stmt 1 view .LVU49
 164:Drivers/STM32F7xx_HAL_Driver/Src/stm32f7xx_ll_usb.c **** 
 191              		.loc 1 164 1 is_stmt 0 view .LVU50
 192 003c BDE81040 		pop	{r4, lr}
 193              	.LCFI5:
 194              		.cfi_remember_state
 195              		.cfi_restore 14
 196              		.cfi_restore 4
 197              		.cfi_def_cfa_offset 16
 198              	.LVL9:
 164:Drivers/STM32F7xx_HAL_Driver/Src/stm32f7xx_ll_usb.c **** 
 199              		.loc 1 164 1 view .LVU51
 200 0040 04B0     		add	sp, sp, #16
 201              	.LCFI6:
 202              		.cfi_def_cfa_offset 0
 203 0042 7047     		bx	lr
 204              	.LVL10:
 205              	.L16:
 206              	.LCFI7:
 207              		.cfi_restore_state
 106:Drivers/STM32F7xx_HAL_Driver/Src/stm32f7xx_ll_usb.c ****     }
 208              		.loc 1 106 7 is_stmt 1 view .LVU52
 106:Drivers/STM32F7xx_HAL_Driver/Src/stm32f7xx_ll_usb.c ****     }
 209              		.loc 1 106 21 is_stmt 0 view .LVU53
 210 0044 E368     		ldr	r3, [r4, #12]
 211 0046 43F48013 		orr	r3, r3, #1048576
 212 004a E360     		str	r3, [r4, #12]
 213 004c F0E7     		b	.L12
 214              	.L11:
 148:Drivers/STM32F7xx_HAL_Driver/Src/stm32f7xx_ll_usb.c **** 
 215              		.loc 1 148 5 is_stmt 1 view .LVU54
 148:Drivers/STM32F7xx_HAL_Driver/Src/stm32f7xx_ll_usb.c **** 
 216              		.loc 1 148 19 is_stmt 0 view .LVU55
 217 004e E368     		ldr	r3, [r4, #12]
 218 0050 43F04003 		orr	r3, r3, #64
 219 0054 E360     		str	r3, [r4, #12]
 151:Drivers/STM32F7xx_HAL_Driver/Src/stm32f7xx_ll_usb.c **** 
 220              		.loc 1 151 5 is_stmt 1 view .LVU56
 151:Drivers/STM32F7xx_HAL_Driver/Src/stm32f7xx_ll_usb.c **** 
 221              		.loc 1 151 11 is_stmt 0 view .LVU57
 222 0056 2046     		mov	r0, r4
 223 0058 FFF7FEFF 		bl	USB_CoreReset
 224              	.LVL11:
 154:Drivers/STM32F7xx_HAL_Driver/Src/stm32f7xx_ll_usb.c ****   }
 225              		.loc 1 154 5 is_stmt 1 view .LVU58
 154:Drivers/STM32F7xx_HAL_Driver/Src/stm32f7xx_ll_usb.c ****   }
 226              		.loc 1 154 17 is_stmt 0 view .LVU59
 227 005c A36B     		ldr	r3, [r4, #56]
 228 005e 43F48033 		orr	r3, r3, #65536
 229 0062 A363     		str	r3, [r4, #56]
 230 0064 E7E7     		b	.L13
 231              	.L17:
 159:Drivers/STM32F7xx_HAL_Driver/Src/stm32f7xx_ll_usb.c ****     USBx->GAHBCFG |= USB_OTG_GAHBCFG_DMAEN;
 232              		.loc 1 159 5 is_stmt 1 view .LVU60
 159:Drivers/STM32F7xx_HAL_Driver/Src/stm32f7xx_ll_usb.c ****     USBx->GAHBCFG |= USB_OTG_GAHBCFG_DMAEN;
 233              		.loc 1 159 19 is_stmt 0 view .LVU61
 234 0066 A368     		ldr	r3, [r4, #8]
ARM GAS  /tmp/ccrvI8Gd.s 			page 31


 235 0068 43F00603 		orr	r3, r3, #6
 236 006c A360     		str	r3, [r4, #8]
 160:Drivers/STM32F7xx_HAL_Driver/Src/stm32f7xx_ll_usb.c ****   }
 237              		.loc 1 160 5 is_stmt 1 view .LVU62
 160:Drivers/STM32F7xx_HAL_Driver/Src/stm32f7xx_ll_usb.c ****   }
 238              		.loc 1 160 19 is_stmt 0 view .LVU63
 239 006e A368     		ldr	r3, [r4, #8]
 240 0070 43F02003 		orr	r3, r3, #32
 241 0074 A360     		str	r3, [r4, #8]
 242 0076 E1E7     		b	.L14
 243              	.L19:
 244              		.align	2
 245              	.L18:
 246 0078 BFFFBDFF 		.word	-4325441
 247              		.cfi_endproc
 248              	.LFE141:
 250              		.section	.text.USB_SetTurnaroundTime,"ax",%progbits
 251              		.align	1
 252              		.global	USB_SetTurnaroundTime
 253              		.syntax unified
 254              		.thumb
 255              		.thumb_func
 256              		.fpu fpv5-d16
 258              	USB_SetTurnaroundTime:
 259              	.LVL12:
 260              	.LFB142:
 175:Drivers/STM32F7xx_HAL_Driver/Src/stm32f7xx_ll_usb.c ****   uint32_t UsbTrd;
 261              		.loc 1 175 1 is_stmt 1 view -0
 262              		.cfi_startproc
 263              		@ args = 0, pretend = 0, frame = 0
 264              		@ frame_needed = 0, uses_anonymous_args = 0
 265              		@ link register save eliminated.
 176:Drivers/STM32F7xx_HAL_Driver/Src/stm32f7xx_ll_usb.c **** 
 266              		.loc 1 176 3 view .LVU65
 182:Drivers/STM32F7xx_HAL_Driver/Src/stm32f7xx_ll_usb.c ****   {
 267              		.loc 1 182 3 view .LVU66
 182:Drivers/STM32F7xx_HAL_Driver/Src/stm32f7xx_ll_usb.c ****   {
 268              		.loc 1 182 6 is_stmt 0 view .LVU67
 269 0000 022A     		cmp	r2, #2
 270 0002 0AD0     		beq	.L32
 237:Drivers/STM32F7xx_HAL_Driver/Src/stm32f7xx_ll_usb.c ****   }
 271              		.loc 1 237 12 view .LVU68
 272 0004 0921     		movs	r1, #9
 273              	.LVL13:
 274              	.L21:
 244:Drivers/STM32F7xx_HAL_Driver/Src/stm32f7xx_ll_usb.c ****   USBx->GUSBCFG |= (uint32_t)((UsbTrd << 10) & USB_OTG_GUSBCFG_TRDT);
 275              		.loc 1 244 3 is_stmt 1 view .LVU69
 244:Drivers/STM32F7xx_HAL_Driver/Src/stm32f7xx_ll_usb.c ****   USBx->GUSBCFG |= (uint32_t)((UsbTrd << 10) & USB_OTG_GUSBCFG_TRDT);
 276              		.loc 1 244 17 is_stmt 0 view .LVU70
 277 0006 C268     		ldr	r2, [r0, #12]
 278 0008 22F47052 		bic	r2, r2, #15360
 279 000c C260     		str	r2, [r0, #12]
 245:Drivers/STM32F7xx_HAL_Driver/Src/stm32f7xx_ll_usb.c **** 
 280              		.loc 1 245 3 is_stmt 1 view .LVU71
 245:Drivers/STM32F7xx_HAL_Driver/Src/stm32f7xx_ll_usb.c **** 
 281              		.loc 1 245 17 is_stmt 0 view .LVU72
 282 000e C368     		ldr	r3, [r0, #12]
ARM GAS  /tmp/ccrvI8Gd.s 			page 32


 283 0010 43EA8123 		orr	r3, r3, r1, lsl #10
 284 0014 C360     		str	r3, [r0, #12]
 247:Drivers/STM32F7xx_HAL_Driver/Src/stm32f7xx_ll_usb.c **** }
 285              		.loc 1 247 3 is_stmt 1 view .LVU73
 248:Drivers/STM32F7xx_HAL_Driver/Src/stm32f7xx_ll_usb.c **** 
 286              		.loc 1 248 1 is_stmt 0 view .LVU74
 287 0016 0020     		movs	r0, #0
 288              	.LVL14:
 248:Drivers/STM32F7xx_HAL_Driver/Src/stm32f7xx_ll_usb.c **** 
 289              		.loc 1 248 1 view .LVU75
 290 0018 7047     		bx	lr
 291              	.LVL15:
 292              	.L32:
 184:Drivers/STM32F7xx_HAL_Driver/Src/stm32f7xx_ll_usb.c ****     {
 293              		.loc 1 184 5 is_stmt 1 view .LVU76
 184:Drivers/STM32F7xx_HAL_Driver/Src/stm32f7xx_ll_usb.c ****     {
 294              		.loc 1 184 29 is_stmt 0 view .LVU77
 295 001a 204B     		ldr	r3, .L33
 296 001c 0B44     		add	r3, r3, r1
 184:Drivers/STM32F7xx_HAL_Driver/Src/stm32f7xx_ll_usb.c ****     {
 297              		.loc 1 184 8 view .LVU78
 298 001e 204A     		ldr	r2, .L33+4
 299              	.LVL16:
 184:Drivers/STM32F7xx_HAL_Driver/Src/stm32f7xx_ll_usb.c ****     {
 300              		.loc 1 184 8 view .LVU79
 301 0020 9342     		cmp	r3, r2
 302 0022 29D9     		bls	.L23
 189:Drivers/STM32F7xx_HAL_Driver/Src/stm32f7xx_ll_usb.c ****     {
 303              		.loc 1 189 10 is_stmt 1 view .LVU80
 189:Drivers/STM32F7xx_HAL_Driver/Src/stm32f7xx_ll_usb.c ****     {
 304              		.loc 1 189 34 is_stmt 0 view .LVU81
 305 0024 1F4B     		ldr	r3, .L33+8
 306 0026 0B44     		add	r3, r3, r1
 189:Drivers/STM32F7xx_HAL_Driver/Src/stm32f7xx_ll_usb.c ****     {
 307              		.loc 1 189 13 view .LVU82
 308 0028 1F4A     		ldr	r2, .L33+12
 309 002a 9342     		cmp	r3, r2
 310 002c 26D9     		bls	.L24
 194:Drivers/STM32F7xx_HAL_Driver/Src/stm32f7xx_ll_usb.c ****     {
 311              		.loc 1 194 10 is_stmt 1 view .LVU83
 194:Drivers/STM32F7xx_HAL_Driver/Src/stm32f7xx_ll_usb.c ****     {
 312              		.loc 1 194 34 is_stmt 0 view .LVU84
 313 002e 1F4B     		ldr	r3, .L33+16
 314 0030 0B44     		add	r3, r3, r1
 194:Drivers/STM32F7xx_HAL_Driver/Src/stm32f7xx_ll_usb.c ****     {
 315              		.loc 1 194 13 view .LVU85
 316 0032 1F4A     		ldr	r2, .L33+20
 317 0034 9342     		cmp	r3, r2
 318 0036 23D9     		bls	.L25
 199:Drivers/STM32F7xx_HAL_Driver/Src/stm32f7xx_ll_usb.c ****     {
 319              		.loc 1 199 10 is_stmt 1 view .LVU86
 199:Drivers/STM32F7xx_HAL_Driver/Src/stm32f7xx_ll_usb.c ****     {
 320              		.loc 1 199 34 is_stmt 0 view .LVU87
 321 0038 1E4B     		ldr	r3, .L33+24
 322 003a 0B44     		add	r3, r3, r1
 199:Drivers/STM32F7xx_HAL_Driver/Src/stm32f7xx_ll_usb.c ****     {
 323              		.loc 1 199 13 view .LVU88
ARM GAS  /tmp/ccrvI8Gd.s 			page 33


 324 003c 1E4A     		ldr	r2, .L33+28
 325 003e 9342     		cmp	r3, r2
 326 0040 20D3     		bcc	.L26
 204:Drivers/STM32F7xx_HAL_Driver/Src/stm32f7xx_ll_usb.c ****     {
 327              		.loc 1 204 10 is_stmt 1 view .LVU89
 204:Drivers/STM32F7xx_HAL_Driver/Src/stm32f7xx_ll_usb.c ****     {
 328              		.loc 1 204 34 is_stmt 0 view .LVU90
 329 0042 1E4B     		ldr	r3, .L33+32
 330 0044 0B44     		add	r3, r3, r1
 204:Drivers/STM32F7xx_HAL_Driver/Src/stm32f7xx_ll_usb.c ****     {
 331              		.loc 1 204 13 view .LVU91
 332 0046 1E4A     		ldr	r2, .L33+36
 333 0048 9342     		cmp	r3, r2
 334 004a 1DD9     		bls	.L27
 209:Drivers/STM32F7xx_HAL_Driver/Src/stm32f7xx_ll_usb.c ****     {
 335              		.loc 1 209 10 is_stmt 1 view .LVU92
 209:Drivers/STM32F7xx_HAL_Driver/Src/stm32f7xx_ll_usb.c ****     {
 336              		.loc 1 209 34 is_stmt 0 view .LVU93
 337 004c 1D4B     		ldr	r3, .L33+40
 338 004e 0B44     		add	r3, r3, r1
 209:Drivers/STM32F7xx_HAL_Driver/Src/stm32f7xx_ll_usb.c ****     {
 339              		.loc 1 209 13 view .LVU94
 340 0050 1D4A     		ldr	r2, .L33+44
 341 0052 9342     		cmp	r3, r2
 342 0054 1AD3     		bcc	.L28
 214:Drivers/STM32F7xx_HAL_Driver/Src/stm32f7xx_ll_usb.c ****     {
 343              		.loc 1 214 10 is_stmt 1 view .LVU95
 214:Drivers/STM32F7xx_HAL_Driver/Src/stm32f7xx_ll_usb.c ****     {
 344              		.loc 1 214 34 is_stmt 0 view .LVU96
 345 0056 1D4B     		ldr	r3, .L33+48
 346 0058 0B44     		add	r3, r3, r1
 214:Drivers/STM32F7xx_HAL_Driver/Src/stm32f7xx_ll_usb.c ****     {
 347              		.loc 1 214 13 view .LVU97
 348 005a 1D4A     		ldr	r2, .L33+52
 349 005c 9342     		cmp	r3, r2
 350 005e 17D3     		bcc	.L29
 219:Drivers/STM32F7xx_HAL_Driver/Src/stm32f7xx_ll_usb.c ****     {
 351              		.loc 1 219 10 is_stmt 1 view .LVU98
 219:Drivers/STM32F7xx_HAL_Driver/Src/stm32f7xx_ll_usb.c ****     {
 352              		.loc 1 219 34 is_stmt 0 view .LVU99
 353 0060 1C4B     		ldr	r3, .L33+56
 354 0062 0B44     		add	r3, r3, r1
 219:Drivers/STM32F7xx_HAL_Driver/Src/stm32f7xx_ll_usb.c ****     {
 355              		.loc 1 219 13 view .LVU100
 356 0064 1C4A     		ldr	r2, .L33+60
 357 0066 9342     		cmp	r3, r2
 358 0068 14D3     		bcc	.L30
 224:Drivers/STM32F7xx_HAL_Driver/Src/stm32f7xx_ll_usb.c ****     {
 359              		.loc 1 224 10 is_stmt 1 view .LVU101
 224:Drivers/STM32F7xx_HAL_Driver/Src/stm32f7xx_ll_usb.c ****     {
 360              		.loc 1 224 34 is_stmt 0 view .LVU102
 361 006a 1C4B     		ldr	r3, .L33+64
 362 006c 0B44     		add	r3, r3, r1
 224:Drivers/STM32F7xx_HAL_Driver/Src/stm32f7xx_ll_usb.c ****     {
 363              		.loc 1 224 13 view .LVU103
 364 006e 1C4A     		ldr	r2, .L33+68
 365 0070 9342     		cmp	r3, r2
ARM GAS  /tmp/ccrvI8Gd.s 			page 34


 366 0072 11D2     		bcs	.L31
 227:Drivers/STM32F7xx_HAL_Driver/Src/stm32f7xx_ll_usb.c ****     }
 367              		.loc 1 227 14 view .LVU104
 368 0074 0721     		movs	r1, #7
 369              	.LVL17:
 227:Drivers/STM32F7xx_HAL_Driver/Src/stm32f7xx_ll_usb.c ****     }
 370              		.loc 1 227 14 view .LVU105
 371 0076 C6E7     		b	.L21
 372              	.LVL18:
 373              	.L23:
 187:Drivers/STM32F7xx_HAL_Driver/Src/stm32f7xx_ll_usb.c ****     }
 374              		.loc 1 187 14 view .LVU106
 375 0078 0F21     		movs	r1, #15
 376              	.LVL19:
 187:Drivers/STM32F7xx_HAL_Driver/Src/stm32f7xx_ll_usb.c ****     }
 377              		.loc 1 187 14 view .LVU107
 378 007a C4E7     		b	.L21
 379              	.LVL20:
 380              	.L24:
 192:Drivers/STM32F7xx_HAL_Driver/Src/stm32f7xx_ll_usb.c ****     }
 381              		.loc 1 192 14 view .LVU108
 382 007c 0E21     		movs	r1, #14
 383              	.LVL21:
 192:Drivers/STM32F7xx_HAL_Driver/Src/stm32f7xx_ll_usb.c ****     }
 384              		.loc 1 192 14 view .LVU109
 385 007e C2E7     		b	.L21
 386              	.LVL22:
 387              	.L25:
 197:Drivers/STM32F7xx_HAL_Driver/Src/stm32f7xx_ll_usb.c ****     }
 388              		.loc 1 197 14 view .LVU110
 389 0080 0D21     		movs	r1, #13
 390              	.LVL23:
 197:Drivers/STM32F7xx_HAL_Driver/Src/stm32f7xx_ll_usb.c ****     }
 391              		.loc 1 197 14 view .LVU111
 392 0082 C0E7     		b	.L21
 393              	.LVL24:
 394              	.L26:
 202:Drivers/STM32F7xx_HAL_Driver/Src/stm32f7xx_ll_usb.c ****     }
 395              		.loc 1 202 14 view .LVU112
 396 0084 0C21     		movs	r1, #12
 397              	.LVL25:
 202:Drivers/STM32F7xx_HAL_Driver/Src/stm32f7xx_ll_usb.c ****     }
 398              		.loc 1 202 14 view .LVU113
 399 0086 BEE7     		b	.L21
 400              	.LVL26:
 401              	.L27:
 207:Drivers/STM32F7xx_HAL_Driver/Src/stm32f7xx_ll_usb.c ****     }
 402              		.loc 1 207 14 view .LVU114
 403 0088 0B21     		movs	r1, #11
 404              	.LVL27:
 207:Drivers/STM32F7xx_HAL_Driver/Src/stm32f7xx_ll_usb.c ****     }
 405              		.loc 1 207 14 view .LVU115
 406 008a BCE7     		b	.L21
 407              	.LVL28:
 408              	.L28:
 212:Drivers/STM32F7xx_HAL_Driver/Src/stm32f7xx_ll_usb.c ****     }
 409              		.loc 1 212 14 view .LVU116
ARM GAS  /tmp/ccrvI8Gd.s 			page 35


 410 008c 0A21     		movs	r1, #10
 411              	.LVL29:
 212:Drivers/STM32F7xx_HAL_Driver/Src/stm32f7xx_ll_usb.c ****     }
 412              		.loc 1 212 14 view .LVU117
 413 008e BAE7     		b	.L21
 414              	.LVL30:
 415              	.L29:
 217:Drivers/STM32F7xx_HAL_Driver/Src/stm32f7xx_ll_usb.c ****     }
 416              		.loc 1 217 14 view .LVU118
 417 0090 0921     		movs	r1, #9
 418              	.LVL31:
 217:Drivers/STM32F7xx_HAL_Driver/Src/stm32f7xx_ll_usb.c ****     }
 419              		.loc 1 217 14 view .LVU119
 420 0092 B8E7     		b	.L21
 421              	.LVL32:
 422              	.L30:
 222:Drivers/STM32F7xx_HAL_Driver/Src/stm32f7xx_ll_usb.c ****     }
 423              		.loc 1 222 14 view .LVU120
 424 0094 0821     		movs	r1, #8
 425              	.LVL33:
 222:Drivers/STM32F7xx_HAL_Driver/Src/stm32f7xx_ll_usb.c ****     }
 426              		.loc 1 222 14 view .LVU121
 427 0096 B6E7     		b	.L21
 428              	.LVL34:
 429              	.L31:
 232:Drivers/STM32F7xx_HAL_Driver/Src/stm32f7xx_ll_usb.c ****     }
 430              		.loc 1 232 14 view .LVU122
 431 0098 0621     		movs	r1, #6
 432              	.LVL35:
 232:Drivers/STM32F7xx_HAL_Driver/Src/stm32f7xx_ll_usb.c ****     }
 433              		.loc 1 232 14 view .LVU123
 434 009a B4E7     		b	.L21
 435              	.L34:
 436              		.align	2
 437              	.L33:
 438 009c 405327FF 		.word	-14200000
 439 00a0 FF340C00 		.word	799999
 440 00a4 401E1BFF 		.word	-15000000
 441 00a8 3F420F00 		.word	999999
 442 00ac 00DC0BFF 		.word	-16000000
 443 00b0 7F4F1200 		.word	1199999
 444 00b4 808CF9FE 		.word	-17200000
 445 00b8 20D61300 		.word	1300000
 446 00bc 60B6E5FE 		.word	-18500000
 447 00c0 5FE31600 		.word	1499999
 448 00c4 00D3CEFE 		.word	-20000000
 449 00c8 40771B00 		.word	1800000
 450 00cc C05BB3FE 		.word	-21800000
 451 00d0 C0912100 		.word	2200000
 452 00d4 00CA91FE 		.word	-24000000
 453 00d8 20753800 		.word	3700000
 454 00dc E05459FE 		.word	-27700000
 455 00e0 E09C4100 		.word	4300000
 456              		.cfi_endproc
 457              	.LFE142:
 459              		.section	.text.USB_EnableGlobalInt,"ax",%progbits
 460              		.align	1
ARM GAS  /tmp/ccrvI8Gd.s 			page 36


 461              		.global	USB_EnableGlobalInt
 462              		.syntax unified
 463              		.thumb
 464              		.thumb_func
 465              		.fpu fpv5-d16
 467              	USB_EnableGlobalInt:
 468              	.LVL36:
 469              	.LFB143:
 257:Drivers/STM32F7xx_HAL_Driver/Src/stm32f7xx_ll_usb.c ****   USBx->GAHBCFG |= USB_OTG_GAHBCFG_GINT;
 470              		.loc 1 257 1 is_stmt 1 view -0
 471              		.cfi_startproc
 472              		@ args = 0, pretend = 0, frame = 0
 473              		@ frame_needed = 0, uses_anonymous_args = 0
 474              		@ link register save eliminated.
 258:Drivers/STM32F7xx_HAL_Driver/Src/stm32f7xx_ll_usb.c ****   return HAL_OK;
 475              		.loc 1 258 3 view .LVU125
 258:Drivers/STM32F7xx_HAL_Driver/Src/stm32f7xx_ll_usb.c ****   return HAL_OK;
 476              		.loc 1 258 17 is_stmt 0 view .LVU126
 477 0000 8368     		ldr	r3, [r0, #8]
 478 0002 43F00103 		orr	r3, r3, #1
 479 0006 8360     		str	r3, [r0, #8]
 259:Drivers/STM32F7xx_HAL_Driver/Src/stm32f7xx_ll_usb.c **** }
 480              		.loc 1 259 3 is_stmt 1 view .LVU127
 260:Drivers/STM32F7xx_HAL_Driver/Src/stm32f7xx_ll_usb.c **** 
 481              		.loc 1 260 1 is_stmt 0 view .LVU128
 482 0008 0020     		movs	r0, #0
 483              	.LVL37:
 260:Drivers/STM32F7xx_HAL_Driver/Src/stm32f7xx_ll_usb.c **** 
 484              		.loc 1 260 1 view .LVU129
 485 000a 7047     		bx	lr
 486              		.cfi_endproc
 487              	.LFE143:
 489              		.section	.text.USB_DisableGlobalInt,"ax",%progbits
 490              		.align	1
 491              		.global	USB_DisableGlobalInt
 492              		.syntax unified
 493              		.thumb
 494              		.thumb_func
 495              		.fpu fpv5-d16
 497              	USB_DisableGlobalInt:
 498              	.LVL38:
 499              	.LFB144:
 269:Drivers/STM32F7xx_HAL_Driver/Src/stm32f7xx_ll_usb.c ****   USBx->GAHBCFG &= ~USB_OTG_GAHBCFG_GINT;
 500              		.loc 1 269 1 is_stmt 1 view -0
 501              		.cfi_startproc
 502              		@ args = 0, pretend = 0, frame = 0
 503              		@ frame_needed = 0, uses_anonymous_args = 0
 504              		@ link register save eliminated.
 270:Drivers/STM32F7xx_HAL_Driver/Src/stm32f7xx_ll_usb.c ****   return HAL_OK;
 505              		.loc 1 270 3 view .LVU131
 270:Drivers/STM32F7xx_HAL_Driver/Src/stm32f7xx_ll_usb.c ****   return HAL_OK;
 506              		.loc 1 270 17 is_stmt 0 view .LVU132
 507 0000 8368     		ldr	r3, [r0, #8]
 508 0002 23F00103 		bic	r3, r3, #1
 509 0006 8360     		str	r3, [r0, #8]
 271:Drivers/STM32F7xx_HAL_Driver/Src/stm32f7xx_ll_usb.c **** }
 510              		.loc 1 271 3 is_stmt 1 view .LVU133
ARM GAS  /tmp/ccrvI8Gd.s 			page 37


 272:Drivers/STM32F7xx_HAL_Driver/Src/stm32f7xx_ll_usb.c **** 
 511              		.loc 1 272 1 is_stmt 0 view .LVU134
 512 0008 0020     		movs	r0, #0
 513              	.LVL39:
 272:Drivers/STM32F7xx_HAL_Driver/Src/stm32f7xx_ll_usb.c **** 
 514              		.loc 1 272 1 view .LVU135
 515 000a 7047     		bx	lr
 516              		.cfi_endproc
 517              	.LFE144:
 519              		.section	.text.USB_FlushTxFifo,"ax",%progbits
 520              		.align	1
 521              		.global	USB_FlushTxFifo
 522              		.syntax unified
 523              		.thumb
 524              		.thumb_func
 525              		.fpu fpv5-d16
 527              	USB_FlushTxFifo:
 528              	.LVL40:
 529              	.LFB147:
 501:Drivers/STM32F7xx_HAL_Driver/Src/stm32f7xx_ll_usb.c ****   __IO uint32_t count = 0U;
 530              		.loc 1 501 1 is_stmt 1 view -0
 531              		.cfi_startproc
 532              		@ args = 0, pretend = 0, frame = 8
 533              		@ frame_needed = 0, uses_anonymous_args = 0
 534              		@ link register save eliminated.
 501:Drivers/STM32F7xx_HAL_Driver/Src/stm32f7xx_ll_usb.c ****   __IO uint32_t count = 0U;
 535              		.loc 1 501 1 is_stmt 0 view .LVU137
 536 0000 82B0     		sub	sp, sp, #8
 537              	.LCFI8:
 538              		.cfi_def_cfa_offset 8
 502:Drivers/STM32F7xx_HAL_Driver/Src/stm32f7xx_ll_usb.c **** 
 539              		.loc 1 502 3 is_stmt 1 view .LVU138
 502:Drivers/STM32F7xx_HAL_Driver/Src/stm32f7xx_ll_usb.c **** 
 540              		.loc 1 502 17 is_stmt 0 view .LVU139
 541 0002 0023     		movs	r3, #0
 542 0004 0193     		str	r3, [sp, #4]
 543              	.L39:
 505:Drivers/STM32F7xx_HAL_Driver/Src/stm32f7xx_ll_usb.c ****   {
 544              		.loc 1 505 3 is_stmt 1 view .LVU140
 507:Drivers/STM32F7xx_HAL_Driver/Src/stm32f7xx_ll_usb.c ****     {
 545              		.loc 1 507 5 view .LVU141
 507:Drivers/STM32F7xx_HAL_Driver/Src/stm32f7xx_ll_usb.c ****     {
 546              		.loc 1 507 9 is_stmt 0 view .LVU142
 547 0006 019B     		ldr	r3, [sp, #4]
 548 0008 0133     		adds	r3, r3, #1
 507:Drivers/STM32F7xx_HAL_Driver/Src/stm32f7xx_ll_usb.c ****     {
 549              		.loc 1 507 8 view .LVU143
 550 000a 0193     		str	r3, [sp, #4]
 551 000c 0E4A     		ldr	r2, .L44
 552 000e 9342     		cmp	r3, r2
 553 0010 14D8     		bhi	.L41
 511:Drivers/STM32F7xx_HAL_Driver/Src/stm32f7xx_ll_usb.c **** 
 554              		.loc 1 511 11 is_stmt 1 view .LVU144
 511:Drivers/STM32F7xx_HAL_Driver/Src/stm32f7xx_ll_usb.c **** 
 555              		.loc 1 511 17 is_stmt 0 view .LVU145
 556 0012 0369     		ldr	r3, [r0, #16]
 511:Drivers/STM32F7xx_HAL_Driver/Src/stm32f7xx_ll_usb.c **** 
ARM GAS  /tmp/ccrvI8Gd.s 			page 38


 557              		.loc 1 511 3 view .LVU146
 558 0014 002B     		cmp	r3, #0
 559 0016 F6DA     		bge	.L39
 514:Drivers/STM32F7xx_HAL_Driver/Src/stm32f7xx_ll_usb.c ****   USBx->GRSTCTL = (USB_OTG_GRSTCTL_TXFFLSH | (num << 6));
 560              		.loc 1 514 3 is_stmt 1 view .LVU147
 514:Drivers/STM32F7xx_HAL_Driver/Src/stm32f7xx_ll_usb.c ****   USBx->GRSTCTL = (USB_OTG_GRSTCTL_TXFFLSH | (num << 6));
 561              		.loc 1 514 9 is_stmt 0 view .LVU148
 562 0018 0023     		movs	r3, #0
 563 001a 0193     		str	r3, [sp, #4]
 515:Drivers/STM32F7xx_HAL_Driver/Src/stm32f7xx_ll_usb.c **** 
 564              		.loc 1 515 3 is_stmt 1 view .LVU149
 515:Drivers/STM32F7xx_HAL_Driver/Src/stm32f7xx_ll_usb.c **** 
 565              		.loc 1 515 51 is_stmt 0 view .LVU150
 566 001c 8901     		lsls	r1, r1, #6
 567              	.LVL41:
 515:Drivers/STM32F7xx_HAL_Driver/Src/stm32f7xx_ll_usb.c **** 
 568              		.loc 1 515 44 view .LVU151
 569 001e 41F02001 		orr	r1, r1, #32
 515:Drivers/STM32F7xx_HAL_Driver/Src/stm32f7xx_ll_usb.c **** 
 570              		.loc 1 515 17 view .LVU152
 571 0022 0161     		str	r1, [r0, #16]
 572              	.L40:
 517:Drivers/STM32F7xx_HAL_Driver/Src/stm32f7xx_ll_usb.c ****   {
 573              		.loc 1 517 3 is_stmt 1 view .LVU153
 519:Drivers/STM32F7xx_HAL_Driver/Src/stm32f7xx_ll_usb.c ****     {
 574              		.loc 1 519 5 view .LVU154
 519:Drivers/STM32F7xx_HAL_Driver/Src/stm32f7xx_ll_usb.c ****     {
 575              		.loc 1 519 9 is_stmt 0 view .LVU155
 576 0024 019B     		ldr	r3, [sp, #4]
 577 0026 0133     		adds	r3, r3, #1
 519:Drivers/STM32F7xx_HAL_Driver/Src/stm32f7xx_ll_usb.c ****     {
 578              		.loc 1 519 8 view .LVU156
 579 0028 0193     		str	r3, [sp, #4]
 580 002a 074A     		ldr	r2, .L44
 581 002c 9342     		cmp	r3, r2
 582 002e 08D8     		bhi	.L42
 523:Drivers/STM32F7xx_HAL_Driver/Src/stm32f7xx_ll_usb.c **** 
 583              		.loc 1 523 11 is_stmt 1 view .LVU157
 523:Drivers/STM32F7xx_HAL_Driver/Src/stm32f7xx_ll_usb.c **** 
 584              		.loc 1 523 17 is_stmt 0 view .LVU158
 585 0030 0369     		ldr	r3, [r0, #16]
 523:Drivers/STM32F7xx_HAL_Driver/Src/stm32f7xx_ll_usb.c **** 
 586              		.loc 1 523 3 view .LVU159
 587 0032 13F0200F 		tst	r3, #32
 588 0036 F5D1     		bne	.L40
 525:Drivers/STM32F7xx_HAL_Driver/Src/stm32f7xx_ll_usb.c **** }
 589              		.loc 1 525 10 view .LVU160
 590 0038 0020     		movs	r0, #0
 591              	.LVL42:
 525:Drivers/STM32F7xx_HAL_Driver/Src/stm32f7xx_ll_usb.c **** }
 592              		.loc 1 525 10 view .LVU161
 593 003a 00E0     		b	.L38
 594              	.LVL43:
 595              	.L41:
 509:Drivers/STM32F7xx_HAL_Driver/Src/stm32f7xx_ll_usb.c ****     }
 596              		.loc 1 509 14 view .LVU162
 597 003c 0320     		movs	r0, #3
ARM GAS  /tmp/ccrvI8Gd.s 			page 39


 598              	.LVL44:
 599              	.L38:
 526:Drivers/STM32F7xx_HAL_Driver/Src/stm32f7xx_ll_usb.c **** 
 600              		.loc 1 526 1 view .LVU163
 601 003e 02B0     		add	sp, sp, #8
 602              	.LCFI9:
 603              		.cfi_remember_state
 604              		.cfi_def_cfa_offset 0
 605              		@ sp needed
 606 0040 7047     		bx	lr
 607              	.LVL45:
 608              	.L42:
 609              	.LCFI10:
 610              		.cfi_restore_state
 521:Drivers/STM32F7xx_HAL_Driver/Src/stm32f7xx_ll_usb.c ****     }
 611              		.loc 1 521 14 view .LVU164
 612 0042 0320     		movs	r0, #3
 613              	.LVL46:
 521:Drivers/STM32F7xx_HAL_Driver/Src/stm32f7xx_ll_usb.c ****     }
 614              		.loc 1 521 14 view .LVU165
 615 0044 FBE7     		b	.L38
 616              	.L45:
 617 0046 00BF     		.align	2
 618              	.L44:
 619 0048 400D0300 		.word	200000
 620              		.cfi_endproc
 621              	.LFE147:
 623              		.section	.text.USB_FlushRxFifo,"ax",%progbits
 624              		.align	1
 625              		.global	USB_FlushRxFifo
 626              		.syntax unified
 627              		.thumb
 628              		.thumb_func
 629              		.fpu fpv5-d16
 631              	USB_FlushRxFifo:
 632              	.LVL47:
 633              	.LFB148:
 534:Drivers/STM32F7xx_HAL_Driver/Src/stm32f7xx_ll_usb.c ****   __IO uint32_t count = 0U;
 634              		.loc 1 534 1 is_stmt 1 view -0
 635              		.cfi_startproc
 636              		@ args = 0, pretend = 0, frame = 8
 637              		@ frame_needed = 0, uses_anonymous_args = 0
 638              		@ link register save eliminated.
 534:Drivers/STM32F7xx_HAL_Driver/Src/stm32f7xx_ll_usb.c ****   __IO uint32_t count = 0U;
 639              		.loc 1 534 1 is_stmt 0 view .LVU167
 640 0000 82B0     		sub	sp, sp, #8
 641              	.LCFI11:
 642              		.cfi_def_cfa_offset 8
 535:Drivers/STM32F7xx_HAL_Driver/Src/stm32f7xx_ll_usb.c **** 
 643              		.loc 1 535 3 is_stmt 1 view .LVU168
 535:Drivers/STM32F7xx_HAL_Driver/Src/stm32f7xx_ll_usb.c **** 
 644              		.loc 1 535 17 is_stmt 0 view .LVU169
 645 0002 0023     		movs	r3, #0
 646 0004 0193     		str	r3, [sp, #4]
 647              	.L48:
 538:Drivers/STM32F7xx_HAL_Driver/Src/stm32f7xx_ll_usb.c ****   {
 648              		.loc 1 538 3 is_stmt 1 view .LVU170
ARM GAS  /tmp/ccrvI8Gd.s 			page 40


 540:Drivers/STM32F7xx_HAL_Driver/Src/stm32f7xx_ll_usb.c ****     {
 649              		.loc 1 540 5 view .LVU171
 540:Drivers/STM32F7xx_HAL_Driver/Src/stm32f7xx_ll_usb.c ****     {
 650              		.loc 1 540 9 is_stmt 0 view .LVU172
 651 0006 019B     		ldr	r3, [sp, #4]
 652 0008 0133     		adds	r3, r3, #1
 540:Drivers/STM32F7xx_HAL_Driver/Src/stm32f7xx_ll_usb.c ****     {
 653              		.loc 1 540 8 view .LVU173
 654 000a 0193     		str	r3, [sp, #4]
 655 000c 0D4A     		ldr	r2, .L53
 656 000e 9342     		cmp	r3, r2
 657 0010 12D8     		bhi	.L50
 544:Drivers/STM32F7xx_HAL_Driver/Src/stm32f7xx_ll_usb.c **** 
 658              		.loc 1 544 11 is_stmt 1 view .LVU174
 544:Drivers/STM32F7xx_HAL_Driver/Src/stm32f7xx_ll_usb.c **** 
 659              		.loc 1 544 17 is_stmt 0 view .LVU175
 660 0012 0369     		ldr	r3, [r0, #16]
 544:Drivers/STM32F7xx_HAL_Driver/Src/stm32f7xx_ll_usb.c **** 
 661              		.loc 1 544 3 view .LVU176
 662 0014 002B     		cmp	r3, #0
 663 0016 F6DA     		bge	.L48
 547:Drivers/STM32F7xx_HAL_Driver/Src/stm32f7xx_ll_usb.c ****   USBx->GRSTCTL = USB_OTG_GRSTCTL_RXFFLSH;
 664              		.loc 1 547 3 is_stmt 1 view .LVU177
 547:Drivers/STM32F7xx_HAL_Driver/Src/stm32f7xx_ll_usb.c ****   USBx->GRSTCTL = USB_OTG_GRSTCTL_RXFFLSH;
 665              		.loc 1 547 9 is_stmt 0 view .LVU178
 666 0018 0023     		movs	r3, #0
 667 001a 0193     		str	r3, [sp, #4]
 548:Drivers/STM32F7xx_HAL_Driver/Src/stm32f7xx_ll_usb.c **** 
 668              		.loc 1 548 3 is_stmt 1 view .LVU179
 548:Drivers/STM32F7xx_HAL_Driver/Src/stm32f7xx_ll_usb.c **** 
 669              		.loc 1 548 17 is_stmt 0 view .LVU180
 670 001c 1023     		movs	r3, #16
 671 001e 0361     		str	r3, [r0, #16]
 672              	.L49:
 550:Drivers/STM32F7xx_HAL_Driver/Src/stm32f7xx_ll_usb.c ****   {
 673              		.loc 1 550 3 is_stmt 1 view .LVU181
 552:Drivers/STM32F7xx_HAL_Driver/Src/stm32f7xx_ll_usb.c ****     {
 674              		.loc 1 552 5 view .LVU182
 552:Drivers/STM32F7xx_HAL_Driver/Src/stm32f7xx_ll_usb.c ****     {
 675              		.loc 1 552 9 is_stmt 0 view .LVU183
 676 0020 019B     		ldr	r3, [sp, #4]
 677 0022 0133     		adds	r3, r3, #1
 552:Drivers/STM32F7xx_HAL_Driver/Src/stm32f7xx_ll_usb.c ****     {
 678              		.loc 1 552 8 view .LVU184
 679 0024 0193     		str	r3, [sp, #4]
 680 0026 074A     		ldr	r2, .L53
 681 0028 9342     		cmp	r3, r2
 682 002a 08D8     		bhi	.L51
 556:Drivers/STM32F7xx_HAL_Driver/Src/stm32f7xx_ll_usb.c **** 
 683              		.loc 1 556 11 is_stmt 1 view .LVU185
 556:Drivers/STM32F7xx_HAL_Driver/Src/stm32f7xx_ll_usb.c **** 
 684              		.loc 1 556 17 is_stmt 0 view .LVU186
 685 002c 0369     		ldr	r3, [r0, #16]
 556:Drivers/STM32F7xx_HAL_Driver/Src/stm32f7xx_ll_usb.c **** 
 686              		.loc 1 556 3 view .LVU187
 687 002e 13F0100F 		tst	r3, #16
 688 0032 F5D1     		bne	.L49
ARM GAS  /tmp/ccrvI8Gd.s 			page 41


 558:Drivers/STM32F7xx_HAL_Driver/Src/stm32f7xx_ll_usb.c **** }
 689              		.loc 1 558 10 view .LVU188
 690 0034 0020     		movs	r0, #0
 691              	.LVL48:
 558:Drivers/STM32F7xx_HAL_Driver/Src/stm32f7xx_ll_usb.c **** }
 692              		.loc 1 558 10 view .LVU189
 693 0036 00E0     		b	.L47
 694              	.LVL49:
 695              	.L50:
 542:Drivers/STM32F7xx_HAL_Driver/Src/stm32f7xx_ll_usb.c ****     }
 696              		.loc 1 542 14 view .LVU190
 697 0038 0320     		movs	r0, #3
 698              	.LVL50:
 699              	.L47:
 559:Drivers/STM32F7xx_HAL_Driver/Src/stm32f7xx_ll_usb.c **** 
 700              		.loc 1 559 1 view .LVU191
 701 003a 02B0     		add	sp, sp, #8
 702              	.LCFI12:
 703              		.cfi_remember_state
 704              		.cfi_def_cfa_offset 0
 705              		@ sp needed
 706 003c 7047     		bx	lr
 707              	.LVL51:
 708              	.L51:
 709              	.LCFI13:
 710              		.cfi_restore_state
 554:Drivers/STM32F7xx_HAL_Driver/Src/stm32f7xx_ll_usb.c ****     }
 711              		.loc 1 554 14 view .LVU192
 712 003e 0320     		movs	r0, #3
 713              	.LVL52:
 554:Drivers/STM32F7xx_HAL_Driver/Src/stm32f7xx_ll_usb.c ****     }
 714              		.loc 1 554 14 view .LVU193
 715 0040 FBE7     		b	.L47
 716              	.L54:
 717 0042 00BF     		.align	2
 718              	.L53:
 719 0044 400D0300 		.word	200000
 720              		.cfi_endproc
 721              	.LFE148:
 723              		.section	.text.USB_SetDevSpeed,"ax",%progbits
 724              		.align	1
 725              		.global	USB_SetDevSpeed
 726              		.syntax unified
 727              		.thumb
 728              		.thumb_func
 729              		.fpu fpv5-d16
 731              	USB_SetDevSpeed:
 732              	.LVL53:
 733              	.LFB149:
 573:Drivers/STM32F7xx_HAL_Driver/Src/stm32f7xx_ll_usb.c ****   uint32_t USBx_BASE = (uint32_t)USBx;
 734              		.loc 1 573 1 is_stmt 1 view -0
 735              		.cfi_startproc
 736              		@ args = 0, pretend = 0, frame = 0
 737              		@ frame_needed = 0, uses_anonymous_args = 0
 738              		@ link register save eliminated.
 574:Drivers/STM32F7xx_HAL_Driver/Src/stm32f7xx_ll_usb.c **** 
 739              		.loc 1 574 3 view .LVU195
ARM GAS  /tmp/ccrvI8Gd.s 			page 42


 576:Drivers/STM32F7xx_HAL_Driver/Src/stm32f7xx_ll_usb.c ****   return HAL_OK;
 740              		.loc 1 576 3 view .LVU196
 576:Drivers/STM32F7xx_HAL_Driver/Src/stm32f7xx_ll_usb.c ****   return HAL_OK;
 741              		.loc 1 576 21 is_stmt 0 view .LVU197
 742 0000 D0F80038 		ldr	r3, [r0, #2048]
 743 0004 1943     		orrs	r1, r1, r3
 744              	.LVL54:
 576:Drivers/STM32F7xx_HAL_Driver/Src/stm32f7xx_ll_usb.c ****   return HAL_OK;
 745              		.loc 1 576 21 view .LVU198
 746 0006 C0F80018 		str	r1, [r0, #2048]
 577:Drivers/STM32F7xx_HAL_Driver/Src/stm32f7xx_ll_usb.c **** }
 747              		.loc 1 577 3 is_stmt 1 view .LVU199
 578:Drivers/STM32F7xx_HAL_Driver/Src/stm32f7xx_ll_usb.c **** 
 748              		.loc 1 578 1 is_stmt 0 view .LVU200
 749 000a 0020     		movs	r0, #0
 750              	.LVL55:
 578:Drivers/STM32F7xx_HAL_Driver/Src/stm32f7xx_ll_usb.c **** 
 751              		.loc 1 578 1 view .LVU201
 752 000c 7047     		bx	lr
 753              		.cfi_endproc
 754              	.LFE149:
 756              		.section	.text.USB_DevInit,"ax",%progbits
 757              		.align	1
 758              		.global	USB_DevInit
 759              		.syntax unified
 760              		.thumb
 761              		.thumb_func
 762              		.fpu fpv5-d16
 764              	USB_DevInit:
 765              	.LVL56:
 766              	.LFB146:
 331:Drivers/STM32F7xx_HAL_Driver/Src/stm32f7xx_ll_usb.c ****   HAL_StatusTypeDef ret = HAL_OK;
 767              		.loc 1 331 1 is_stmt 1 view -0
 768              		.cfi_startproc
 769              		@ args = 56, pretend = 16, frame = 0
 770              		@ frame_needed = 0, uses_anonymous_args = 0
 331:Drivers/STM32F7xx_HAL_Driver/Src/stm32f7xx_ll_usb.c ****   HAL_StatusTypeDef ret = HAL_OK;
 771              		.loc 1 331 1 is_stmt 0 view .LVU203
 772 0000 84B0     		sub	sp, sp, #16
 773              	.LCFI14:
 774              		.cfi_def_cfa_offset 16
 775 0002 2DE9F843 		push	{r3, r4, r5, r6, r7, r8, r9, lr}
 776              	.LCFI15:
 777              		.cfi_def_cfa_offset 48
 778              		.cfi_offset 3, -48
 779              		.cfi_offset 4, -44
 780              		.cfi_offset 5, -40
 781              		.cfi_offset 6, -36
 782              		.cfi_offset 7, -32
 783              		.cfi_offset 8, -28
 784              		.cfi_offset 9, -24
 785              		.cfi_offset 14, -20
 786 0006 0446     		mov	r4, r0
 787 0008 09A8     		add	r0, sp, #36
 788              	.LVL57:
 331:Drivers/STM32F7xx_HAL_Driver/Src/stm32f7xx_ll_usb.c ****   HAL_StatusTypeDef ret = HAL_OK;
 789              		.loc 1 331 1 view .LVU204
ARM GAS  /tmp/ccrvI8Gd.s 			page 43


 790 000a 80E80E00 		stm	r0, {r1, r2, r3}
 332:Drivers/STM32F7xx_HAL_Driver/Src/stm32f7xx_ll_usb.c ****   uint32_t USBx_BASE = (uint32_t)USBx;
 791              		.loc 1 332 3 is_stmt 1 view .LVU205
 792              	.LVL58:
 333:Drivers/STM32F7xx_HAL_Driver/Src/stm32f7xx_ll_usb.c ****   uint32_t i;
 793              		.loc 1 333 3 view .LVU206
 333:Drivers/STM32F7xx_HAL_Driver/Src/stm32f7xx_ll_usb.c ****   uint32_t i;
 794              		.loc 1 333 12 is_stmt 0 view .LVU207
 795 000e 2546     		mov	r5, r4
 796              	.LVL59:
 334:Drivers/STM32F7xx_HAL_Driver/Src/stm32f7xx_ll_usb.c **** 
 797              		.loc 1 334 3 is_stmt 1 view .LVU208
 336:Drivers/STM32F7xx_HAL_Driver/Src/stm32f7xx_ll_usb.c ****   {
 798              		.loc 1 336 3 view .LVU209
 336:Drivers/STM32F7xx_HAL_Driver/Src/stm32f7xx_ll_usb.c ****   {
 799              		.loc 1 336 10 is_stmt 0 view .LVU210
 800 0010 0023     		movs	r3, #0
 336:Drivers/STM32F7xx_HAL_Driver/Src/stm32f7xx_ll_usb.c ****   {
 801              		.loc 1 336 3 view .LVU211
 802 0012 06E0     		b	.L57
 803              	.LVL60:
 804              	.L58:
 338:Drivers/STM32F7xx_HAL_Driver/Src/stm32f7xx_ll_usb.c ****   }
 805              		.loc 1 338 5 is_stmt 1 discriminator 3 view .LVU212
 338:Drivers/STM32F7xx_HAL_Driver/Src/stm32f7xx_ll_usb.c ****   }
 806              		.loc 1 338 22 is_stmt 0 discriminator 3 view .LVU213
 807 0014 03F14002 		add	r2, r3, #64
 808 0018 04EB8202 		add	r2, r4, r2, lsl #2
 809 001c 0021     		movs	r1, #0
 810 001e 5160     		str	r1, [r2, #4]
 336:Drivers/STM32F7xx_HAL_Driver/Src/stm32f7xx_ll_usb.c ****   {
 811              		.loc 1 336 25 is_stmt 1 discriminator 3 view .LVU214
 336:Drivers/STM32F7xx_HAL_Driver/Src/stm32f7xx_ll_usb.c ****   {
 812              		.loc 1 336 26 is_stmt 0 discriminator 3 view .LVU215
 813 0020 0133     		adds	r3, r3, #1
 814              	.LVL61:
 815              	.L57:
 336:Drivers/STM32F7xx_HAL_Driver/Src/stm32f7xx_ll_usb.c ****   {
 816              		.loc 1 336 16 is_stmt 1 discriminator 1 view .LVU216
 336:Drivers/STM32F7xx_HAL_Driver/Src/stm32f7xx_ll_usb.c ****   {
 817              		.loc 1 336 3 is_stmt 0 discriminator 1 view .LVU217
 818 0022 0E2B     		cmp	r3, #14
 819 0024 F6D9     		bls	.L58
 342:Drivers/STM32F7xx_HAL_Driver/Src/stm32f7xx_ll_usb.c ****   {
 820              		.loc 1 342 3 is_stmt 1 view .LVU218
 342:Drivers/STM32F7xx_HAL_Driver/Src/stm32f7xx_ll_usb.c ****   {
 821              		.loc 1 342 10 is_stmt 0 view .LVU219
 822 0026 DDF84C80 		ldr	r8, [sp, #76]
 342:Drivers/STM32F7xx_HAL_Driver/Src/stm32f7xx_ll_usb.c ****   {
 823              		.loc 1 342 6 view .LVU220
 824 002a B8F1000F 		cmp	r8, #0
 825 002e 24D1     		bne	.L59
 344:Drivers/STM32F7xx_HAL_Driver/Src/stm32f7xx_ll_usb.c **** 
 826              		.loc 1 344 5 is_stmt 1 view .LVU221
 344:Drivers/STM32F7xx_HAL_Driver/Src/stm32f7xx_ll_usb.c **** 
 827              		.loc 1 344 23 is_stmt 0 view .LVU222
 828 0030 D4F80438 		ldr	r3, [r4, #2052]
ARM GAS  /tmp/ccrvI8Gd.s 			page 44


 829              	.LVL62:
 344:Drivers/STM32F7xx_HAL_Driver/Src/stm32f7xx_ll_usb.c **** 
 830              		.loc 1 344 23 view .LVU223
 831 0034 43F00203 		orr	r3, r3, #2
 832 0038 C4F80438 		str	r3, [r4, #2052]
 347:Drivers/STM32F7xx_HAL_Driver/Src/stm32f7xx_ll_usb.c **** 
 833              		.loc 1 347 5 is_stmt 1 view .LVU224
 347:Drivers/STM32F7xx_HAL_Driver/Src/stm32f7xx_ll_usb.c **** 
 834              		.loc 1 347 17 is_stmt 0 view .LVU225
 835 003c A36B     		ldr	r3, [r4, #56]
 836 003e 23F40013 		bic	r3, r3, #2097152
 837 0042 A363     		str	r3, [r4, #56]
 350:Drivers/STM32F7xx_HAL_Driver/Src/stm32f7xx_ll_usb.c ****     USBx->GOTGCTL |= USB_OTG_GOTGCTL_BVALOVAL;
 838              		.loc 1 350 5 is_stmt 1 view .LVU226
 350:Drivers/STM32F7xx_HAL_Driver/Src/stm32f7xx_ll_usb.c ****     USBx->GOTGCTL |= USB_OTG_GOTGCTL_BVALOVAL;
 839              		.loc 1 350 19 is_stmt 0 view .LVU227
 840 0044 2368     		ldr	r3, [r4]
 841 0046 43F04003 		orr	r3, r3, #64
 842 004a 2360     		str	r3, [r4]
 351:Drivers/STM32F7xx_HAL_Driver/Src/stm32f7xx_ll_usb.c ****   }
 843              		.loc 1 351 5 is_stmt 1 view .LVU228
 351:Drivers/STM32F7xx_HAL_Driver/Src/stm32f7xx_ll_usb.c ****   }
 844              		.loc 1 351 19 is_stmt 0 view .LVU229
 845 004c 2368     		ldr	r3, [r4]
 846 004e 43F08003 		orr	r3, r3, #128
 847 0052 2360     		str	r3, [r4]
 848              	.L60:
 360:Drivers/STM32F7xx_HAL_Driver/Src/stm32f7xx_ll_usb.c **** 
 849              		.loc 1 360 3 is_stmt 1 view .LVU230
 360:Drivers/STM32F7xx_HAL_Driver/Src/stm32f7xx_ll_usb.c **** 
 850              		.loc 1 360 16 is_stmt 0 view .LVU231
 851 0054 0023     		movs	r3, #0
 852 0056 C4F8003E 		str	r3, [r4, #3584]
 363:Drivers/STM32F7xx_HAL_Driver/Src/stm32f7xx_ll_usb.c **** 
 853              		.loc 1 363 3 is_stmt 1 view .LVU232
 363:Drivers/STM32F7xx_HAL_Driver/Src/stm32f7xx_ll_usb.c **** 
 854              		.loc 1 363 21 is_stmt 0 view .LVU233
 855 005a 04F50066 		add	r6, r4, #2048
 856 005e D4F80038 		ldr	r3, [r4, #2048]
 857 0062 C4F80038 		str	r3, [r4, #2048]
 365:Drivers/STM32F7xx_HAL_Driver/Src/stm32f7xx_ll_usb.c ****   {
 858              		.loc 1 365 3 is_stmt 1 view .LVU234
 365:Drivers/STM32F7xx_HAL_Driver/Src/stm32f7xx_ll_usb.c ****   {
 859              		.loc 1 365 10 is_stmt 0 view .LVU235
 860 0066 0E9B     		ldr	r3, [sp, #56]
 365:Drivers/STM32F7xx_HAL_Driver/Src/stm32f7xx_ll_usb.c ****   {
 861              		.loc 1 365 6 view .LVU236
 862 0068 012B     		cmp	r3, #1
 863 006a 10D1     		bne	.L61
 367:Drivers/STM32F7xx_HAL_Driver/Src/stm32f7xx_ll_usb.c ****     {
 864              		.loc 1 367 5 is_stmt 1 view .LVU237
 367:Drivers/STM32F7xx_HAL_Driver/Src/stm32f7xx_ll_usb.c ****     {
 865              		.loc 1 367 12 is_stmt 0 view .LVU238
 866 006c 0B9B     		ldr	r3, [sp, #44]
 367:Drivers/STM32F7xx_HAL_Driver/Src/stm32f7xx_ll_usb.c ****     {
 867              		.loc 1 367 8 view .LVU239
 868 006e 4BB9     		cbnz	r3, .L62
ARM GAS  /tmp/ccrvI8Gd.s 			page 45


 370:Drivers/STM32F7xx_HAL_Driver/Src/stm32f7xx_ll_usb.c ****     }
 869              		.loc 1 370 7 is_stmt 1 view .LVU240
 370:Drivers/STM32F7xx_HAL_Driver/Src/stm32f7xx_ll_usb.c ****     }
 870              		.loc 1 370 13 is_stmt 0 view .LVU241
 871 0070 0021     		movs	r1, #0
 872 0072 2046     		mov	r0, r4
 873 0074 FFF7FEFF 		bl	USB_SetDevSpeed
 874              	.LVL63:
 875 0078 0DE0     		b	.L63
 876              	.LVL64:
 877              	.L59:
 356:Drivers/STM32F7xx_HAL_Driver/Src/stm32f7xx_ll_usb.c ****   }
 878              		.loc 1 356 5 is_stmt 1 view .LVU242
 356:Drivers/STM32F7xx_HAL_Driver/Src/stm32f7xx_ll_usb.c ****   }
 879              		.loc 1 356 17 is_stmt 0 view .LVU243
 880 007a A36B     		ldr	r3, [r4, #56]
 881              	.LVL65:
 356:Drivers/STM32F7xx_HAL_Driver/Src/stm32f7xx_ll_usb.c ****   }
 882              		.loc 1 356 17 view .LVU244
 883 007c 43F40013 		orr	r3, r3, #2097152
 884 0080 A363     		str	r3, [r4, #56]
 885 0082 E7E7     		b	.L60
 886              	.L62:
 375:Drivers/STM32F7xx_HAL_Driver/Src/stm32f7xx_ll_usb.c ****     }
 887              		.loc 1 375 7 is_stmt 1 view .LVU245
 375:Drivers/STM32F7xx_HAL_Driver/Src/stm32f7xx_ll_usb.c ****     }
 888              		.loc 1 375 13 is_stmt 0 view .LVU246
 889 0084 0121     		movs	r1, #1
 890 0086 2046     		mov	r0, r4
 891 0088 FFF7FEFF 		bl	USB_SetDevSpeed
 892              	.LVL66:
 893 008c 03E0     		b	.L63
 894              	.L61:
 396:Drivers/STM32F7xx_HAL_Driver/Src/stm32f7xx_ll_usb.c ****   }
 895              		.loc 1 396 5 is_stmt 1 view .LVU247
 396:Drivers/STM32F7xx_HAL_Driver/Src/stm32f7xx_ll_usb.c ****   }
 896              		.loc 1 396 11 is_stmt 0 view .LVU248
 897 008e 0321     		movs	r1, #3
 898 0090 2046     		mov	r0, r4
 899 0092 FFF7FEFF 		bl	USB_SetDevSpeed
 900              	.LVL67:
 901              	.L63:
 400:Drivers/STM32F7xx_HAL_Driver/Src/stm32f7xx_ll_usb.c ****   {
 902              		.loc 1 400 3 is_stmt 1 view .LVU249
 400:Drivers/STM32F7xx_HAL_Driver/Src/stm32f7xx_ll_usb.c ****   {
 903              		.loc 1 400 7 is_stmt 0 view .LVU250
 904 0096 1021     		movs	r1, #16
 905 0098 2046     		mov	r0, r4
 906 009a FFF7FEFF 		bl	USB_FlushTxFifo
 907              	.LVL68:
 400:Drivers/STM32F7xx_HAL_Driver/Src/stm32f7xx_ll_usb.c ****   {
 908              		.loc 1 400 6 view .LVU251
 909 009e 8146     		mov	r9, r0
 910 00a0 08B1     		cbz	r0, .L64
 402:Drivers/STM32F7xx_HAL_Driver/Src/stm32f7xx_ll_usb.c ****   }
 911              		.loc 1 402 9 view .LVU252
 912 00a2 4FF00109 		mov	r9, #1
ARM GAS  /tmp/ccrvI8Gd.s 			page 46


 913              	.L64:
 914              	.LVL69:
 405:Drivers/STM32F7xx_HAL_Driver/Src/stm32f7xx_ll_usb.c ****   {
 915              		.loc 1 405 3 is_stmt 1 view .LVU253
 405:Drivers/STM32F7xx_HAL_Driver/Src/stm32f7xx_ll_usb.c ****   {
 916              		.loc 1 405 7 is_stmt 0 view .LVU254
 917 00a6 2046     		mov	r0, r4
 918 00a8 FFF7FEFF 		bl	USB_FlushRxFifo
 919              	.LVL70:
 405:Drivers/STM32F7xx_HAL_Driver/Src/stm32f7xx_ll_usb.c ****   {
 920              		.loc 1 405 6 view .LVU255
 921 00ac 08B1     		cbz	r0, .L65
 407:Drivers/STM32F7xx_HAL_Driver/Src/stm32f7xx_ll_usb.c ****   }
 922              		.loc 1 407 9 view .LVU256
 923 00ae 4FF00109 		mov	r9, #1
 924              	.LVL71:
 925              	.L65:
 411:Drivers/STM32F7xx_HAL_Driver/Src/stm32f7xx_ll_usb.c ****   USBx_DEVICE->DOEPMSK = 0U;
 926              		.loc 1 411 3 is_stmt 1 view .LVU257
 411:Drivers/STM32F7xx_HAL_Driver/Src/stm32f7xx_ll_usb.c ****   USBx_DEVICE->DOEPMSK = 0U;
 927              		.loc 1 411 24 is_stmt 0 view .LVU258
 928 00b2 0023     		movs	r3, #0
 929 00b4 3361     		str	r3, [r6, #16]
 412:Drivers/STM32F7xx_HAL_Driver/Src/stm32f7xx_ll_usb.c ****   USBx_DEVICE->DAINTMSK = 0U;
 930              		.loc 1 412 3 is_stmt 1 view .LVU259
 412:Drivers/STM32F7xx_HAL_Driver/Src/stm32f7xx_ll_usb.c ****   USBx_DEVICE->DAINTMSK = 0U;
 931              		.loc 1 412 24 is_stmt 0 view .LVU260
 932 00b6 7361     		str	r3, [r6, #20]
 413:Drivers/STM32F7xx_HAL_Driver/Src/stm32f7xx_ll_usb.c **** 
 933              		.loc 1 413 3 is_stmt 1 view .LVU261
 413:Drivers/STM32F7xx_HAL_Driver/Src/stm32f7xx_ll_usb.c **** 
 934              		.loc 1 413 25 is_stmt 0 view .LVU262
 935 00b8 F361     		str	r3, [r6, #28]
 415:Drivers/STM32F7xx_HAL_Driver/Src/stm32f7xx_ll_usb.c ****   {
 936              		.loc 1 415 3 is_stmt 1 view .LVU263
 937              	.LVL72:
 415:Drivers/STM32F7xx_HAL_Driver/Src/stm32f7xx_ll_usb.c ****   {
 938              		.loc 1 415 3 is_stmt 0 view .LVU264
 939 00ba 0AE0     		b	.L66
 940              	.LVL73:
 941              	.L83:
 419:Drivers/STM32F7xx_HAL_Driver/Src/stm32f7xx_ll_usb.c ****       {
 942              		.loc 1 419 7 is_stmt 1 view .LVU265
 419:Drivers/STM32F7xx_HAL_Driver/Src/stm32f7xx_ll_usb.c ****       {
 943              		.loc 1 419 10 is_stmt 0 view .LVU266
 944 00bc C3B9     		cbnz	r3, .L68
 421:Drivers/STM32F7xx_HAL_Driver/Src/stm32f7xx_ll_usb.c ****       }
 945              		.loc 1 421 9 is_stmt 1 view .LVU267
 421:Drivers/STM32F7xx_HAL_Driver/Src/stm32f7xx_ll_usb.c ****       }
 946              		.loc 1 421 31 is_stmt 0 view .LVU268
 947 00be 4FF00060 		mov	r0, #134217728
 948 00c2 C2F80009 		str	r0, [r2, #2304]
 949              	.L69:
 433:Drivers/STM32F7xx_HAL_Driver/Src/stm32f7xx_ll_usb.c ****     USBx_INEP(i)->DIEPINT  = 0xFB7FU;
 950              		.loc 1 433 5 is_stmt 1 discriminator 2 view .LVU269
 433:Drivers/STM32F7xx_HAL_Driver/Src/stm32f7xx_ll_usb.c ****     USBx_INEP(i)->DIEPINT  = 0xFB7FU;
 951              		.loc 1 433 28 is_stmt 0 discriminator 2 view .LVU270
ARM GAS  /tmp/ccrvI8Gd.s 			page 47


 952 00c6 0022     		movs	r2, #0
 953 00c8 0A61     		str	r2, [r1, #16]
 434:Drivers/STM32F7xx_HAL_Driver/Src/stm32f7xx_ll_usb.c ****   }
 954              		.loc 1 434 5 is_stmt 1 discriminator 2 view .LVU271
 434:Drivers/STM32F7xx_HAL_Driver/Src/stm32f7xx_ll_usb.c ****   }
 955              		.loc 1 434 28 is_stmt 0 discriminator 2 view .LVU272
 956 00ca 4FF67F32 		movw	r2, #64383
 957 00ce 8A60     		str	r2, [r1, #8]
 415:Drivers/STM32F7xx_HAL_Driver/Src/stm32f7xx_ll_usb.c ****   {
 958              		.loc 1 415 39 is_stmt 1 discriminator 2 view .LVU273
 415:Drivers/STM32F7xx_HAL_Driver/Src/stm32f7xx_ll_usb.c ****   {
 959              		.loc 1 415 40 is_stmt 0 discriminator 2 view .LVU274
 960 00d0 0133     		adds	r3, r3, #1
 961              	.LVL74:
 962              	.L66:
 415:Drivers/STM32F7xx_HAL_Driver/Src/stm32f7xx_ll_usb.c ****   {
 963              		.loc 1 415 16 is_stmt 1 discriminator 1 view .LVU275
 415:Drivers/STM32F7xx_HAL_Driver/Src/stm32f7xx_ll_usb.c ****   {
 964              		.loc 1 415 23 is_stmt 0 discriminator 1 view .LVU276
 965 00d2 099F     		ldr	r7, [sp, #36]
 415:Drivers/STM32F7xx_HAL_Driver/Src/stm32f7xx_ll_usb.c ****   {
 966              		.loc 1 415 3 discriminator 1 view .LVU277
 967 00d4 9F42     		cmp	r7, r3
 968 00d6 10D9     		bls	.L82
 417:Drivers/STM32F7xx_HAL_Driver/Src/stm32f7xx_ll_usb.c ****     {
 969              		.loc 1 417 5 is_stmt 1 view .LVU278
 417:Drivers/STM32F7xx_HAL_Driver/Src/stm32f7xx_ll_usb.c ****     {
 970              		.loc 1 417 10 is_stmt 0 view .LVU279
 971 00d8 05EB4312 		add	r2, r5, r3, lsl #5
 972 00dc 02F51061 		add	r1, r2, #2304
 417:Drivers/STM32F7xx_HAL_Driver/Src/stm32f7xx_ll_usb.c ****     {
 973              		.loc 1 417 22 view .LVU280
 974 00e0 D2F80009 		ldr	r0, [r2, #2304]
 417:Drivers/STM32F7xx_HAL_Driver/Src/stm32f7xx_ll_usb.c ****     {
 975              		.loc 1 417 8 view .LVU281
 976 00e4 0028     		cmp	r0, #0
 977 00e6 E9DB     		blt	.L83
 430:Drivers/STM32F7xx_HAL_Driver/Src/stm32f7xx_ll_usb.c ****     }
 978              		.loc 1 430 7 is_stmt 1 view .LVU282
 430:Drivers/STM32F7xx_HAL_Driver/Src/stm32f7xx_ll_usb.c ****     }
 979              		.loc 1 430 29 is_stmt 0 view .LVU283
 980 00e8 0020     		movs	r0, #0
 981 00ea C2F80009 		str	r0, [r2, #2304]
 982 00ee EAE7     		b	.L69
 983              	.L68:
 425:Drivers/STM32F7xx_HAL_Driver/Src/stm32f7xx_ll_usb.c ****       }
 984              		.loc 1 425 9 is_stmt 1 view .LVU284
 425:Drivers/STM32F7xx_HAL_Driver/Src/stm32f7xx_ll_usb.c ****       }
 985              		.loc 1 425 31 is_stmt 0 view .LVU285
 986 00f0 4FF09040 		mov	r0, #1207959552
 987 00f4 C2F80009 		str	r0, [r2, #2304]
 988 00f8 E5E7     		b	.L69
 989              	.L82:
 437:Drivers/STM32F7xx_HAL_Driver/Src/stm32f7xx_ll_usb.c ****   {
 990              		.loc 1 437 10 view .LVU286
 991 00fa 0023     		movs	r3, #0
 992              	.LVL75:
ARM GAS  /tmp/ccrvI8Gd.s 			page 48


 437:Drivers/STM32F7xx_HAL_Driver/Src/stm32f7xx_ll_usb.c ****   {
 993              		.loc 1 437 10 view .LVU287
 994 00fc 0AE0     		b	.L71
 995              	.LVL76:
 996              	.L86:
 441:Drivers/STM32F7xx_HAL_Driver/Src/stm32f7xx_ll_usb.c ****       {
 997              		.loc 1 441 7 is_stmt 1 view .LVU288
 441:Drivers/STM32F7xx_HAL_Driver/Src/stm32f7xx_ll_usb.c ****       {
 998              		.loc 1 441 10 is_stmt 0 view .LVU289
 999 00fe BBB1     		cbz	r3, .L84
 447:Drivers/STM32F7xx_HAL_Driver/Src/stm32f7xx_ll_usb.c ****       }
 1000              		.loc 1 447 9 is_stmt 1 view .LVU290
 447:Drivers/STM32F7xx_HAL_Driver/Src/stm32f7xx_ll_usb.c ****       }
 1001              		.loc 1 447 32 is_stmt 0 view .LVU291
 1002 0100 4FF09040 		mov	r0, #1207959552
 1003 0104 C2F8000B 		str	r0, [r2, #2816]
 1004              	.L74:
 455:Drivers/STM32F7xx_HAL_Driver/Src/stm32f7xx_ll_usb.c ****     USBx_OUTEP(i)->DOEPINT  = 0xFB7FU;
 1005              		.loc 1 455 5 is_stmt 1 discriminator 2 view .LVU292
 455:Drivers/STM32F7xx_HAL_Driver/Src/stm32f7xx_ll_usb.c ****     USBx_OUTEP(i)->DOEPINT  = 0xFB7FU;
 1006              		.loc 1 455 29 is_stmt 0 discriminator 2 view .LVU293
 1007 0108 0022     		movs	r2, #0
 1008 010a 0A61     		str	r2, [r1, #16]
 456:Drivers/STM32F7xx_HAL_Driver/Src/stm32f7xx_ll_usb.c ****   }
 1009              		.loc 1 456 5 is_stmt 1 discriminator 2 view .LVU294
 456:Drivers/STM32F7xx_HAL_Driver/Src/stm32f7xx_ll_usb.c ****   }
 1010              		.loc 1 456 29 is_stmt 0 discriminator 2 view .LVU295
 1011 010c 4FF67F32 		movw	r2, #64383
 1012 0110 8A60     		str	r2, [r1, #8]
 437:Drivers/STM32F7xx_HAL_Driver/Src/stm32f7xx_ll_usb.c ****   {
 1013              		.loc 1 437 39 is_stmt 1 discriminator 2 view .LVU296
 437:Drivers/STM32F7xx_HAL_Driver/Src/stm32f7xx_ll_usb.c ****   {
 1014              		.loc 1 437 40 is_stmt 0 discriminator 2 view .LVU297
 1015 0112 0133     		adds	r3, r3, #1
 1016              	.LVL77:
 1017              	.L71:
 437:Drivers/STM32F7xx_HAL_Driver/Src/stm32f7xx_ll_usb.c ****   {
 1018              		.loc 1 437 16 is_stmt 1 discriminator 1 view .LVU298
 437:Drivers/STM32F7xx_HAL_Driver/Src/stm32f7xx_ll_usb.c ****   {
 1019              		.loc 1 437 3 is_stmt 0 discriminator 1 view .LVU299
 1020 0114 9F42     		cmp	r7, r3
 1021 0116 10D9     		bls	.L85
 439:Drivers/STM32F7xx_HAL_Driver/Src/stm32f7xx_ll_usb.c ****     {
 1022              		.loc 1 439 5 is_stmt 1 view .LVU300
 439:Drivers/STM32F7xx_HAL_Driver/Src/stm32f7xx_ll_usb.c ****     {
 1023              		.loc 1 439 10 is_stmt 0 view .LVU301
 1024 0118 05EB4312 		add	r2, r5, r3, lsl #5
 1025 011c 02F53061 		add	r1, r2, #2816
 439:Drivers/STM32F7xx_HAL_Driver/Src/stm32f7xx_ll_usb.c ****     {
 1026              		.loc 1 439 23 view .LVU302
 1027 0120 D2F8000B 		ldr	r0, [r2, #2816]
 439:Drivers/STM32F7xx_HAL_Driver/Src/stm32f7xx_ll_usb.c ****     {
 1028              		.loc 1 439 8 view .LVU303
 1029 0124 0028     		cmp	r0, #0
 1030 0126 EADB     		blt	.L86
 452:Drivers/STM32F7xx_HAL_Driver/Src/stm32f7xx_ll_usb.c ****     }
 1031              		.loc 1 452 7 is_stmt 1 view .LVU304
ARM GAS  /tmp/ccrvI8Gd.s 			page 49


 452:Drivers/STM32F7xx_HAL_Driver/Src/stm32f7xx_ll_usb.c ****     }
 1032              		.loc 1 452 30 is_stmt 0 view .LVU305
 1033 0128 0020     		movs	r0, #0
 1034 012a C2F8000B 		str	r0, [r2, #2816]
 1035 012e EBE7     		b	.L74
 1036              	.L84:
 443:Drivers/STM32F7xx_HAL_Driver/Src/stm32f7xx_ll_usb.c ****       }
 1037              		.loc 1 443 9 is_stmt 1 view .LVU306
 443:Drivers/STM32F7xx_HAL_Driver/Src/stm32f7xx_ll_usb.c ****       }
 1038              		.loc 1 443 32 is_stmt 0 view .LVU307
 1039 0130 4FF00060 		mov	r0, #134217728
 1040 0134 C2F8000B 		str	r0, [r2, #2816]
 1041 0138 E6E7     		b	.L74
 1042              	.L85:
 459:Drivers/STM32F7xx_HAL_Driver/Src/stm32f7xx_ll_usb.c **** 
 1043              		.loc 1 459 3 is_stmt 1 view .LVU308
 459:Drivers/STM32F7xx_HAL_Driver/Src/stm32f7xx_ll_usb.c **** 
 1044              		.loc 1 459 24 is_stmt 0 view .LVU309
 1045 013a 3369     		ldr	r3, [r6, #16]
 1046              	.LVL78:
 459:Drivers/STM32F7xx_HAL_Driver/Src/stm32f7xx_ll_usb.c **** 
 1047              		.loc 1 459 24 view .LVU310
 1048 013c 23F48073 		bic	r3, r3, #256
 1049 0140 3361     		str	r3, [r6, #16]
 462:Drivers/STM32F7xx_HAL_Driver/Src/stm32f7xx_ll_usb.c **** 
 1050              		.loc 1 462 3 is_stmt 1 view .LVU311
 462:Drivers/STM32F7xx_HAL_Driver/Src/stm32f7xx_ll_usb.c **** 
 1051              		.loc 1 462 17 is_stmt 0 view .LVU312
 1052 0142 0023     		movs	r3, #0
 1053 0144 A361     		str	r3, [r4, #24]
 465:Drivers/STM32F7xx_HAL_Driver/Src/stm32f7xx_ll_usb.c **** 
 1054              		.loc 1 465 3 is_stmt 1 view .LVU313
 465:Drivers/STM32F7xx_HAL_Driver/Src/stm32f7xx_ll_usb.c **** 
 1055              		.loc 1 465 17 is_stmt 0 view .LVU314
 1056 0146 6FF08043 		mvn	r3, #1073741824
 1057 014a 6361     		str	r3, [r4, #20]
 468:Drivers/STM32F7xx_HAL_Driver/Src/stm32f7xx_ll_usb.c ****   {
 1058              		.loc 1 468 3 is_stmt 1 view .LVU315
 468:Drivers/STM32F7xx_HAL_Driver/Src/stm32f7xx_ll_usb.c ****   {
 1059              		.loc 1 468 10 is_stmt 0 view .LVU316
 1060 014c 0C9B     		ldr	r3, [sp, #48]
 468:Drivers/STM32F7xx_HAL_Driver/Src/stm32f7xx_ll_usb.c ****   {
 1061              		.loc 1 468 6 view .LVU317
 1062 014e 1BB9     		cbnz	r3, .L76
 470:Drivers/STM32F7xx_HAL_Driver/Src/stm32f7xx_ll_usb.c ****   }
 1063              		.loc 1 470 5 is_stmt 1 view .LVU318
 470:Drivers/STM32F7xx_HAL_Driver/Src/stm32f7xx_ll_usb.c ****   }
 1064              		.loc 1 470 19 is_stmt 0 view .LVU319
 1065 0150 A369     		ldr	r3, [r4, #24]
 1066 0152 43F01003 		orr	r3, r3, #16
 1067 0156 A361     		str	r3, [r4, #24]
 1068              	.L76:
 474:Drivers/STM32F7xx_HAL_Driver/Src/stm32f7xx_ll_usb.c ****                    USB_OTG_GINTMSK_ENUMDNEM | USB_OTG_GINTMSK_IEPINT |
 1069              		.loc 1 474 3 is_stmt 1 view .LVU320
 474:Drivers/STM32F7xx_HAL_Driver/Src/stm32f7xx_ll_usb.c ****                    USB_OTG_GINTMSK_ENUMDNEM | USB_OTG_GINTMSK_IEPINT |
 1070              		.loc 1 474 17 is_stmt 0 view .LVU321
 1071 0158 A269     		ldr	r2, [r4, #24]
ARM GAS  /tmp/ccrvI8Gd.s 			page 50


 1072 015a 0B4B     		ldr	r3, .L88
 1073 015c 1343     		orrs	r3, r3, r2
 1074 015e A361     		str	r3, [r4, #24]
 479:Drivers/STM32F7xx_HAL_Driver/Src/stm32f7xx_ll_usb.c ****   {
 1075              		.loc 1 479 3 is_stmt 1 view .LVU322
 479:Drivers/STM32F7xx_HAL_Driver/Src/stm32f7xx_ll_usb.c ****   {
 1076              		.loc 1 479 10 is_stmt 0 view .LVU323
 1077 0160 0F9B     		ldr	r3, [sp, #60]
 479:Drivers/STM32F7xx_HAL_Driver/Src/stm32f7xx_ll_usb.c ****   {
 1078              		.loc 1 479 6 view .LVU324
 1079 0162 1BB1     		cbz	r3, .L77
 481:Drivers/STM32F7xx_HAL_Driver/Src/stm32f7xx_ll_usb.c ****   }
 1080              		.loc 1 481 5 is_stmt 1 view .LVU325
 481:Drivers/STM32F7xx_HAL_Driver/Src/stm32f7xx_ll_usb.c ****   }
 1081              		.loc 1 481 19 is_stmt 0 view .LVU326
 1082 0164 A369     		ldr	r3, [r4, #24]
 1083 0166 43F00803 		orr	r3, r3, #8
 1084 016a A361     		str	r3, [r4, #24]
 1085              	.L77:
 484:Drivers/STM32F7xx_HAL_Driver/Src/stm32f7xx_ll_usb.c ****   {
 1086              		.loc 1 484 3 is_stmt 1 view .LVU327
 484:Drivers/STM32F7xx_HAL_Driver/Src/stm32f7xx_ll_usb.c ****   {
 1087              		.loc 1 484 6 is_stmt 0 view .LVU328
 1088 016c B8F1010F 		cmp	r8, #1
 1089 0170 04D0     		beq	.L87
 1090              	.L78:
 489:Drivers/STM32F7xx_HAL_Driver/Src/stm32f7xx_ll_usb.c **** }
 1091              		.loc 1 489 3 is_stmt 1 view .LVU329
 490:Drivers/STM32F7xx_HAL_Driver/Src/stm32f7xx_ll_usb.c **** 
 1092              		.loc 1 490 1 is_stmt 0 view .LVU330
 1093 0172 4846     		mov	r0, r9
 1094 0174 BDE8F843 		pop	{r3, r4, r5, r6, r7, r8, r9, lr}
 1095              	.LCFI16:
 1096              		.cfi_remember_state
 1097              		.cfi_restore 14
 1098              		.cfi_restore 9
 1099              		.cfi_restore 8
 1100              		.cfi_restore 7
 1101              		.cfi_restore 6
 1102              		.cfi_restore 5
 1103              		.cfi_restore 4
 1104              		.cfi_restore 3
 1105              		.cfi_def_cfa_offset 16
 1106              	.LVL79:
 490:Drivers/STM32F7xx_HAL_Driver/Src/stm32f7xx_ll_usb.c **** 
 1107              		.loc 1 490 1 view .LVU331
 1108 0178 04B0     		add	sp, sp, #16
 1109              	.LCFI17:
 1110              		.cfi_def_cfa_offset 0
 1111 017a 7047     		bx	lr
 1112              	.LVL80:
 1113              	.L87:
 1114              	.LCFI18:
 1115              		.cfi_restore_state
 486:Drivers/STM32F7xx_HAL_Driver/Src/stm32f7xx_ll_usb.c ****   }
 1116              		.loc 1 486 5 is_stmt 1 view .LVU332
 486:Drivers/STM32F7xx_HAL_Driver/Src/stm32f7xx_ll_usb.c ****   }
ARM GAS  /tmp/ccrvI8Gd.s 			page 51


 1117              		.loc 1 486 19 is_stmt 0 view .LVU333
 1118 017c A269     		ldr	r2, [r4, #24]
 1119 017e 034B     		ldr	r3, .L88+4
 1120 0180 1343     		orrs	r3, r3, r2
 1121 0182 A361     		str	r3, [r4, #24]
 1122 0184 F5E7     		b	.L78
 1123              	.L89:
 1124 0186 00BF     		.align	2
 1125              	.L88:
 1126 0188 00383C80 		.word	-2143537152
 1127 018c 04000040 		.word	1073741828
 1128              		.cfi_endproc
 1129              	.LFE146:
 1131              		.section	.text.USB_GetDevSpeed,"ax",%progbits
 1132              		.align	1
 1133              		.global	USB_GetDevSpeed
 1134              		.syntax unified
 1135              		.thumb
 1136              		.thumb_func
 1137              		.fpu fpv5-d16
 1139              	USB_GetDevSpeed:
 1140              	.LVL81:
 1141              	.LFB150:
 589:Drivers/STM32F7xx_HAL_Driver/Src/stm32f7xx_ll_usb.c ****   uint32_t USBx_BASE = (uint32_t)USBx;
 1142              		.loc 1 589 1 is_stmt 1 view -0
 1143              		.cfi_startproc
 1144              		@ args = 0, pretend = 0, frame = 0
 1145              		@ frame_needed = 0, uses_anonymous_args = 0
 1146              		@ link register save eliminated.
 590:Drivers/STM32F7xx_HAL_Driver/Src/stm32f7xx_ll_usb.c ****   uint8_t speed;
 1147              		.loc 1 590 3 view .LVU335
 591:Drivers/STM32F7xx_HAL_Driver/Src/stm32f7xx_ll_usb.c ****   uint32_t DevEnumSpeed = USBx_DEVICE->DSTS & USB_OTG_DSTS_ENUMSPD;
 1148              		.loc 1 591 3 view .LVU336
 592:Drivers/STM32F7xx_HAL_Driver/Src/stm32f7xx_ll_usb.c **** 
 1149              		.loc 1 592 3 view .LVU337
 592:Drivers/STM32F7xx_HAL_Driver/Src/stm32f7xx_ll_usb.c **** 
 1150              		.loc 1 592 38 is_stmt 0 view .LVU338
 1151 0000 D0F80838 		ldr	r3, [r0, #2056]
 1152              	.LVL82:
 594:Drivers/STM32F7xx_HAL_Driver/Src/stm32f7xx_ll_usb.c ****   {
 1153              		.loc 1 594 3 is_stmt 1 view .LVU339
 594:Drivers/STM32F7xx_HAL_Driver/Src/stm32f7xx_ll_usb.c ****   {
 1154              		.loc 1 594 6 is_stmt 0 view .LVU340
 1155 0004 13F00603 		ands	r3, r3, #6
 1156              	.LVL83:
 594:Drivers/STM32F7xx_HAL_Driver/Src/stm32f7xx_ll_usb.c ****   {
 1157              		.loc 1 594 6 view .LVU341
 1158 0008 05D0     		beq	.L92
 598:Drivers/STM32F7xx_HAL_Driver/Src/stm32f7xx_ll_usb.c ****            (DevEnumSpeed == DSTS_ENUMSPD_FS_PHY_48MHZ))
 1159              		.loc 1 598 8 is_stmt 1 view .LVU342
 598:Drivers/STM32F7xx_HAL_Driver/Src/stm32f7xx_ll_usb.c ****            (DevEnumSpeed == DSTS_ENUMSPD_FS_PHY_48MHZ))
 1160              		.loc 1 598 11 is_stmt 0 view .LVU343
 1161 000a 062B     		cmp	r3, #6
 1162 000c 18BF     		it	ne
 1163 000e 022B     		cmpne	r3, #2
 1164 0010 03D1     		bne	.L93
 601:Drivers/STM32F7xx_HAL_Driver/Src/stm32f7xx_ll_usb.c ****   }
ARM GAS  /tmp/ccrvI8Gd.s 			page 52


 1165              		.loc 1 601 11 view .LVU344
 1166 0012 0220     		movs	r0, #2
 1167              	.LVL84:
 601:Drivers/STM32F7xx_HAL_Driver/Src/stm32f7xx_ll_usb.c ****   }
 1168              		.loc 1 601 11 view .LVU345
 1169 0014 7047     		bx	lr
 1170              	.LVL85:
 1171              	.L92:
 596:Drivers/STM32F7xx_HAL_Driver/Src/stm32f7xx_ll_usb.c ****   }
 1172              		.loc 1 596 11 view .LVU346
 1173 0016 0020     		movs	r0, #0
 1174              	.LVL86:
 596:Drivers/STM32F7xx_HAL_Driver/Src/stm32f7xx_ll_usb.c ****   }
 1175              		.loc 1 596 11 view .LVU347
 1176 0018 7047     		bx	lr
 1177              	.LVL87:
 1178              	.L93:
 605:Drivers/STM32F7xx_HAL_Driver/Src/stm32f7xx_ll_usb.c ****   }
 1179              		.loc 1 605 11 view .LVU348
 1180 001a 0F20     		movs	r0, #15
 1181              	.LVL88:
 608:Drivers/STM32F7xx_HAL_Driver/Src/stm32f7xx_ll_usb.c **** }
 1182              		.loc 1 608 3 is_stmt 1 view .LVU349
 609:Drivers/STM32F7xx_HAL_Driver/Src/stm32f7xx_ll_usb.c **** 
 1183              		.loc 1 609 1 is_stmt 0 view .LVU350
 1184 001c 7047     		bx	lr
 1185              		.cfi_endproc
 1186              	.LFE150:
 1188              		.section	.text.USB_ActivateEndpoint,"ax",%progbits
 1189              		.align	1
 1190              		.global	USB_ActivateEndpoint
 1191              		.syntax unified
 1192              		.thumb
 1193              		.thumb_func
 1194              		.fpu fpv5-d16
 1196              	USB_ActivateEndpoint:
 1197              	.LVL89:
 1198              	.LFB151:
 618:Drivers/STM32F7xx_HAL_Driver/Src/stm32f7xx_ll_usb.c ****   uint32_t USBx_BASE = (uint32_t)USBx;
 1199              		.loc 1 618 1 is_stmt 1 view -0
 1200              		.cfi_startproc
 1201              		@ args = 0, pretend = 0, frame = 0
 1202              		@ frame_needed = 0, uses_anonymous_args = 0
 1203              		@ link register save eliminated.
 618:Drivers/STM32F7xx_HAL_Driver/Src/stm32f7xx_ll_usb.c ****   uint32_t USBx_BASE = (uint32_t)USBx;
 1204              		.loc 1 618 1 is_stmt 0 view .LVU352
 1205 0000 70B4     		push	{r4, r5, r6}
 1206              	.LCFI19:
 1207              		.cfi_def_cfa_offset 12
 1208              		.cfi_offset 4, -12
 1209              		.cfi_offset 5, -8
 1210              		.cfi_offset 6, -4
 619:Drivers/STM32F7xx_HAL_Driver/Src/stm32f7xx_ll_usb.c ****   uint32_t epnum = (uint32_t)ep->num;
 1211              		.loc 1 619 3 is_stmt 1 view .LVU353
 1212              	.LVL90:
 620:Drivers/STM32F7xx_HAL_Driver/Src/stm32f7xx_ll_usb.c **** 
 1213              		.loc 1 620 3 view .LVU354
ARM GAS  /tmp/ccrvI8Gd.s 			page 53


 620:Drivers/STM32F7xx_HAL_Driver/Src/stm32f7xx_ll_usb.c **** 
 1214              		.loc 1 620 32 is_stmt 0 view .LVU355
 1215 0002 0C78     		ldrb	r4, [r1]	@ zero_extendqisi2
 1216              	.LVL91:
 622:Drivers/STM32F7xx_HAL_Driver/Src/stm32f7xx_ll_usb.c ****   {
 1217              		.loc 1 622 3 is_stmt 1 view .LVU356
 622:Drivers/STM32F7xx_HAL_Driver/Src/stm32f7xx_ll_usb.c ****   {
 1218              		.loc 1 622 9 is_stmt 0 view .LVU357
 1219 0004 4B78     		ldrb	r3, [r1, #1]	@ zero_extendqisi2
 622:Drivers/STM32F7xx_HAL_Driver/Src/stm32f7xx_ll_usb.c ****   {
 1220              		.loc 1 622 6 view .LVU358
 1221 0006 012B     		cmp	r3, #1
 1222 0008 20D0     		beq	.L98
 636:Drivers/STM32F7xx_HAL_Driver/Src/stm32f7xx_ll_usb.c **** 
 1223              		.loc 1 636 5 is_stmt 1 view .LVU359
 636:Drivers/STM32F7xx_HAL_Driver/Src/stm32f7xx_ll_usb.c **** 
 1224              		.loc 1 636 27 is_stmt 0 view .LVU360
 1225 000a D0F81C38 		ldr	r3, [r0, #2076]
 636:Drivers/STM32F7xx_HAL_Driver/Src/stm32f7xx_ll_usb.c **** 
 1226              		.loc 1 636 82 view .LVU361
 1227 000e 04F00F06 		and	r6, r4, #15
 636:Drivers/STM32F7xx_HAL_Driver/Src/stm32f7xx_ll_usb.c **** 
 1228              		.loc 1 636 55 view .LVU362
 1229 0012 0122     		movs	r2, #1
 1230 0014 B240     		lsls	r2, r2, r6
 636:Drivers/STM32F7xx_HAL_Driver/Src/stm32f7xx_ll_usb.c **** 
 1231              		.loc 1 636 27 view .LVU363
 1232 0016 43EA0243 		orr	r3, r3, r2, lsl #16
 1233 001a C0F81C38 		str	r3, [r0, #2076]
 638:Drivers/STM32F7xx_HAL_Driver/Src/stm32f7xx_ll_usb.c ****     {
 1234              		.loc 1 638 5 is_stmt 1 view .LVU364
 638:Drivers/STM32F7xx_HAL_Driver/Src/stm32f7xx_ll_usb.c ****     {
 1235              		.loc 1 638 11 is_stmt 0 view .LVU365
 1236 001e 00EB4410 		add	r0, r0, r4, lsl #5
 1237              	.LVL92:
 638:Drivers/STM32F7xx_HAL_Driver/Src/stm32f7xx_ll_usb.c ****     {
 1238              		.loc 1 638 28 view .LVU366
 1239 0022 D0F8003B 		ldr	r3, [r0, #2816]
 638:Drivers/STM32F7xx_HAL_Driver/Src/stm32f7xx_ll_usb.c ****     {
 1240              		.loc 1 638 8 view .LVU367
 1241 0026 13F4004F 		tst	r3, #32768
 1242 002a 0CD1     		bne	.L96
 640:Drivers/STM32F7xx_HAL_Driver/Src/stm32f7xx_ll_usb.c ****                                     ((uint32_t)ep->type << 18) |
 1243              		.loc 1 640 7 is_stmt 1 view .LVU368
 640:Drivers/STM32F7xx_HAL_Driver/Src/stm32f7xx_ll_usb.c ****                                     ((uint32_t)ep->type << 18) |
 1244              		.loc 1 640 34 is_stmt 0 view .LVU369
 1245 002c D0F8002B 		ldr	r2, [r0, #2816]
 640:Drivers/STM32F7xx_HAL_Driver/Src/stm32f7xx_ll_usb.c ****                                     ((uint32_t)ep->type << 18) |
 1246              		.loc 1 640 40 view .LVU370
 1247 0030 8B68     		ldr	r3, [r1, #8]
 640:Drivers/STM32F7xx_HAL_Driver/Src/stm32f7xx_ll_usb.c ****                                     ((uint32_t)ep->type << 18) |
 1248              		.loc 1 640 52 view .LVU371
 1249 0032 C3F30A03 		ubfx	r3, r3, #0, #11
 641:Drivers/STM32F7xx_HAL_Driver/Src/stm32f7xx_ll_usb.c ****                                     USB_OTG_DIEPCTL_SD0PID_SEVNFRM |
 1250              		.loc 1 641 50 view .LVU372
 1251 0036 C978     		ldrb	r1, [r1, #3]	@ zero_extendqisi2
 1252              	.LVL93:
ARM GAS  /tmp/ccrvI8Gd.s 			page 54


 640:Drivers/STM32F7xx_HAL_Driver/Src/stm32f7xx_ll_usb.c ****                                     ((uint32_t)ep->type << 18) |
 1253              		.loc 1 640 77 view .LVU373
 1254 0038 43EA8143 		orr	r3, r3, r1, lsl #18
 640:Drivers/STM32F7xx_HAL_Driver/Src/stm32f7xx_ll_usb.c ****                                     ((uint32_t)ep->type << 18) |
 1255              		.loc 1 640 34 view .LVU374
 1256 003c 1343     		orrs	r3, r3, r2
 1257 003e 134A     		ldr	r2, .L99
 1258 0040 1A43     		orrs	r2, r2, r3
 1259 0042 C0F8002B 		str	r2, [r0, #2816]
 1260              	.LVL94:
 1261              	.L96:
 646:Drivers/STM32F7xx_HAL_Driver/Src/stm32f7xx_ll_usb.c **** }
 1262              		.loc 1 646 3 is_stmt 1 view .LVU375
 647:Drivers/STM32F7xx_HAL_Driver/Src/stm32f7xx_ll_usb.c **** 
 1263              		.loc 1 647 1 is_stmt 0 view .LVU376
 1264 0046 0020     		movs	r0, #0
 1265 0048 70BC     		pop	{r4, r5, r6}
 1266              	.LCFI20:
 1267              		.cfi_remember_state
 1268              		.cfi_restore 6
 1269              		.cfi_restore 5
 1270              		.cfi_restore 4
 1271              		.cfi_def_cfa_offset 0
 1272 004a 7047     		bx	lr
 1273              	.LVL95:
 1274              	.L98:
 1275              	.LCFI21:
 1276              		.cfi_restore_state
 624:Drivers/STM32F7xx_HAL_Driver/Src/stm32f7xx_ll_usb.c **** 
 1277              		.loc 1 624 5 is_stmt 1 view .LVU377
 624:Drivers/STM32F7xx_HAL_Driver/Src/stm32f7xx_ll_usb.c **** 
 1278              		.loc 1 624 27 is_stmt 0 view .LVU378
 1279 004c D0F81C28 		ldr	r2, [r0, #2076]
 624:Drivers/STM32F7xx_HAL_Driver/Src/stm32f7xx_ll_usb.c **** 
 1280              		.loc 1 624 81 view .LVU379
 1281 0050 04F00F06 		and	r6, r4, #15
 624:Drivers/STM32F7xx_HAL_Driver/Src/stm32f7xx_ll_usb.c **** 
 1282              		.loc 1 624 54 view .LVU380
 1283 0054 B340     		lsls	r3, r3, r6
 624:Drivers/STM32F7xx_HAL_Driver/Src/stm32f7xx_ll_usb.c **** 
 1284              		.loc 1 624 52 view .LVU381
 1285 0056 9BB2     		uxth	r3, r3
 624:Drivers/STM32F7xx_HAL_Driver/Src/stm32f7xx_ll_usb.c **** 
 1286              		.loc 1 624 27 view .LVU382
 1287 0058 1343     		orrs	r3, r3, r2
 1288 005a C0F81C38 		str	r3, [r0, #2076]
 626:Drivers/STM32F7xx_HAL_Driver/Src/stm32f7xx_ll_usb.c ****     {
 1289              		.loc 1 626 5 is_stmt 1 view .LVU383
 626:Drivers/STM32F7xx_HAL_Driver/Src/stm32f7xx_ll_usb.c ****     {
 1290              		.loc 1 626 10 is_stmt 0 view .LVU384
 1291 005e 00EB4410 		add	r0, r0, r4, lsl #5
 1292              	.LVL96:
 626:Drivers/STM32F7xx_HAL_Driver/Src/stm32f7xx_ll_usb.c ****     {
 1293              		.loc 1 626 26 view .LVU385
 1294 0062 D0F80039 		ldr	r3, [r0, #2304]
 626:Drivers/STM32F7xx_HAL_Driver/Src/stm32f7xx_ll_usb.c ****     {
 1295              		.loc 1 626 8 view .LVU386
ARM GAS  /tmp/ccrvI8Gd.s 			page 55


 1296 0066 13F4004F 		tst	r3, #32768
 1297 006a ECD1     		bne	.L96
 628:Drivers/STM32F7xx_HAL_Driver/Src/stm32f7xx_ll_usb.c ****                                    ((uint32_t)ep->type << 18) | (epnum << 22) |
 1298              		.loc 1 628 7 is_stmt 1 view .LVU387
 628:Drivers/STM32F7xx_HAL_Driver/Src/stm32f7xx_ll_usb.c ****                                    ((uint32_t)ep->type << 18) | (epnum << 22) |
 1299              		.loc 1 628 33 is_stmt 0 view .LVU388
 1300 006c D0F80029 		ldr	r2, [r0, #2304]
 628:Drivers/STM32F7xx_HAL_Driver/Src/stm32f7xx_ll_usb.c ****                                    ((uint32_t)ep->type << 18) | (epnum << 22) |
 1301              		.loc 1 628 39 view .LVU389
 1302 0070 8B68     		ldr	r3, [r1, #8]
 628:Drivers/STM32F7xx_HAL_Driver/Src/stm32f7xx_ll_usb.c ****                                    ((uint32_t)ep->type << 18) | (epnum << 22) |
 1303              		.loc 1 628 51 view .LVU390
 1304 0072 C3F30A03 		ubfx	r3, r3, #0, #11
 629:Drivers/STM32F7xx_HAL_Driver/Src/stm32f7xx_ll_usb.c ****                                    USB_OTG_DIEPCTL_SD0PID_SEVNFRM |
 1305              		.loc 1 629 49 view .LVU391
 1306 0076 C978     		ldrb	r1, [r1, #3]	@ zero_extendqisi2
 1307              	.LVL97:
 628:Drivers/STM32F7xx_HAL_Driver/Src/stm32f7xx_ll_usb.c ****                                    ((uint32_t)ep->type << 18) | (epnum << 22) |
 1308              		.loc 1 628 76 view .LVU392
 1309 0078 43EA8143 		orr	r3, r3, r1, lsl #18
 629:Drivers/STM32F7xx_HAL_Driver/Src/stm32f7xx_ll_usb.c ****                                    USB_OTG_DIEPCTL_SD0PID_SEVNFRM |
 1310              		.loc 1 629 63 view .LVU393
 1311 007c 43EA8454 		orr	r4, r3, r4, lsl #22
 1312              	.LVL98:
 628:Drivers/STM32F7xx_HAL_Driver/Src/stm32f7xx_ll_usb.c ****                                    ((uint32_t)ep->type << 18) | (epnum << 22) |
 1313              		.loc 1 628 33 view .LVU394
 1314 0080 1443     		orrs	r4, r4, r2
 1315 0082 024B     		ldr	r3, .L99
 1316 0084 2343     		orrs	r3, r3, r4
 1317 0086 C0F80039 		str	r3, [r0, #2304]
 1318 008a DCE7     		b	.L96
 1319              	.L100:
 1320              		.align	2
 1321              	.L99:
 1322 008c 00800010 		.word	268468224
 1323              		.cfi_endproc
 1324              	.LFE151:
 1326              		.section	.text.USB_ActivateDedicatedEndpoint,"ax",%progbits
 1327              		.align	1
 1328              		.global	USB_ActivateDedicatedEndpoint
 1329              		.syntax unified
 1330              		.thumb
 1331              		.thumb_func
 1332              		.fpu fpv5-d16
 1334              	USB_ActivateDedicatedEndpoint:
 1335              	.LVL99:
 1336              	.LFB152:
 656:Drivers/STM32F7xx_HAL_Driver/Src/stm32f7xx_ll_usb.c ****   uint32_t USBx_BASE = (uint32_t)USBx;
 1337              		.loc 1 656 1 is_stmt 1 view -0
 1338              		.cfi_startproc
 1339              		@ args = 0, pretend = 0, frame = 0
 1340              		@ frame_needed = 0, uses_anonymous_args = 0
 1341              		@ link register save eliminated.
 656:Drivers/STM32F7xx_HAL_Driver/Src/stm32f7xx_ll_usb.c ****   uint32_t USBx_BASE = (uint32_t)USBx;
 1342              		.loc 1 656 1 is_stmt 0 view .LVU396
 1343 0000 70B4     		push	{r4, r5, r6}
 1344              	.LCFI22:
ARM GAS  /tmp/ccrvI8Gd.s 			page 56


 1345              		.cfi_def_cfa_offset 12
 1346              		.cfi_offset 4, -12
 1347              		.cfi_offset 5, -8
 1348              		.cfi_offset 6, -4
 657:Drivers/STM32F7xx_HAL_Driver/Src/stm32f7xx_ll_usb.c ****   uint32_t epnum = (uint32_t)ep->num;
 1349              		.loc 1 657 3 is_stmt 1 view .LVU397
 1350              	.LVL100:
 658:Drivers/STM32F7xx_HAL_Driver/Src/stm32f7xx_ll_usb.c **** 
 1351              		.loc 1 658 3 view .LVU398
 658:Drivers/STM32F7xx_HAL_Driver/Src/stm32f7xx_ll_usb.c **** 
 1352              		.loc 1 658 32 is_stmt 0 view .LVU399
 1353 0002 0A78     		ldrb	r2, [r1]	@ zero_extendqisi2
 1354              	.LVL101:
 661:Drivers/STM32F7xx_HAL_Driver/Src/stm32f7xx_ll_usb.c ****   {
 1355              		.loc 1 661 3 is_stmt 1 view .LVU400
 661:Drivers/STM32F7xx_HAL_Driver/Src/stm32f7xx_ll_usb.c ****   {
 1356              		.loc 1 661 9 is_stmt 0 view .LVU401
 1357 0004 4B78     		ldrb	r3, [r1, #1]	@ zero_extendqisi2
 661:Drivers/STM32F7xx_HAL_Driver/Src/stm32f7xx_ll_usb.c ****   {
 1358              		.loc 1 661 6 view .LVU402
 1359 0006 012B     		cmp	r3, #1
 1360 0008 23D0     		beq	.L107
 675:Drivers/STM32F7xx_HAL_Driver/Src/stm32f7xx_ll_usb.c ****     {
 1361              		.loc 1 675 5 is_stmt 1 view .LVU403
 675:Drivers/STM32F7xx_HAL_Driver/Src/stm32f7xx_ll_usb.c ****     {
 1362              		.loc 1 675 11 is_stmt 0 view .LVU404
 1363 000a 00EB4214 		add	r4, r0, r2, lsl #5
 675:Drivers/STM32F7xx_HAL_Driver/Src/stm32f7xx_ll_usb.c ****     {
 1364              		.loc 1 675 28 view .LVU405
 1365 000e D4F8003B 		ldr	r3, [r4, #2816]
 675:Drivers/STM32F7xx_HAL_Driver/Src/stm32f7xx_ll_usb.c ****     {
 1366              		.loc 1 675 8 view .LVU406
 1367 0012 13F4004F 		tst	r3, #32768
 1368 0016 0ED1     		bne	.L105
 677:Drivers/STM32F7xx_HAL_Driver/Src/stm32f7xx_ll_usb.c ****                                     ((uint32_t)ep->type << 18) | (epnum << 22) |
 1369              		.loc 1 677 7 is_stmt 1 view .LVU407
 677:Drivers/STM32F7xx_HAL_Driver/Src/stm32f7xx_ll_usb.c ****                                     ((uint32_t)ep->type << 18) | (epnum << 22) |
 1370              		.loc 1 677 34 is_stmt 0 view .LVU408
 1371 0018 D4F8005B 		ldr	r5, [r4, #2816]
 677:Drivers/STM32F7xx_HAL_Driver/Src/stm32f7xx_ll_usb.c ****                                     ((uint32_t)ep->type << 18) | (epnum << 22) |
 1372              		.loc 1 677 40 view .LVU409
 1373 001c 8B68     		ldr	r3, [r1, #8]
 677:Drivers/STM32F7xx_HAL_Driver/Src/stm32f7xx_ll_usb.c ****                                     ((uint32_t)ep->type << 18) | (epnum << 22) |
 1374              		.loc 1 677 52 view .LVU410
 1375 001e C3F30A03 		ubfx	r3, r3, #0, #11
 678:Drivers/STM32F7xx_HAL_Driver/Src/stm32f7xx_ll_usb.c ****                                     USB_OTG_DOEPCTL_USBAEP;
 1376              		.loc 1 678 50 view .LVU411
 1377 0022 CE78     		ldrb	r6, [r1, #3]	@ zero_extendqisi2
 677:Drivers/STM32F7xx_HAL_Driver/Src/stm32f7xx_ll_usb.c ****                                     ((uint32_t)ep->type << 18) | (epnum << 22) |
 1378              		.loc 1 677 77 view .LVU412
 1379 0024 43EA8643 		orr	r3, r3, r6, lsl #18
 678:Drivers/STM32F7xx_HAL_Driver/Src/stm32f7xx_ll_usb.c ****                                     USB_OTG_DOEPCTL_USBAEP;
 1380              		.loc 1 678 64 view .LVU413
 1381 0028 43EA8253 		orr	r3, r3, r2, lsl #22
 677:Drivers/STM32F7xx_HAL_Driver/Src/stm32f7xx_ll_usb.c ****                                     ((uint32_t)ep->type << 18) | (epnum << 22) |
 1382              		.loc 1 677 34 view .LVU414
 1383 002c 2B43     		orrs	r3, r3, r5
ARM GAS  /tmp/ccrvI8Gd.s 			page 57


 1384 002e 43F40043 		orr	r3, r3, #32768
 1385 0032 C4F8003B 		str	r3, [r4, #2816]
 1386              	.L105:
 682:Drivers/STM32F7xx_HAL_Driver/Src/stm32f7xx_ll_usb.c ****   }
 1387              		.loc 1 682 5 is_stmt 1 view .LVU415
 682:Drivers/STM32F7xx_HAL_Driver/Src/stm32f7xx_ll_usb.c ****   }
 1388              		.loc 1 682 27 is_stmt 0 view .LVU416
 1389 0036 D0F83C38 		ldr	r3, [r0, #2108]
 682:Drivers/STM32F7xx_HAL_Driver/Src/stm32f7xx_ll_usb.c ****   }
 1390              		.loc 1 682 76 view .LVU417
 1391 003a 0A78     		ldrb	r2, [r1]	@ zero_extendqisi2
 1392              	.LVL102:
 682:Drivers/STM32F7xx_HAL_Driver/Src/stm32f7xx_ll_usb.c ****   }
 1393              		.loc 1 682 82 view .LVU418
 1394 003c 02F00F01 		and	r1, r2, #15
 1395              	.LVL103:
 682:Drivers/STM32F7xx_HAL_Driver/Src/stm32f7xx_ll_usb.c ****   }
 1396              		.loc 1 682 55 view .LVU419
 1397 0040 0122     		movs	r2, #1
 1398 0042 8A40     		lsls	r2, r2, r1
 682:Drivers/STM32F7xx_HAL_Driver/Src/stm32f7xx_ll_usb.c ****   }
 1399              		.loc 1 682 27 view .LVU420
 1400 0044 43EA0243 		orr	r3, r3, r2, lsl #16
 1401 0048 C0F83C38 		str	r3, [r0, #2108]
 1402              	.L104:
 685:Drivers/STM32F7xx_HAL_Driver/Src/stm32f7xx_ll_usb.c **** }
 1403              		.loc 1 685 3 is_stmt 1 view .LVU421
 686:Drivers/STM32F7xx_HAL_Driver/Src/stm32f7xx_ll_usb.c **** 
 1404              		.loc 1 686 1 is_stmt 0 view .LVU422
 1405 004c 0020     		movs	r0, #0
 1406              	.LVL104:
 686:Drivers/STM32F7xx_HAL_Driver/Src/stm32f7xx_ll_usb.c **** 
 1407              		.loc 1 686 1 view .LVU423
 1408 004e 70BC     		pop	{r4, r5, r6}
 1409              	.LCFI23:
 1410              		.cfi_remember_state
 1411              		.cfi_restore 6
 1412              		.cfi_restore 5
 1413              		.cfi_restore 4
 1414              		.cfi_def_cfa_offset 0
 1415 0050 7047     		bx	lr
 1416              	.LVL105:
 1417              	.L107:
 1418              	.LCFI24:
 1419              		.cfi_restore_state
 663:Drivers/STM32F7xx_HAL_Driver/Src/stm32f7xx_ll_usb.c ****     {
 1420              		.loc 1 663 5 is_stmt 1 view .LVU424
 663:Drivers/STM32F7xx_HAL_Driver/Src/stm32f7xx_ll_usb.c ****     {
 1421              		.loc 1 663 11 is_stmt 0 view .LVU425
 1422 0052 00EB4215 		add	r5, r0, r2, lsl #5
 663:Drivers/STM32F7xx_HAL_Driver/Src/stm32f7xx_ll_usb.c ****     {
 1423              		.loc 1 663 27 view .LVU426
 1424 0056 D5F80039 		ldr	r3, [r5, #2304]
 663:Drivers/STM32F7xx_HAL_Driver/Src/stm32f7xx_ll_usb.c ****     {
 1425              		.loc 1 663 8 view .LVU427
 1426 005a 13F4004F 		tst	r3, #32768
 1427 005e 0ED1     		bne	.L103
ARM GAS  /tmp/ccrvI8Gd.s 			page 58


 665:Drivers/STM32F7xx_HAL_Driver/Src/stm32f7xx_ll_usb.c ****                                    ((uint32_t)ep->type << 18) | (epnum << 22) |
 1428              		.loc 1 665 7 is_stmt 1 view .LVU428
 665:Drivers/STM32F7xx_HAL_Driver/Src/stm32f7xx_ll_usb.c ****                                    ((uint32_t)ep->type << 18) | (epnum << 22) |
 1429              		.loc 1 665 33 is_stmt 0 view .LVU429
 1430 0060 D5F80069 		ldr	r6, [r5, #2304]
 665:Drivers/STM32F7xx_HAL_Driver/Src/stm32f7xx_ll_usb.c ****                                    ((uint32_t)ep->type << 18) | (epnum << 22) |
 1431              		.loc 1 665 39 view .LVU430
 1432 0064 8C68     		ldr	r4, [r1, #8]
 665:Drivers/STM32F7xx_HAL_Driver/Src/stm32f7xx_ll_usb.c ****                                    ((uint32_t)ep->type << 18) | (epnum << 22) |
 1433              		.loc 1 665 51 view .LVU431
 1434 0066 C4F30A03 		ubfx	r3, r4, #0, #11
 666:Drivers/STM32F7xx_HAL_Driver/Src/stm32f7xx_ll_usb.c ****                                    USB_OTG_DIEPCTL_SD0PID_SEVNFRM |
 1435              		.loc 1 666 49 view .LVU432
 1436 006a CC78     		ldrb	r4, [r1, #3]	@ zero_extendqisi2
 665:Drivers/STM32F7xx_HAL_Driver/Src/stm32f7xx_ll_usb.c ****                                    ((uint32_t)ep->type << 18) | (epnum << 22) |
 1437              		.loc 1 665 76 view .LVU433
 1438 006c 43EA8443 		orr	r3, r3, r4, lsl #18
 666:Drivers/STM32F7xx_HAL_Driver/Src/stm32f7xx_ll_usb.c ****                                    USB_OTG_DIEPCTL_SD0PID_SEVNFRM |
 1439              		.loc 1 666 63 view .LVU434
 1440 0070 43EA8253 		orr	r3, r3, r2, lsl #22
 665:Drivers/STM32F7xx_HAL_Driver/Src/stm32f7xx_ll_usb.c ****                                    ((uint32_t)ep->type << 18) | (epnum << 22) |
 1441              		.loc 1 665 33 view .LVU435
 1442 0074 3343     		orrs	r3, r3, r6
 1443 0076 084C     		ldr	r4, .L108
 1444 0078 1C43     		orrs	r4, r4, r3
 1445 007a C5F80049 		str	r4, [r5, #2304]
 1446              	.L103:
 671:Drivers/STM32F7xx_HAL_Driver/Src/stm32f7xx_ll_usb.c ****   }
 1447              		.loc 1 671 5 is_stmt 1 view .LVU436
 671:Drivers/STM32F7xx_HAL_Driver/Src/stm32f7xx_ll_usb.c ****   }
 1448              		.loc 1 671 27 is_stmt 0 view .LVU437
 1449 007e D0F83C28 		ldr	r2, [r0, #2108]
 1450              	.LVL106:
 671:Drivers/STM32F7xx_HAL_Driver/Src/stm32f7xx_ll_usb.c ****   }
 1451              		.loc 1 671 75 view .LVU438
 1452 0082 0B78     		ldrb	r3, [r1]	@ zero_extendqisi2
 671:Drivers/STM32F7xx_HAL_Driver/Src/stm32f7xx_ll_usb.c ****   }
 1453              		.loc 1 671 81 view .LVU439
 1454 0084 03F00F01 		and	r1, r3, #15
 1455              	.LVL107:
 671:Drivers/STM32F7xx_HAL_Driver/Src/stm32f7xx_ll_usb.c ****   }
 1456              		.loc 1 671 54 view .LVU440
 1457 0088 0123     		movs	r3, #1
 1458 008a 8B40     		lsls	r3, r3, r1
 671:Drivers/STM32F7xx_HAL_Driver/Src/stm32f7xx_ll_usb.c ****   }
 1459              		.loc 1 671 52 view .LVU441
 1460 008c 9BB2     		uxth	r3, r3
 671:Drivers/STM32F7xx_HAL_Driver/Src/stm32f7xx_ll_usb.c ****   }
 1461              		.loc 1 671 27 view .LVU442
 1462 008e 1343     		orrs	r3, r3, r2
 1463 0090 C0F83C38 		str	r3, [r0, #2108]
 1464 0094 DAE7     		b	.L104
 1465              	.L109:
 1466 0096 00BF     		.align	2
 1467              	.L108:
 1468 0098 00800010 		.word	268468224
 1469              		.cfi_endproc
ARM GAS  /tmp/ccrvI8Gd.s 			page 59


 1470              	.LFE152:
 1472              		.section	.text.USB_DeactivateEndpoint,"ax",%progbits
 1473              		.align	1
 1474              		.global	USB_DeactivateEndpoint
 1475              		.syntax unified
 1476              		.thumb
 1477              		.thumb_func
 1478              		.fpu fpv5-d16
 1480              	USB_DeactivateEndpoint:
 1481              	.LVL108:
 1482              	.LFB153:
 695:Drivers/STM32F7xx_HAL_Driver/Src/stm32f7xx_ll_usb.c ****   uint32_t USBx_BASE = (uint32_t)USBx;
 1483              		.loc 1 695 1 is_stmt 1 view -0
 1484              		.cfi_startproc
 1485              		@ args = 0, pretend = 0, frame = 0
 1486              		@ frame_needed = 0, uses_anonymous_args = 0
 1487              		@ link register save eliminated.
 695:Drivers/STM32F7xx_HAL_Driver/Src/stm32f7xx_ll_usb.c ****   uint32_t USBx_BASE = (uint32_t)USBx;
 1488              		.loc 1 695 1 is_stmt 0 view .LVU444
 1489 0000 30B4     		push	{r4, r5}
 1490              	.LCFI25:
 1491              		.cfi_def_cfa_offset 8
 1492              		.cfi_offset 4, -8
 1493              		.cfi_offset 5, -4
 696:Drivers/STM32F7xx_HAL_Driver/Src/stm32f7xx_ll_usb.c ****   uint32_t epnum = (uint32_t)ep->num;
 1494              		.loc 1 696 3 is_stmt 1 view .LVU445
 1495              	.LVL109:
 697:Drivers/STM32F7xx_HAL_Driver/Src/stm32f7xx_ll_usb.c **** 
 1496              		.loc 1 697 3 view .LVU446
 697:Drivers/STM32F7xx_HAL_Driver/Src/stm32f7xx_ll_usb.c **** 
 1497              		.loc 1 697 32 is_stmt 0 view .LVU447
 1498 0002 0B78     		ldrb	r3, [r1]	@ zero_extendqisi2
 1499              	.LVL110:
 700:Drivers/STM32F7xx_HAL_Driver/Src/stm32f7xx_ll_usb.c ****   {
 1500              		.loc 1 700 3 is_stmt 1 view .LVU448
 700:Drivers/STM32F7xx_HAL_Driver/Src/stm32f7xx_ll_usb.c ****   {
 1501              		.loc 1 700 9 is_stmt 0 view .LVU449
 1502 0004 4A78     		ldrb	r2, [r1, #1]	@ zero_extendqisi2
 700:Drivers/STM32F7xx_HAL_Driver/Src/stm32f7xx_ll_usb.c ****   {
 1503              		.loc 1 700 6 view .LVU450
 1504 0006 012A     		cmp	r2, #1
 1505 0008 24D0     		beq	.L116
 718:Drivers/STM32F7xx_HAL_Driver/Src/stm32f7xx_ll_usb.c ****     {
 1506              		.loc 1 718 5 is_stmt 1 view .LVU451
 718:Drivers/STM32F7xx_HAL_Driver/Src/stm32f7xx_ll_usb.c ****     {
 1507              		.loc 1 718 10 is_stmt 0 view .LVU452
 1508 000a 00EB4313 		add	r3, r0, r3, lsl #5
 1509              	.LVL111:
 718:Drivers/STM32F7xx_HAL_Driver/Src/stm32f7xx_ll_usb.c ****     {
 1510              		.loc 1 718 27 view .LVU453
 1511 000e D3F8002B 		ldr	r2, [r3, #2816]
 718:Drivers/STM32F7xx_HAL_Driver/Src/stm32f7xx_ll_usb.c ****     {
 1512              		.loc 1 718 8 view .LVU454
 1513 0012 002A     		cmp	r2, #0
 1514 0014 50DB     		blt	.L117
 1515              	.LVL112:
 1516              	.L114:
ARM GAS  /tmp/ccrvI8Gd.s 			page 60


 724:Drivers/STM32F7xx_HAL_Driver/Src/stm32f7xx_ll_usb.c ****     USBx_DEVICE->DAINTMSK &= ~(USB_OTG_DAINTMSK_OEPM & ((uint32_t)(1UL << (ep->num & EP_ADDR_MSK)) 
 1517              		.loc 1 724 5 is_stmt 1 view .LVU455
 724:Drivers/STM32F7xx_HAL_Driver/Src/stm32f7xx_ll_usb.c ****     USBx_DEVICE->DAINTMSK &= ~(USB_OTG_DAINTMSK_OEPM & ((uint32_t)(1UL << (ep->num & EP_ADDR_MSK)) 
 1518              		.loc 1 724 27 is_stmt 0 view .LVU456
 1519 0016 D0F83C58 		ldr	r5, [r0, #2108]
 724:Drivers/STM32F7xx_HAL_Driver/Src/stm32f7xx_ll_usb.c ****     USBx_DEVICE->DAINTMSK &= ~(USB_OTG_DAINTMSK_OEPM & ((uint32_t)(1UL << (ep->num & EP_ADDR_MSK)) 
 1520              		.loc 1 724 78 view .LVU457
 1521 001a 0A78     		ldrb	r2, [r1]	@ zero_extendqisi2
 724:Drivers/STM32F7xx_HAL_Driver/Src/stm32f7xx_ll_usb.c ****     USBx_DEVICE->DAINTMSK &= ~(USB_OTG_DAINTMSK_OEPM & ((uint32_t)(1UL << (ep->num & EP_ADDR_MSK)) 
 1522              		.loc 1 724 84 view .LVU458
 1523 001c 02F00F02 		and	r2, r2, #15
 724:Drivers/STM32F7xx_HAL_Driver/Src/stm32f7xx_ll_usb.c ****     USBx_DEVICE->DAINTMSK &= ~(USB_OTG_DAINTMSK_OEPM & ((uint32_t)(1UL << (ep->num & EP_ADDR_MSK)) 
 1524              		.loc 1 724 57 view .LVU459
 1525 0020 0124     		movs	r4, #1
 1526 0022 04FA02F2 		lsl	r2, r4, r2
 724:Drivers/STM32F7xx_HAL_Driver/Src/stm32f7xx_ll_usb.c ****     USBx_DEVICE->DAINTMSK &= ~(USB_OTG_DAINTMSK_OEPM & ((uint32_t)(1UL << (ep->num & EP_ADDR_MSK)) 
 1527              		.loc 1 724 27 view .LVU460
 1528 0026 25EA0242 		bic	r2, r5, r2, lsl #16
 1529 002a C0F83C28 		str	r2, [r0, #2108]
 725:Drivers/STM32F7xx_HAL_Driver/Src/stm32f7xx_ll_usb.c ****     USBx_OUTEP(epnum)->DOEPCTL &= ~(USB_OTG_DOEPCTL_USBAEP |
 1530              		.loc 1 725 5 is_stmt 1 view .LVU461
 725:Drivers/STM32F7xx_HAL_Driver/Src/stm32f7xx_ll_usb.c ****     USBx_OUTEP(epnum)->DOEPCTL &= ~(USB_OTG_DOEPCTL_USBAEP |
 1531              		.loc 1 725 27 is_stmt 0 view .LVU462
 1532 002e D0F81C28 		ldr	r2, [r0, #2076]
 725:Drivers/STM32F7xx_HAL_Driver/Src/stm32f7xx_ll_usb.c ****     USBx_OUTEP(epnum)->DOEPCTL &= ~(USB_OTG_DOEPCTL_USBAEP |
 1533              		.loc 1 725 78 view .LVU463
 1534 0032 0978     		ldrb	r1, [r1]	@ zero_extendqisi2
 1535              	.LVL113:
 725:Drivers/STM32F7xx_HAL_Driver/Src/stm32f7xx_ll_usb.c ****     USBx_OUTEP(epnum)->DOEPCTL &= ~(USB_OTG_DOEPCTL_USBAEP |
 1536              		.loc 1 725 84 view .LVU464
 1537 0034 01F00F01 		and	r1, r1, #15
 725:Drivers/STM32F7xx_HAL_Driver/Src/stm32f7xx_ll_usb.c ****     USBx_OUTEP(epnum)->DOEPCTL &= ~(USB_OTG_DOEPCTL_USBAEP |
 1538              		.loc 1 725 57 view .LVU465
 1539 0038 8C40     		lsls	r4, r4, r1
 725:Drivers/STM32F7xx_HAL_Driver/Src/stm32f7xx_ll_usb.c ****     USBx_OUTEP(epnum)->DOEPCTL &= ~(USB_OTG_DOEPCTL_USBAEP |
 1540              		.loc 1 725 27 view .LVU466
 1541 003a 22EA0444 		bic	r4, r2, r4, lsl #16
 1542 003e C0F81C48 		str	r4, [r0, #2076]
 726:Drivers/STM32F7xx_HAL_Driver/Src/stm32f7xx_ll_usb.c ****                                     USB_OTG_DOEPCTL_MPSIZ |
 1543              		.loc 1 726 5 is_stmt 1 view .LVU467
 726:Drivers/STM32F7xx_HAL_Driver/Src/stm32f7xx_ll_usb.c ****                                     USB_OTG_DOEPCTL_MPSIZ |
 1544              		.loc 1 726 32 is_stmt 0 view .LVU468
 1545 0042 D3F8001B 		ldr	r1, [r3, #2816]
 1546 0046 234A     		ldr	r2, .L119
 1547 0048 0A40     		ands	r2, r2, r1
 1548 004a C3F8002B 		str	r2, [r3, #2816]
 1549              	.L113:
 732:Drivers/STM32F7xx_HAL_Driver/Src/stm32f7xx_ll_usb.c **** }
 1550              		.loc 1 732 3 is_stmt 1 view .LVU469
 733:Drivers/STM32F7xx_HAL_Driver/Src/stm32f7xx_ll_usb.c **** 
 1551              		.loc 1 733 1 is_stmt 0 view .LVU470
 1552 004e 0020     		movs	r0, #0
 1553              	.LVL114:
 733:Drivers/STM32F7xx_HAL_Driver/Src/stm32f7xx_ll_usb.c **** 
 1554              		.loc 1 733 1 view .LVU471
 1555 0050 30BC     		pop	{r4, r5}
 1556              	.LCFI26:
ARM GAS  /tmp/ccrvI8Gd.s 			page 61


 1557              		.cfi_remember_state
 1558              		.cfi_restore 5
 1559              		.cfi_restore 4
 1560              		.cfi_def_cfa_offset 0
 1561 0052 7047     		bx	lr
 1562              	.LVL115:
 1563              	.L116:
 1564              	.LCFI27:
 1565              		.cfi_restore_state
 702:Drivers/STM32F7xx_HAL_Driver/Src/stm32f7xx_ll_usb.c ****     {
 1566              		.loc 1 702 5 is_stmt 1 view .LVU472
 702:Drivers/STM32F7xx_HAL_Driver/Src/stm32f7xx_ll_usb.c ****     {
 1567              		.loc 1 702 10 is_stmt 0 view .LVU473
 1568 0054 00EB4313 		add	r3, r0, r3, lsl #5
 1569              	.LVL116:
 702:Drivers/STM32F7xx_HAL_Driver/Src/stm32f7xx_ll_usb.c ****     {
 1570              		.loc 1 702 26 view .LVU474
 1571 0058 D3F80029 		ldr	r2, [r3, #2304]
 702:Drivers/STM32F7xx_HAL_Driver/Src/stm32f7xx_ll_usb.c ****     {
 1572              		.loc 1 702 8 view .LVU475
 1573 005c 002A     		cmp	r2, #0
 1574 005e 1EDB     		blt	.L118
 1575              	.LVL117:
 1576              	.L112:
 708:Drivers/STM32F7xx_HAL_Driver/Src/stm32f7xx_ll_usb.c ****     USBx_DEVICE->DAINTMSK &= ~(USB_OTG_DAINTMSK_IEPM & (uint32_t)(1UL << (ep->num & EP_ADDR_MSK)));
 1577              		.loc 1 708 5 is_stmt 1 view .LVU476
 708:Drivers/STM32F7xx_HAL_Driver/Src/stm32f7xx_ll_usb.c ****     USBx_DEVICE->DAINTMSK &= ~(USB_OTG_DAINTMSK_IEPM & (uint32_t)(1UL << (ep->num & EP_ADDR_MSK)));
 1578              		.loc 1 708 27 is_stmt 0 view .LVU477
 1579 0060 D0F83C58 		ldr	r5, [r0, #2108]
 708:Drivers/STM32F7xx_HAL_Driver/Src/stm32f7xx_ll_usb.c ****     USBx_DEVICE->DAINTMSK &= ~(USB_OTG_DAINTMSK_IEPM & (uint32_t)(1UL << (ep->num & EP_ADDR_MSK)));
 1580              		.loc 1 708 77 view .LVU478
 1581 0064 0A78     		ldrb	r2, [r1]	@ zero_extendqisi2
 708:Drivers/STM32F7xx_HAL_Driver/Src/stm32f7xx_ll_usb.c ****     USBx_DEVICE->DAINTMSK &= ~(USB_OTG_DAINTMSK_IEPM & (uint32_t)(1UL << (ep->num & EP_ADDR_MSK)));
 1582              		.loc 1 708 83 view .LVU479
 1583 0066 02F00F02 		and	r2, r2, #15
 708:Drivers/STM32F7xx_HAL_Driver/Src/stm32f7xx_ll_usb.c ****     USBx_DEVICE->DAINTMSK &= ~(USB_OTG_DAINTMSK_IEPM & (uint32_t)(1UL << (ep->num & EP_ADDR_MSK)));
 1584              		.loc 1 708 56 view .LVU480
 1585 006a 0124     		movs	r4, #1
 1586 006c 04FA02F2 		lsl	r2, r4, r2
 708:Drivers/STM32F7xx_HAL_Driver/Src/stm32f7xx_ll_usb.c ****     USBx_DEVICE->DAINTMSK &= ~(USB_OTG_DAINTMSK_IEPM & (uint32_t)(1UL << (ep->num & EP_ADDR_MSK)));
 1587              		.loc 1 708 54 view .LVU481
 1588 0070 92B2     		uxth	r2, r2
 708:Drivers/STM32F7xx_HAL_Driver/Src/stm32f7xx_ll_usb.c ****     USBx_DEVICE->DAINTMSK &= ~(USB_OTG_DAINTMSK_IEPM & (uint32_t)(1UL << (ep->num & EP_ADDR_MSK)));
 1589              		.loc 1 708 27 view .LVU482
 1590 0072 25EA0202 		bic	r2, r5, r2
 1591 0076 C0F83C28 		str	r2, [r0, #2108]
 709:Drivers/STM32F7xx_HAL_Driver/Src/stm32f7xx_ll_usb.c ****     USBx_INEP(epnum)->DIEPCTL &= ~(USB_OTG_DIEPCTL_USBAEP |
 1592              		.loc 1 709 5 is_stmt 1 view .LVU483
 709:Drivers/STM32F7xx_HAL_Driver/Src/stm32f7xx_ll_usb.c ****     USBx_INEP(epnum)->DIEPCTL &= ~(USB_OTG_DIEPCTL_USBAEP |
 1593              		.loc 1 709 27 is_stmt 0 view .LVU484
 1594 007a D0F81C28 		ldr	r2, [r0, #2076]
 709:Drivers/STM32F7xx_HAL_Driver/Src/stm32f7xx_ll_usb.c ****     USBx_INEP(epnum)->DIEPCTL &= ~(USB_OTG_DIEPCTL_USBAEP |
 1595              		.loc 1 709 77 view .LVU485
 1596 007e 0978     		ldrb	r1, [r1]	@ zero_extendqisi2
 1597              	.LVL118:
 709:Drivers/STM32F7xx_HAL_Driver/Src/stm32f7xx_ll_usb.c ****     USBx_INEP(epnum)->DIEPCTL &= ~(USB_OTG_DIEPCTL_USBAEP |
 1598              		.loc 1 709 83 view .LVU486
ARM GAS  /tmp/ccrvI8Gd.s 			page 62


 1599 0080 01F00F01 		and	r1, r1, #15
 709:Drivers/STM32F7xx_HAL_Driver/Src/stm32f7xx_ll_usb.c ****     USBx_INEP(epnum)->DIEPCTL &= ~(USB_OTG_DIEPCTL_USBAEP |
 1600              		.loc 1 709 56 view .LVU487
 1601 0084 8C40     		lsls	r4, r4, r1
 709:Drivers/STM32F7xx_HAL_Driver/Src/stm32f7xx_ll_usb.c ****     USBx_INEP(epnum)->DIEPCTL &= ~(USB_OTG_DIEPCTL_USBAEP |
 1602              		.loc 1 709 54 view .LVU488
 1603 0086 A4B2     		uxth	r4, r4
 709:Drivers/STM32F7xx_HAL_Driver/Src/stm32f7xx_ll_usb.c ****     USBx_INEP(epnum)->DIEPCTL &= ~(USB_OTG_DIEPCTL_USBAEP |
 1604              		.loc 1 709 27 view .LVU489
 1605 0088 22EA0404 		bic	r4, r2, r4
 1606 008c C0F81C48 		str	r4, [r0, #2076]
 710:Drivers/STM32F7xx_HAL_Driver/Src/stm32f7xx_ll_usb.c ****                                    USB_OTG_DIEPCTL_MPSIZ |
 1607              		.loc 1 710 5 is_stmt 1 view .LVU490
 710:Drivers/STM32F7xx_HAL_Driver/Src/stm32f7xx_ll_usb.c ****                                    USB_OTG_DIEPCTL_MPSIZ |
 1608              		.loc 1 710 31 is_stmt 0 view .LVU491
 1609 0090 D3F80019 		ldr	r1, [r3, #2304]
 1610 0094 104A     		ldr	r2, .L119+4
 1611 0096 0A40     		ands	r2, r2, r1
 1612 0098 C3F80029 		str	r2, [r3, #2304]
 1613 009c D7E7     		b	.L113
 1614              	.LVL119:
 1615              	.L118:
 704:Drivers/STM32F7xx_HAL_Driver/Src/stm32f7xx_ll_usb.c ****       USBx_INEP(epnum)->DIEPCTL |= USB_OTG_DIEPCTL_EPDIS;
 1616              		.loc 1 704 7 is_stmt 1 view .LVU492
 704:Drivers/STM32F7xx_HAL_Driver/Src/stm32f7xx_ll_usb.c ****       USBx_INEP(epnum)->DIEPCTL |= USB_OTG_DIEPCTL_EPDIS;
 1617              		.loc 1 704 33 is_stmt 0 view .LVU493
 1618 009e D3F80029 		ldr	r2, [r3, #2304]
 1619 00a2 42F00062 		orr	r2, r2, #134217728
 1620 00a6 C3F80029 		str	r2, [r3, #2304]
 1621              	.LVL120:
 705:Drivers/STM32F7xx_HAL_Driver/Src/stm32f7xx_ll_usb.c ****     }
 1622              		.loc 1 705 7 is_stmt 1 view .LVU494
 705:Drivers/STM32F7xx_HAL_Driver/Src/stm32f7xx_ll_usb.c ****     }
 1623              		.loc 1 705 33 is_stmt 0 view .LVU495
 1624 00aa D3F80029 		ldr	r2, [r3, #2304]
 1625 00ae 42F08042 		orr	r2, r2, #1073741824
 1626 00b2 C3F80029 		str	r2, [r3, #2304]
 1627 00b6 D3E7     		b	.L112
 1628              	.LVL121:
 1629              	.L117:
 720:Drivers/STM32F7xx_HAL_Driver/Src/stm32f7xx_ll_usb.c ****       USBx_OUTEP(epnum)->DOEPCTL |= USB_OTG_DOEPCTL_EPDIS;
 1630              		.loc 1 720 7 is_stmt 1 view .LVU496
 720:Drivers/STM32F7xx_HAL_Driver/Src/stm32f7xx_ll_usb.c ****       USBx_OUTEP(epnum)->DOEPCTL |= USB_OTG_DOEPCTL_EPDIS;
 1631              		.loc 1 720 34 is_stmt 0 view .LVU497
 1632 00b8 D3F8002B 		ldr	r2, [r3, #2816]
 1633 00bc 42F00062 		orr	r2, r2, #134217728
 1634 00c0 C3F8002B 		str	r2, [r3, #2816]
 1635              	.LVL122:
 721:Drivers/STM32F7xx_HAL_Driver/Src/stm32f7xx_ll_usb.c ****     }
 1636              		.loc 1 721 7 is_stmt 1 view .LVU498
 721:Drivers/STM32F7xx_HAL_Driver/Src/stm32f7xx_ll_usb.c ****     }
 1637              		.loc 1 721 34 is_stmt 0 view .LVU499
 1638 00c4 D3F8002B 		ldr	r2, [r3, #2816]
 1639 00c8 42F08042 		orr	r2, r2, #1073741824
 1640 00cc C3F8002B 		str	r2, [r3, #2816]
 1641 00d0 A1E7     		b	.L114
 1642              	.L120:
ARM GAS  /tmp/ccrvI8Gd.s 			page 63


 1643 00d2 00BF     		.align	2
 1644              	.L119:
 1645 00d4 0078F3EF 		.word	-269256704
 1646 00d8 007833EC 		.word	-332171264
 1647              		.cfi_endproc
 1648              	.LFE153:
 1650              		.section	.text.USB_DeactivateDedicatedEndpoint,"ax",%progbits
 1651              		.align	1
 1652              		.global	USB_DeactivateDedicatedEndpoint
 1653              		.syntax unified
 1654              		.thumb
 1655              		.thumb_func
 1656              		.fpu fpv5-d16
 1658              	USB_DeactivateDedicatedEndpoint:
 1659              	.LVL123:
 1660              	.LFB154:
 742:Drivers/STM32F7xx_HAL_Driver/Src/stm32f7xx_ll_usb.c ****   uint32_t USBx_BASE = (uint32_t)USBx;
 1661              		.loc 1 742 1 is_stmt 1 view -0
 1662              		.cfi_startproc
 1663              		@ args = 0, pretend = 0, frame = 0
 1664              		@ frame_needed = 0, uses_anonymous_args = 0
 1665              		@ link register save eliminated.
 743:Drivers/STM32F7xx_HAL_Driver/Src/stm32f7xx_ll_usb.c ****   uint32_t epnum = (uint32_t)ep->num;
 1666              		.loc 1 743 3 view .LVU501
 744:Drivers/STM32F7xx_HAL_Driver/Src/stm32f7xx_ll_usb.c **** 
 1667              		.loc 1 744 3 view .LVU502
 744:Drivers/STM32F7xx_HAL_Driver/Src/stm32f7xx_ll_usb.c **** 
 1668              		.loc 1 744 32 is_stmt 0 view .LVU503
 1669 0000 0B78     		ldrb	r3, [r1]	@ zero_extendqisi2
 1670              	.LVL124:
 747:Drivers/STM32F7xx_HAL_Driver/Src/stm32f7xx_ll_usb.c ****   {
 1671              		.loc 1 747 3 is_stmt 1 view .LVU504
 747:Drivers/STM32F7xx_HAL_Driver/Src/stm32f7xx_ll_usb.c ****   {
 1672              		.loc 1 747 9 is_stmt 0 view .LVU505
 1673 0002 4A78     		ldrb	r2, [r1, #1]	@ zero_extendqisi2
 747:Drivers/STM32F7xx_HAL_Driver/Src/stm32f7xx_ll_usb.c ****   {
 1674              		.loc 1 747 6 view .LVU506
 1675 0004 012A     		cmp	r2, #1
 1676 0006 18D0     		beq	.L126
 760:Drivers/STM32F7xx_HAL_Driver/Src/stm32f7xx_ll_usb.c ****     {
 1677              		.loc 1 760 5 is_stmt 1 view .LVU507
 760:Drivers/STM32F7xx_HAL_Driver/Src/stm32f7xx_ll_usb.c ****     {
 1678              		.loc 1 760 10 is_stmt 0 view .LVU508
 1679 0008 00EB4313 		add	r3, r0, r3, lsl #5
 1680              	.LVL125:
 760:Drivers/STM32F7xx_HAL_Driver/Src/stm32f7xx_ll_usb.c ****     {
 1681              		.loc 1 760 27 view .LVU509
 1682 000c D3F8002B 		ldr	r2, [r3, #2816]
 760:Drivers/STM32F7xx_HAL_Driver/Src/stm32f7xx_ll_usb.c ****     {
 1683              		.loc 1 760 8 view .LVU510
 1684 0010 002A     		cmp	r2, #0
 1685 0012 38DB     		blt	.L127
 1686              	.LVL126:
 1687              	.L125:
 766:Drivers/STM32F7xx_HAL_Driver/Src/stm32f7xx_ll_usb.c ****     USBx_DEVICE->DAINTMSK &= ~(USB_OTG_DAINTMSK_OEPM & ((uint32_t)(1UL << (ep->num & EP_ADDR_MSK)) 
 1688              		.loc 1 766 5 is_stmt 1 view .LVU511
 766:Drivers/STM32F7xx_HAL_Driver/Src/stm32f7xx_ll_usb.c ****     USBx_DEVICE->DAINTMSK &= ~(USB_OTG_DAINTMSK_OEPM & ((uint32_t)(1UL << (ep->num & EP_ADDR_MSK)) 
ARM GAS  /tmp/ccrvI8Gd.s 			page 64


 1689              		.loc 1 766 32 is_stmt 0 view .LVU512
 1690 0014 D3F8002B 		ldr	r2, [r3, #2816]
 1691 0018 22F40042 		bic	r2, r2, #32768
 1692 001c C3F8002B 		str	r2, [r3, #2816]
 767:Drivers/STM32F7xx_HAL_Driver/Src/stm32f7xx_ll_usb.c ****   }
 1693              		.loc 1 767 5 is_stmt 1 view .LVU513
 767:Drivers/STM32F7xx_HAL_Driver/Src/stm32f7xx_ll_usb.c ****   }
 1694              		.loc 1 767 27 is_stmt 0 view .LVU514
 1695 0020 D0F81C38 		ldr	r3, [r0, #2076]
 767:Drivers/STM32F7xx_HAL_Driver/Src/stm32f7xx_ll_usb.c ****   }
 1696              		.loc 1 767 78 view .LVU515
 1697 0024 0A78     		ldrb	r2, [r1]	@ zero_extendqisi2
 767:Drivers/STM32F7xx_HAL_Driver/Src/stm32f7xx_ll_usb.c ****   }
 1698              		.loc 1 767 84 view .LVU516
 1699 0026 02F00F01 		and	r1, r2, #15
 1700              	.LVL127:
 767:Drivers/STM32F7xx_HAL_Driver/Src/stm32f7xx_ll_usb.c ****   }
 1701              		.loc 1 767 57 view .LVU517
 1702 002a 0122     		movs	r2, #1
 1703 002c 8A40     		lsls	r2, r2, r1
 767:Drivers/STM32F7xx_HAL_Driver/Src/stm32f7xx_ll_usb.c ****   }
 1704              		.loc 1 767 27 view .LVU518
 1705 002e 23EA0243 		bic	r3, r3, r2, lsl #16
 1706 0032 C0F81C38 		str	r3, [r0, #2076]
 1707              	.L124:
 770:Drivers/STM32F7xx_HAL_Driver/Src/stm32f7xx_ll_usb.c **** }
 1708              		.loc 1 770 3 is_stmt 1 view .LVU519
 771:Drivers/STM32F7xx_HAL_Driver/Src/stm32f7xx_ll_usb.c **** 
 1709              		.loc 1 771 1 is_stmt 0 view .LVU520
 1710 0036 0020     		movs	r0, #0
 1711              	.LVL128:
 771:Drivers/STM32F7xx_HAL_Driver/Src/stm32f7xx_ll_usb.c **** 
 1712              		.loc 1 771 1 view .LVU521
 1713 0038 7047     		bx	lr
 1714              	.LVL129:
 1715              	.L126:
 749:Drivers/STM32F7xx_HAL_Driver/Src/stm32f7xx_ll_usb.c ****     {
 1716              		.loc 1 749 5 is_stmt 1 view .LVU522
 749:Drivers/STM32F7xx_HAL_Driver/Src/stm32f7xx_ll_usb.c ****     {
 1717              		.loc 1 749 10 is_stmt 0 view .LVU523
 1718 003a 00EB4313 		add	r3, r0, r3, lsl #5
 1719              	.LVL130:
 749:Drivers/STM32F7xx_HAL_Driver/Src/stm32f7xx_ll_usb.c ****     {
 1720              		.loc 1 749 26 view .LVU524
 1721 003e D3F80029 		ldr	r2, [r3, #2304]
 749:Drivers/STM32F7xx_HAL_Driver/Src/stm32f7xx_ll_usb.c ****     {
 1722              		.loc 1 749 8 view .LVU525
 1723 0042 002A     		cmp	r2, #0
 1724 0044 12DB     		blt	.L128
 1725              	.LVL131:
 1726              	.L123:
 755:Drivers/STM32F7xx_HAL_Driver/Src/stm32f7xx_ll_usb.c ****     USBx_DEVICE->DAINTMSK &= ~(USB_OTG_DAINTMSK_IEPM & (uint32_t)(1UL << (ep->num & EP_ADDR_MSK)));
 1727              		.loc 1 755 5 is_stmt 1 view .LVU526
 755:Drivers/STM32F7xx_HAL_Driver/Src/stm32f7xx_ll_usb.c ****     USBx_DEVICE->DAINTMSK &= ~(USB_OTG_DAINTMSK_IEPM & (uint32_t)(1UL << (ep->num & EP_ADDR_MSK)));
 1728              		.loc 1 755 31 is_stmt 0 view .LVU527
 1729 0046 D3F80029 		ldr	r2, [r3, #2304]
 1730 004a 22F40042 		bic	r2, r2, #32768
ARM GAS  /tmp/ccrvI8Gd.s 			page 65


 1731 004e C3F80029 		str	r2, [r3, #2304]
 756:Drivers/STM32F7xx_HAL_Driver/Src/stm32f7xx_ll_usb.c ****   }
 1732              		.loc 1 756 5 is_stmt 1 view .LVU528
 756:Drivers/STM32F7xx_HAL_Driver/Src/stm32f7xx_ll_usb.c ****   }
 1733              		.loc 1 756 27 is_stmt 0 view .LVU529
 1734 0052 D0F81C28 		ldr	r2, [r0, #2076]
 756:Drivers/STM32F7xx_HAL_Driver/Src/stm32f7xx_ll_usb.c ****   }
 1735              		.loc 1 756 77 view .LVU530
 1736 0056 0B78     		ldrb	r3, [r1]	@ zero_extendqisi2
 756:Drivers/STM32F7xx_HAL_Driver/Src/stm32f7xx_ll_usb.c ****   }
 1737              		.loc 1 756 83 view .LVU531
 1738 0058 03F00F01 		and	r1, r3, #15
 1739              	.LVL132:
 756:Drivers/STM32F7xx_HAL_Driver/Src/stm32f7xx_ll_usb.c ****   }
 1740              		.loc 1 756 56 view .LVU532
 1741 005c 0123     		movs	r3, #1
 1742 005e 8B40     		lsls	r3, r3, r1
 756:Drivers/STM32F7xx_HAL_Driver/Src/stm32f7xx_ll_usb.c ****   }
 1743              		.loc 1 756 54 view .LVU533
 1744 0060 9BB2     		uxth	r3, r3
 756:Drivers/STM32F7xx_HAL_Driver/Src/stm32f7xx_ll_usb.c ****   }
 1745              		.loc 1 756 27 view .LVU534
 1746 0062 22EA0303 		bic	r3, r2, r3
 1747 0066 C0F81C38 		str	r3, [r0, #2076]
 1748 006a E4E7     		b	.L124
 1749              	.LVL133:
 1750              	.L128:
 751:Drivers/STM32F7xx_HAL_Driver/Src/stm32f7xx_ll_usb.c ****       USBx_INEP(epnum)->DIEPCTL  |= USB_OTG_DIEPCTL_EPDIS;
 1751              		.loc 1 751 7 is_stmt 1 view .LVU535
 751:Drivers/STM32F7xx_HAL_Driver/Src/stm32f7xx_ll_usb.c ****       USBx_INEP(epnum)->DIEPCTL  |= USB_OTG_DIEPCTL_EPDIS;
 1752              		.loc 1 751 34 is_stmt 0 view .LVU536
 1753 006c D3F80029 		ldr	r2, [r3, #2304]
 1754 0070 42F00062 		orr	r2, r2, #134217728
 1755 0074 C3F80029 		str	r2, [r3, #2304]
 1756              	.LVL134:
 752:Drivers/STM32F7xx_HAL_Driver/Src/stm32f7xx_ll_usb.c ****     }
 1757              		.loc 1 752 7 is_stmt 1 view .LVU537
 752:Drivers/STM32F7xx_HAL_Driver/Src/stm32f7xx_ll_usb.c ****     }
 1758              		.loc 1 752 34 is_stmt 0 view .LVU538
 1759 0078 D3F80029 		ldr	r2, [r3, #2304]
 1760 007c 42F08042 		orr	r2, r2, #1073741824
 1761 0080 C3F80029 		str	r2, [r3, #2304]
 1762 0084 DFE7     		b	.L123
 1763              	.LVL135:
 1764              	.L127:
 762:Drivers/STM32F7xx_HAL_Driver/Src/stm32f7xx_ll_usb.c ****       USBx_OUTEP(epnum)->DOEPCTL  |= USB_OTG_DOEPCTL_EPDIS;
 1765              		.loc 1 762 7 is_stmt 1 view .LVU539
 762:Drivers/STM32F7xx_HAL_Driver/Src/stm32f7xx_ll_usb.c ****       USBx_OUTEP(epnum)->DOEPCTL  |= USB_OTG_DOEPCTL_EPDIS;
 1766              		.loc 1 762 35 is_stmt 0 view .LVU540
 1767 0086 D3F8002B 		ldr	r2, [r3, #2816]
 1768 008a 42F00062 		orr	r2, r2, #134217728
 1769 008e C3F8002B 		str	r2, [r3, #2816]
 1770              	.LVL136:
 763:Drivers/STM32F7xx_HAL_Driver/Src/stm32f7xx_ll_usb.c ****     }
 1771              		.loc 1 763 7 is_stmt 1 view .LVU541
 763:Drivers/STM32F7xx_HAL_Driver/Src/stm32f7xx_ll_usb.c ****     }
 1772              		.loc 1 763 35 is_stmt 0 view .LVU542
ARM GAS  /tmp/ccrvI8Gd.s 			page 66


 1773 0092 D3F8002B 		ldr	r2, [r3, #2816]
 1774 0096 42F08042 		orr	r2, r2, #1073741824
 1775 009a C3F8002B 		str	r2, [r3, #2816]
 1776 009e B9E7     		b	.L125
 1777              		.cfi_endproc
 1778              	.LFE154:
 1780              		.section	.text.USB_EP0StartXfer,"ax",%progbits
 1781              		.align	1
 1782              		.global	USB_EP0StartXfer
 1783              		.syntax unified
 1784              		.thumb
 1785              		.thumb_func
 1786              		.fpu fpv5-d16
 1788              	USB_EP0StartXfer:
 1789              	.LVL137:
 1790              	.LFB156:
 928:Drivers/STM32F7xx_HAL_Driver/Src/stm32f7xx_ll_usb.c ****   uint32_t USBx_BASE = (uint32_t)USBx;
 1791              		.loc 1 928 1 is_stmt 1 view -0
 1792              		.cfi_startproc
 1793              		@ args = 0, pretend = 0, frame = 0
 1794              		@ frame_needed = 0, uses_anonymous_args = 0
 1795              		@ link register save eliminated.
 928:Drivers/STM32F7xx_HAL_Driver/Src/stm32f7xx_ll_usb.c ****   uint32_t USBx_BASE = (uint32_t)USBx;
 1796              		.loc 1 928 1 is_stmt 0 view .LVU544
 1797 0000 70B4     		push	{r4, r5, r6}
 1798              	.LCFI28:
 1799              		.cfi_def_cfa_offset 12
 1800              		.cfi_offset 4, -12
 1801              		.cfi_offset 5, -8
 1802              		.cfi_offset 6, -4
 929:Drivers/STM32F7xx_HAL_Driver/Src/stm32f7xx_ll_usb.c ****   uint32_t epnum = (uint32_t)ep->num;
 1803              		.loc 1 929 3 is_stmt 1 view .LVU545
 1804              	.LVL138:
 930:Drivers/STM32F7xx_HAL_Driver/Src/stm32f7xx_ll_usb.c **** 
 1805              		.loc 1 930 3 view .LVU546
 930:Drivers/STM32F7xx_HAL_Driver/Src/stm32f7xx_ll_usb.c **** 
 1806              		.loc 1 930 32 is_stmt 0 view .LVU547
 1807 0002 0B78     		ldrb	r3, [r1]	@ zero_extendqisi2
 1808              	.LVL139:
 933:Drivers/STM32F7xx_HAL_Driver/Src/stm32f7xx_ll_usb.c ****   {
 1809              		.loc 1 933 3 is_stmt 1 view .LVU548
 933:Drivers/STM32F7xx_HAL_Driver/Src/stm32f7xx_ll_usb.c ****   {
 1810              		.loc 1 933 9 is_stmt 0 view .LVU549
 1811 0004 4C78     		ldrb	r4, [r1, #1]	@ zero_extendqisi2
 933:Drivers/STM32F7xx_HAL_Driver/Src/stm32f7xx_ll_usb.c ****   {
 1812              		.loc 1 933 6 view .LVU550
 1813 0006 012C     		cmp	r4, #1
 1814 0008 24D0     		beq	.L140
 988:Drivers/STM32F7xx_HAL_Driver/Src/stm32f7xx_ll_usb.c ****     USBx_OUTEP(epnum)->DOEPTSIZ &= ~(USB_OTG_DOEPTSIZ_PKTCNT);
 1815              		.loc 1 988 5 is_stmt 1 view .LVU551
 988:Drivers/STM32F7xx_HAL_Driver/Src/stm32f7xx_ll_usb.c ****     USBx_OUTEP(epnum)->DOEPTSIZ &= ~(USB_OTG_DOEPTSIZ_PKTCNT);
 1816              		.loc 1 988 33 is_stmt 0 view .LVU552
 1817 000a 00EB4310 		add	r0, r0, r3, lsl #5
 1818              	.LVL140:
 988:Drivers/STM32F7xx_HAL_Driver/Src/stm32f7xx_ll_usb.c ****     USBx_OUTEP(epnum)->DOEPTSIZ &= ~(USB_OTG_DOEPTSIZ_PKTCNT);
 1819              		.loc 1 988 33 view .LVU553
 1820 000e 00F53063 		add	r3, r0, #2816
ARM GAS  /tmp/ccrvI8Gd.s 			page 67


 1821              	.LVL141:
 988:Drivers/STM32F7xx_HAL_Driver/Src/stm32f7xx_ll_usb.c ****     USBx_OUTEP(epnum)->DOEPTSIZ &= ~(USB_OTG_DOEPTSIZ_PKTCNT);
 1822              		.loc 1 988 33 view .LVU554
 1823 0012 1D69     		ldr	r5, [r3, #16]
 1824 0014 3E4C     		ldr	r4, .L143
 1825 0016 2C40     		ands	r4, r4, r5
 1826 0018 1C61     		str	r4, [r3, #16]
 1827              	.LVL142:
 989:Drivers/STM32F7xx_HAL_Driver/Src/stm32f7xx_ll_usb.c **** 
 1828              		.loc 1 989 5 is_stmt 1 view .LVU555
 989:Drivers/STM32F7xx_HAL_Driver/Src/stm32f7xx_ll_usb.c **** 
 1829              		.loc 1 989 33 is_stmt 0 view .LVU556
 1830 001a 1D69     		ldr	r5, [r3, #16]
 1831 001c 3D4C     		ldr	r4, .L143+4
 1832 001e 2C40     		ands	r4, r4, r5
 1833 0020 1C61     		str	r4, [r3, #16]
 991:Drivers/STM32F7xx_HAL_Driver/Src/stm32f7xx_ll_usb.c ****     {
 1834              		.loc 1 991 5 is_stmt 1 view .LVU557
 991:Drivers/STM32F7xx_HAL_Driver/Src/stm32f7xx_ll_usb.c ****     {
 1835              		.loc 1 991 11 is_stmt 0 view .LVU558
 1836 0022 4C69     		ldr	r4, [r1, #20]
 991:Drivers/STM32F7xx_HAL_Driver/Src/stm32f7xx_ll_usb.c ****     {
 1837              		.loc 1 991 8 view .LVU559
 1838 0024 0CB1     		cbz	r4, .L137
 993:Drivers/STM32F7xx_HAL_Driver/Src/stm32f7xx_ll_usb.c ****     }
 1839              		.loc 1 993 7 is_stmt 1 view .LVU560
 993:Drivers/STM32F7xx_HAL_Driver/Src/stm32f7xx_ll_usb.c ****     }
 1840              		.loc 1 993 24 is_stmt 0 view .LVU561
 1841 0026 8C68     		ldr	r4, [r1, #8]
 993:Drivers/STM32F7xx_HAL_Driver/Src/stm32f7xx_ll_usb.c ****     }
 1842              		.loc 1 993 20 view .LVU562
 1843 0028 4C61     		str	r4, [r1, #20]
 1844              	.L137:
 996:Drivers/STM32F7xx_HAL_Driver/Src/stm32f7xx_ll_usb.c ****     USBx_OUTEP(epnum)->DOEPTSIZ |= (USB_OTG_DOEPTSIZ_XFRSIZ & (ep->maxpacket));
 1845              		.loc 1 996 5 is_stmt 1 view .LVU563
 996:Drivers/STM32F7xx_HAL_Driver/Src/stm32f7xx_ll_usb.c ****     USBx_OUTEP(epnum)->DOEPTSIZ |= (USB_OTG_DOEPTSIZ_XFRSIZ & (ep->maxpacket));
 1846              		.loc 1 996 33 is_stmt 0 view .LVU564
 1847 002a 1C69     		ldr	r4, [r3, #16]
 1848 002c 44F40024 		orr	r4, r4, #524288
 1849 0030 1C61     		str	r4, [r3, #16]
 997:Drivers/STM32F7xx_HAL_Driver/Src/stm32f7xx_ll_usb.c **** 
 1850              		.loc 1 997 5 is_stmt 1 view .LVU565
 997:Drivers/STM32F7xx_HAL_Driver/Src/stm32f7xx_ll_usb.c **** 
 1851              		.loc 1 997 33 is_stmt 0 view .LVU566
 1852 0032 1C69     		ldr	r4, [r3, #16]
 997:Drivers/STM32F7xx_HAL_Driver/Src/stm32f7xx_ll_usb.c **** 
 1853              		.loc 1 997 66 view .LVU567
 1854 0034 8D68     		ldr	r5, [r1, #8]
 997:Drivers/STM32F7xx_HAL_Driver/Src/stm32f7xx_ll_usb.c **** 
 1855              		.loc 1 997 61 view .LVU568
 1856 0036 C5F31205 		ubfx	r5, r5, #0, #19
 997:Drivers/STM32F7xx_HAL_Driver/Src/stm32f7xx_ll_usb.c **** 
 1857              		.loc 1 997 33 view .LVU569
 1858 003a 2C43     		orrs	r4, r4, r5
 1859 003c 1C61     		str	r4, [r3, #16]
 999:Drivers/STM32F7xx_HAL_Driver/Src/stm32f7xx_ll_usb.c ****     {
 1860              		.loc 1 999 5 is_stmt 1 view .LVU570
ARM GAS  /tmp/ccrvI8Gd.s 			page 68


 999:Drivers/STM32F7xx_HAL_Driver/Src/stm32f7xx_ll_usb.c ****     {
 1861              		.loc 1 999 8 is_stmt 0 view .LVU571
 1862 003e 012A     		cmp	r2, #1
 1863 0040 61D0     		beq	.L141
 1864              	.LVL143:
 1865              	.L138:
1008:Drivers/STM32F7xx_HAL_Driver/Src/stm32f7xx_ll_usb.c ****   }
 1866              		.loc 1 1008 5 is_stmt 1 view .LVU572
1008:Drivers/STM32F7xx_HAL_Driver/Src/stm32f7xx_ll_usb.c ****   }
 1867              		.loc 1 1008 32 is_stmt 0 view .LVU573
 1868 0042 D0F8003B 		ldr	r3, [r0, #2816]
 1869 0046 43F00443 		orr	r3, r3, #-2080374784
 1870 004a C0F8003B 		str	r3, [r0, #2816]
 1871              	.LVL144:
 1872              	.L136:
1011:Drivers/STM32F7xx_HAL_Driver/Src/stm32f7xx_ll_usb.c **** }
 1873              		.loc 1 1011 3 is_stmt 1 view .LVU574
1012:Drivers/STM32F7xx_HAL_Driver/Src/stm32f7xx_ll_usb.c **** 
 1874              		.loc 1 1012 1 is_stmt 0 view .LVU575
 1875 004e 0020     		movs	r0, #0
 1876 0050 70BC     		pop	{r4, r5, r6}
 1877              	.LCFI29:
 1878              		.cfi_remember_state
 1879              		.cfi_restore 6
 1880              		.cfi_restore 5
 1881              		.cfi_restore 4
 1882              		.cfi_def_cfa_offset 0
 1883 0052 7047     		bx	lr
 1884              	.LVL145:
 1885              	.L140:
 1886              	.LCFI30:
 1887              		.cfi_restore_state
 936:Drivers/STM32F7xx_HAL_Driver/Src/stm32f7xx_ll_usb.c ****     {
 1888              		.loc 1 936 5 is_stmt 1 view .LVU576
 936:Drivers/STM32F7xx_HAL_Driver/Src/stm32f7xx_ll_usb.c ****     {
 1889              		.loc 1 936 11 is_stmt 0 view .LVU577
 1890 0054 4C69     		ldr	r4, [r1, #20]
 936:Drivers/STM32F7xx_HAL_Driver/Src/stm32f7xx_ll_usb.c ****     {
 1891              		.loc 1 936 8 view .LVU578
 1892 0056 5CBB     		cbnz	r4, .L131
 938:Drivers/STM32F7xx_HAL_Driver/Src/stm32f7xx_ll_usb.c ****       USBx_INEP(epnum)->DIEPTSIZ |= (USB_OTG_DIEPTSIZ_PKTCNT & (1U << 19));
 1893              		.loc 1 938 7 is_stmt 1 view .LVU579
 938:Drivers/STM32F7xx_HAL_Driver/Src/stm32f7xx_ll_usb.c ****       USBx_INEP(epnum)->DIEPTSIZ |= (USB_OTG_DIEPTSIZ_PKTCNT & (1U << 19));
 1894              		.loc 1 938 34 is_stmt 0 view .LVU580
 1895 0058 00EB4314 		add	r4, r0, r3, lsl #5
 1896 005c D4F81069 		ldr	r6, [r4, #2320]
 1897 0060 2C4D     		ldr	r5, .L143+4
 1898 0062 3540     		ands	r5, r5, r6
 1899 0064 C4F81059 		str	r5, [r4, #2320]
 939:Drivers/STM32F7xx_HAL_Driver/Src/stm32f7xx_ll_usb.c ****       USBx_INEP(epnum)->DIEPTSIZ &= ~(USB_OTG_DIEPTSIZ_XFRSIZ);
 1900              		.loc 1 939 7 is_stmt 1 view .LVU581
 939:Drivers/STM32F7xx_HAL_Driver/Src/stm32f7xx_ll_usb.c ****       USBx_INEP(epnum)->DIEPTSIZ &= ~(USB_OTG_DIEPTSIZ_XFRSIZ);
 1901              		.loc 1 939 34 is_stmt 0 view .LVU582
 1902 0068 D4F81059 		ldr	r5, [r4, #2320]
 1903 006c 45F40025 		orr	r5, r5, #524288
 1904 0070 C4F81059 		str	r5, [r4, #2320]
 940:Drivers/STM32F7xx_HAL_Driver/Src/stm32f7xx_ll_usb.c ****     }
ARM GAS  /tmp/ccrvI8Gd.s 			page 69


 1905              		.loc 1 940 7 is_stmt 1 view .LVU583
 940:Drivers/STM32F7xx_HAL_Driver/Src/stm32f7xx_ll_usb.c ****     }
 1906              		.loc 1 940 34 is_stmt 0 view .LVU584
 1907 0074 D4F81069 		ldr	r6, [r4, #2320]
 1908 0078 254D     		ldr	r5, .L143
 1909 007a 3540     		ands	r5, r5, r6
 1910 007c C4F81059 		str	r5, [r4, #2320]
 1911              	.L132:
 960:Drivers/STM32F7xx_HAL_Driver/Src/stm32f7xx_ll_usb.c ****     {
 1912              		.loc 1 960 5 is_stmt 1 view .LVU585
 960:Drivers/STM32F7xx_HAL_Driver/Src/stm32f7xx_ll_usb.c ****     {
 1913              		.loc 1 960 8 is_stmt 0 view .LVU586
 1914 0080 012A     		cmp	r2, #1
 1915 0082 31D0     		beq	.L142
 973:Drivers/STM32F7xx_HAL_Driver/Src/stm32f7xx_ll_usb.c **** 
 1916              		.loc 1 973 7 is_stmt 1 view .LVU587
 973:Drivers/STM32F7xx_HAL_Driver/Src/stm32f7xx_ll_usb.c **** 
 1917              		.loc 1 973 33 is_stmt 0 view .LVU588
 1918 0084 00EB4313 		add	r3, r0, r3, lsl #5
 1919              	.LVL146:
 973:Drivers/STM32F7xx_HAL_Driver/Src/stm32f7xx_ll_usb.c **** 
 1920              		.loc 1 973 33 view .LVU589
 1921 0088 D3F80029 		ldr	r2, [r3, #2304]
 1922              	.LVL147:
 973:Drivers/STM32F7xx_HAL_Driver/Src/stm32f7xx_ll_usb.c **** 
 1923              		.loc 1 973 33 view .LVU590
 1924 008c 42F00442 		orr	r2, r2, #-2080374784
 1925 0090 C3F80029 		str	r2, [r3, #2304]
 976:Drivers/STM32F7xx_HAL_Driver/Src/stm32f7xx_ll_usb.c ****       {
 1926              		.loc 1 976 7 is_stmt 1 view .LVU591
 976:Drivers/STM32F7xx_HAL_Driver/Src/stm32f7xx_ll_usb.c ****       {
 1927              		.loc 1 976 13 is_stmt 0 view .LVU592
 1928 0094 4B69     		ldr	r3, [r1, #20]
 976:Drivers/STM32F7xx_HAL_Driver/Src/stm32f7xx_ll_usb.c ****       {
 1929              		.loc 1 976 10 view .LVU593
 1930 0096 002B     		cmp	r3, #0
 1931 0098 D9D0     		beq	.L136
 978:Drivers/STM32F7xx_HAL_Driver/Src/stm32f7xx_ll_usb.c ****       }
 1932              		.loc 1 978 9 is_stmt 1 view .LVU594
 978:Drivers/STM32F7xx_HAL_Driver/Src/stm32f7xx_ll_usb.c ****       }
 1933              		.loc 1 978 33 is_stmt 0 view .LVU595
 1934 009a D0F83438 		ldr	r3, [r0, #2100]
 978:Drivers/STM32F7xx_HAL_Driver/Src/stm32f7xx_ll_usb.c ****       }
 1935              		.loc 1 978 46 view .LVU596
 1936 009e 0A78     		ldrb	r2, [r1]	@ zero_extendqisi2
 978:Drivers/STM32F7xx_HAL_Driver/Src/stm32f7xx_ll_usb.c ****       }
 1937              		.loc 1 978 52 view .LVU597
 1938 00a0 02F00F01 		and	r1, r2, #15
 1939              	.LVL148:
 978:Drivers/STM32F7xx_HAL_Driver/Src/stm32f7xx_ll_usb.c ****       }
 1940              		.loc 1 978 40 view .LVU598
 1941 00a4 0122     		movs	r2, #1
 1942 00a6 8A40     		lsls	r2, r2, r1
 978:Drivers/STM32F7xx_HAL_Driver/Src/stm32f7xx_ll_usb.c ****       }
 1943              		.loc 1 978 33 view .LVU599
 1944 00a8 1343     		orrs	r3, r3, r2
 1945 00aa C0F83438 		str	r3, [r0, #2100]
ARM GAS  /tmp/ccrvI8Gd.s 			page 70


 1946 00ae CEE7     		b	.L136
 1947              	.LVL149:
 1948              	.L131:
 949:Drivers/STM32F7xx_HAL_Driver/Src/stm32f7xx_ll_usb.c ****       USBx_INEP(epnum)->DIEPTSIZ &= ~(USB_OTG_DIEPTSIZ_PKTCNT);
 1949              		.loc 1 949 7 is_stmt 1 view .LVU600
 949:Drivers/STM32F7xx_HAL_Driver/Src/stm32f7xx_ll_usb.c ****       USBx_INEP(epnum)->DIEPTSIZ &= ~(USB_OTG_DIEPTSIZ_PKTCNT);
 1950              		.loc 1 949 34 is_stmt 0 view .LVU601
 1951 00b0 00EB4314 		add	r4, r0, r3, lsl #5
 1952 00b4 04F51064 		add	r4, r4, #2304
 1953 00b8 2669     		ldr	r6, [r4, #16]
 1954 00ba 154D     		ldr	r5, .L143
 1955 00bc 3540     		ands	r5, r5, r6
 1956 00be 2561     		str	r5, [r4, #16]
 950:Drivers/STM32F7xx_HAL_Driver/Src/stm32f7xx_ll_usb.c **** 
 1957              		.loc 1 950 7 is_stmt 1 view .LVU602
 950:Drivers/STM32F7xx_HAL_Driver/Src/stm32f7xx_ll_usb.c **** 
 1958              		.loc 1 950 34 is_stmt 0 view .LVU603
 1959 00c0 2669     		ldr	r6, [r4, #16]
 1960 00c2 144D     		ldr	r5, .L143+4
 1961 00c4 3540     		ands	r5, r5, r6
 1962 00c6 2561     		str	r5, [r4, #16]
 952:Drivers/STM32F7xx_HAL_Driver/Src/stm32f7xx_ll_usb.c ****       {
 1963              		.loc 1 952 7 is_stmt 1 view .LVU604
 952:Drivers/STM32F7xx_HAL_Driver/Src/stm32f7xx_ll_usb.c ****       {
 1964              		.loc 1 952 13 is_stmt 0 view .LVU605
 1965 00c8 4E69     		ldr	r6, [r1, #20]
 952:Drivers/STM32F7xx_HAL_Driver/Src/stm32f7xx_ll_usb.c ****       {
 1966              		.loc 1 952 28 view .LVU606
 1967 00ca 8D68     		ldr	r5, [r1, #8]
 952:Drivers/STM32F7xx_HAL_Driver/Src/stm32f7xx_ll_usb.c ****       {
 1968              		.loc 1 952 10 view .LVU607
 1969 00cc AE42     		cmp	r6, r5
 1970 00ce 00D9     		bls	.L133
 954:Drivers/STM32F7xx_HAL_Driver/Src/stm32f7xx_ll_usb.c ****       }
 1971              		.loc 1 954 9 is_stmt 1 view .LVU608
 954:Drivers/STM32F7xx_HAL_Driver/Src/stm32f7xx_ll_usb.c ****       }
 1972              		.loc 1 954 22 is_stmt 0 view .LVU609
 1973 00d0 4D61     		str	r5, [r1, #20]
 1974              	.L133:
 956:Drivers/STM32F7xx_HAL_Driver/Src/stm32f7xx_ll_usb.c ****       USBx_INEP(epnum)->DIEPTSIZ |= (USB_OTG_DIEPTSIZ_XFRSIZ & ep->xfer_len);
 1975              		.loc 1 956 7 is_stmt 1 view .LVU610
 956:Drivers/STM32F7xx_HAL_Driver/Src/stm32f7xx_ll_usb.c ****       USBx_INEP(epnum)->DIEPTSIZ |= (USB_OTG_DIEPTSIZ_XFRSIZ & ep->xfer_len);
 1976              		.loc 1 956 34 is_stmt 0 view .LVU611
 1977 00d2 2569     		ldr	r5, [r4, #16]
 1978 00d4 45F40025 		orr	r5, r5, #524288
 1979 00d8 2561     		str	r5, [r4, #16]
 957:Drivers/STM32F7xx_HAL_Driver/Src/stm32f7xx_ll_usb.c ****     }
 1980              		.loc 1 957 7 is_stmt 1 view .LVU612
 957:Drivers/STM32F7xx_HAL_Driver/Src/stm32f7xx_ll_usb.c ****     }
 1981              		.loc 1 957 34 is_stmt 0 view .LVU613
 1982 00da 2569     		ldr	r5, [r4, #16]
 957:Drivers/STM32F7xx_HAL_Driver/Src/stm32f7xx_ll_usb.c ****     }
 1983              		.loc 1 957 66 view .LVU614
 1984 00dc 4E69     		ldr	r6, [r1, #20]
 957:Drivers/STM32F7xx_HAL_Driver/Src/stm32f7xx_ll_usb.c ****     }
 1985              		.loc 1 957 62 view .LVU615
 1986 00de C6F31206 		ubfx	r6, r6, #0, #19
ARM GAS  /tmp/ccrvI8Gd.s 			page 71


 957:Drivers/STM32F7xx_HAL_Driver/Src/stm32f7xx_ll_usb.c ****     }
 1987              		.loc 1 957 34 view .LVU616
 1988 00e2 3543     		orrs	r5, r5, r6
 1989 00e4 2561     		str	r5, [r4, #16]
 1990 00e6 CBE7     		b	.L132
 1991              	.L142:
 962:Drivers/STM32F7xx_HAL_Driver/Src/stm32f7xx_ll_usb.c ****       {
 1992              		.loc 1 962 7 is_stmt 1 view .LVU617
 962:Drivers/STM32F7xx_HAL_Driver/Src/stm32f7xx_ll_usb.c ****       {
 1993              		.loc 1 962 23 is_stmt 0 view .LVU618
 1994 00e8 0A69     		ldr	r2, [r1, #16]
 1995              	.LVL150:
 962:Drivers/STM32F7xx_HAL_Driver/Src/stm32f7xx_ll_usb.c ****       {
 1996              		.loc 1 962 10 view .LVU619
 1997 00ea 1AB1     		cbz	r2, .L135
 964:Drivers/STM32F7xx_HAL_Driver/Src/stm32f7xx_ll_usb.c ****       }
 1998              		.loc 1 964 9 is_stmt 1 view .LVU620
 1999 00ec 00EB4311 		add	r1, r0, r3, lsl #5
 2000              	.LVL151:
 964:Drivers/STM32F7xx_HAL_Driver/Src/stm32f7xx_ll_usb.c ****       }
 2001              		.loc 1 964 35 is_stmt 0 view .LVU621
 2002 00f0 C1F81429 		str	r2, [r1, #2324]
 2003              	.L135:
 968:Drivers/STM32F7xx_HAL_Driver/Src/stm32f7xx_ll_usb.c ****     }
 2004              		.loc 1 968 7 is_stmt 1 view .LVU622
 968:Drivers/STM32F7xx_HAL_Driver/Src/stm32f7xx_ll_usb.c ****     }
 2005              		.loc 1 968 33 is_stmt 0 view .LVU623
 2006 00f4 00EB4310 		add	r0, r0, r3, lsl #5
 2007              	.LVL152:
 968:Drivers/STM32F7xx_HAL_Driver/Src/stm32f7xx_ll_usb.c ****     }
 2008              		.loc 1 968 33 view .LVU624
 2009 00f8 D0F80029 		ldr	r2, [r0, #2304]
 2010 00fc 42F00442 		orr	r2, r2, #-2080374784
 2011 0100 C0F80029 		str	r2, [r0, #2304]
 2012 0104 A3E7     		b	.L136
 2013              	.LVL153:
 2014              	.L141:
1001:Drivers/STM32F7xx_HAL_Driver/Src/stm32f7xx_ll_usb.c ****       {
 2015              		.loc 1 1001 7 is_stmt 1 view .LVU625
1001:Drivers/STM32F7xx_HAL_Driver/Src/stm32f7xx_ll_usb.c ****       {
 2016              		.loc 1 1001 23 is_stmt 0 view .LVU626
 2017 0106 CA68     		ldr	r2, [r1, #12]
 2018              	.LVL154:
1001:Drivers/STM32F7xx_HAL_Driver/Src/stm32f7xx_ll_usb.c ****       {
 2019              		.loc 1 1001 10 view .LVU627
 2020 0108 002A     		cmp	r2, #0
 2021 010a 9AD0     		beq	.L138
1003:Drivers/STM32F7xx_HAL_Driver/Src/stm32f7xx_ll_usb.c ****       }
 2022              		.loc 1 1003 9 is_stmt 1 view .LVU628
1003:Drivers/STM32F7xx_HAL_Driver/Src/stm32f7xx_ll_usb.c ****       }
 2023              		.loc 1 1003 36 is_stmt 0 view .LVU629
 2024 010c 5A61     		str	r2, [r3, #20]
 2025 010e 98E7     		b	.L138
 2026              	.L144:
 2027              		.align	2
 2028              	.L143:
 2029 0110 0000F8FF 		.word	-524288
ARM GAS  /tmp/ccrvI8Gd.s 			page 72


 2030 0114 FFFF07E0 		.word	-536346625
 2031              		.cfi_endproc
 2032              	.LFE156:
 2034              		.section	.text.USB_WritePacket,"ax",%progbits
 2035              		.align	1
 2036              		.global	USB_WritePacket
 2037              		.syntax unified
 2038              		.thumb
 2039              		.thumb_func
 2040              		.fpu fpv5-d16
 2042              	USB_WritePacket:
 2043              	.LVL155:
 2044              	.LFB157:
1029:Drivers/STM32F7xx_HAL_Driver/Src/stm32f7xx_ll_usb.c ****   uint32_t USBx_BASE = (uint32_t)USBx;
 2045              		.loc 1 1029 1 is_stmt 1 view -0
 2046              		.cfi_startproc
 2047              		@ args = 4, pretend = 0, frame = 0
 2048              		@ frame_needed = 0, uses_anonymous_args = 0
 2049              		@ link register save eliminated.
1029:Drivers/STM32F7xx_HAL_Driver/Src/stm32f7xx_ll_usb.c ****   uint32_t USBx_BASE = (uint32_t)USBx;
 2050              		.loc 1 1029 1 is_stmt 0 view .LVU631
 2051 0000 70B4     		push	{r4, r5, r6}
 2052              	.LCFI31:
 2053              		.cfi_def_cfa_offset 12
 2054              		.cfi_offset 4, -12
 2055              		.cfi_offset 5, -8
 2056              		.cfi_offset 6, -4
 2057 0002 9DF80C40 		ldrb	r4, [sp, #12]	@ zero_extendqisi2
1030:Drivers/STM32F7xx_HAL_Driver/Src/stm32f7xx_ll_usb.c ****   uint8_t *pSrc = src;
 2058              		.loc 1 1030 3 is_stmt 1 view .LVU632
 2059              	.LVL156:
1031:Drivers/STM32F7xx_HAL_Driver/Src/stm32f7xx_ll_usb.c ****   uint32_t count32b;
 2060              		.loc 1 1031 3 view .LVU633
1032:Drivers/STM32F7xx_HAL_Driver/Src/stm32f7xx_ll_usb.c ****   uint32_t i;
 2061              		.loc 1 1032 3 view .LVU634
1033:Drivers/STM32F7xx_HAL_Driver/Src/stm32f7xx_ll_usb.c **** 
 2062              		.loc 1 1033 3 view .LVU635
1035:Drivers/STM32F7xx_HAL_Driver/Src/stm32f7xx_ll_usb.c ****   {
 2063              		.loc 1 1035 3 view .LVU636
1035:Drivers/STM32F7xx_HAL_Driver/Src/stm32f7xx_ll_usb.c ****   {
 2064              		.loc 1 1035 6 is_stmt 0 view .LVU637
 2065 0006 64B9     		cbnz	r4, .L146
1037:Drivers/STM32F7xx_HAL_Driver/Src/stm32f7xx_ll_usb.c ****     for (i = 0U; i < count32b; i++)
 2066              		.loc 1 1037 5 is_stmt 1 view .LVU638
1037:Drivers/STM32F7xx_HAL_Driver/Src/stm32f7xx_ll_usb.c ****     for (i = 0U; i < count32b; i++)
 2067              		.loc 1 1037 31 is_stmt 0 view .LVU639
 2068 0008 0333     		adds	r3, r3, #3
 2069              	.LVL157:
1037:Drivers/STM32F7xx_HAL_Driver/Src/stm32f7xx_ll_usb.c ****     for (i = 0U; i < count32b; i++)
 2070              		.loc 1 1037 14 view .LVU640
 2071 000a 9D08     		lsrs	r5, r3, #2
 2072              	.LVL158:
1038:Drivers/STM32F7xx_HAL_Driver/Src/stm32f7xx_ll_usb.c ****     {
 2073              		.loc 1 1038 5 is_stmt 1 view .LVU641
 2074              	.L147:
1038:Drivers/STM32F7xx_HAL_Driver/Src/stm32f7xx_ll_usb.c ****     {
 2075              		.loc 1 1038 18 discriminator 1 view .LVU642
ARM GAS  /tmp/ccrvI8Gd.s 			page 73


1038:Drivers/STM32F7xx_HAL_Driver/Src/stm32f7xx_ll_usb.c ****     {
 2076              		.loc 1 1038 5 is_stmt 0 discriminator 1 view .LVU643
 2077 000c AC42     		cmp	r4, r5
 2078 000e 08D2     		bcs	.L146
1040:Drivers/STM32F7xx_HAL_Driver/Src/stm32f7xx_ll_usb.c ****       pSrc++;
 2079              		.loc 1 1040 7 is_stmt 1 discriminator 3 view .LVU644
 2080 0010 00EB0233 		add	r3, r0, r2, lsl #12
 2081 0014 03F58053 		add	r3, r3, #4096
1040:Drivers/STM32F7xx_HAL_Driver/Src/stm32f7xx_ll_usb.c ****       pSrc++;
 2082              		.loc 1 1040 41 is_stmt 0 discriminator 3 view .LVU645
 2083 0018 51F8046B 		ldr	r6, [r1], #4	@ unaligned
 2084              	.LVL159:
1040:Drivers/STM32F7xx_HAL_Driver/Src/stm32f7xx_ll_usb.c ****       pSrc++;
 2085              		.loc 1 1040 39 discriminator 3 view .LVU646
 2086 001c 1E60     		str	r6, [r3]
1041:Drivers/STM32F7xx_HAL_Driver/Src/stm32f7xx_ll_usb.c ****       pSrc++;
 2087              		.loc 1 1041 7 is_stmt 1 discriminator 3 view .LVU647
 2088              	.LVL160:
1042:Drivers/STM32F7xx_HAL_Driver/Src/stm32f7xx_ll_usb.c ****       pSrc++;
 2089              		.loc 1 1042 7 discriminator 3 view .LVU648
1043:Drivers/STM32F7xx_HAL_Driver/Src/stm32f7xx_ll_usb.c ****       pSrc++;
 2090              		.loc 1 1043 7 discriminator 3 view .LVU649
1044:Drivers/STM32F7xx_HAL_Driver/Src/stm32f7xx_ll_usb.c ****     }
 2091              		.loc 1 1044 7 discriminator 3 view .LVU650
1038:Drivers/STM32F7xx_HAL_Driver/Src/stm32f7xx_ll_usb.c ****     {
 2092              		.loc 1 1038 32 discriminator 3 view .LVU651
1038:Drivers/STM32F7xx_HAL_Driver/Src/stm32f7xx_ll_usb.c ****     {
 2093              		.loc 1 1038 33 is_stmt 0 discriminator 3 view .LVU652
 2094 001e 0134     		adds	r4, r4, #1
 2095              	.LVL161:
1038:Drivers/STM32F7xx_HAL_Driver/Src/stm32f7xx_ll_usb.c ****     {
 2096              		.loc 1 1038 33 discriminator 3 view .LVU653
 2097 0020 F4E7     		b	.L147
 2098              	.LVL162:
 2099              	.L146:
1048:Drivers/STM32F7xx_HAL_Driver/Src/stm32f7xx_ll_usb.c **** }
 2100              		.loc 1 1048 3 is_stmt 1 view .LVU654
1049:Drivers/STM32F7xx_HAL_Driver/Src/stm32f7xx_ll_usb.c **** 
 2101              		.loc 1 1049 1 is_stmt 0 view .LVU655
 2102 0022 0020     		movs	r0, #0
 2103              	.LVL163:
1049:Drivers/STM32F7xx_HAL_Driver/Src/stm32f7xx_ll_usb.c **** 
 2104              		.loc 1 1049 1 view .LVU656
 2105 0024 70BC     		pop	{r4, r5, r6}
 2106              	.LCFI32:
 2107              		.cfi_restore 6
 2108              		.cfi_restore 5
 2109              		.cfi_restore 4
 2110              		.cfi_def_cfa_offset 0
 2111              	.LVL164:
1049:Drivers/STM32F7xx_HAL_Driver/Src/stm32f7xx_ll_usb.c **** 
 2112              		.loc 1 1049 1 view .LVU657
 2113 0026 7047     		bx	lr
 2114              		.cfi_endproc
 2115              	.LFE157:
 2117              		.section	.text.USB_EPStartXfer,"ax",%progbits
 2118              		.align	1
ARM GAS  /tmp/ccrvI8Gd.s 			page 74


 2119              		.global	USB_EPStartXfer
 2120              		.syntax unified
 2121              		.thumb
 2122              		.thumb_func
 2123              		.fpu fpv5-d16
 2125              	USB_EPStartXfer:
 2126              	.LVL165:
 2127              	.LFB155:
 784:Drivers/STM32F7xx_HAL_Driver/Src/stm32f7xx_ll_usb.c ****   uint32_t USBx_BASE = (uint32_t)USBx;
 2128              		.loc 1 784 1 is_stmt 1 view -0
 2129              		.cfi_startproc
 2130              		@ args = 0, pretend = 0, frame = 0
 2131              		@ frame_needed = 0, uses_anonymous_args = 0
 784:Drivers/STM32F7xx_HAL_Driver/Src/stm32f7xx_ll_usb.c ****   uint32_t USBx_BASE = (uint32_t)USBx;
 2132              		.loc 1 784 1 is_stmt 0 view .LVU659
 2133 0000 F0B5     		push	{r4, r5, r6, r7, lr}
 2134              	.LCFI33:
 2135              		.cfi_def_cfa_offset 20
 2136              		.cfi_offset 4, -20
 2137              		.cfi_offset 5, -16
 2138              		.cfi_offset 6, -12
 2139              		.cfi_offset 7, -8
 2140              		.cfi_offset 14, -4
 2141 0002 83B0     		sub	sp, sp, #12
 2142              	.LCFI34:
 2143              		.cfi_def_cfa_offset 32
 785:Drivers/STM32F7xx_HAL_Driver/Src/stm32f7xx_ll_usb.c ****   uint32_t epnum = (uint32_t)ep->num;
 2144              		.loc 1 785 3 is_stmt 1 view .LVU660
 2145              	.LVL166:
 786:Drivers/STM32F7xx_HAL_Driver/Src/stm32f7xx_ll_usb.c ****   uint16_t pktcnt;
 2146              		.loc 1 786 3 view .LVU661
 786:Drivers/STM32F7xx_HAL_Driver/Src/stm32f7xx_ll_usb.c ****   uint16_t pktcnt;
 2147              		.loc 1 786 32 is_stmt 0 view .LVU662
 2148 0004 0B78     		ldrb	r3, [r1]	@ zero_extendqisi2
 2149              	.LVL167:
 787:Drivers/STM32F7xx_HAL_Driver/Src/stm32f7xx_ll_usb.c **** 
 2150              		.loc 1 787 3 is_stmt 1 view .LVU663
 790:Drivers/STM32F7xx_HAL_Driver/Src/stm32f7xx_ll_usb.c ****   {
 2151              		.loc 1 790 3 view .LVU664
 790:Drivers/STM32F7xx_HAL_Driver/Src/stm32f7xx_ll_usb.c ****   {
 2152              		.loc 1 790 9 is_stmt 0 view .LVU665
 2153 0006 4C78     		ldrb	r4, [r1, #1]	@ zero_extendqisi2
 790:Drivers/STM32F7xx_HAL_Driver/Src/stm32f7xx_ll_usb.c ****   {
 2154              		.loc 1 790 6 view .LVU666
 2155 0008 012C     		cmp	r4, #1
 2156 000a 29D0     		beq	.L168
 876:Drivers/STM32F7xx_HAL_Driver/Src/stm32f7xx_ll_usb.c ****     USBx_OUTEP(epnum)->DOEPTSIZ &= ~(USB_OTG_DOEPTSIZ_PKTCNT);
 2157              		.loc 1 876 5 is_stmt 1 view .LVU667
 876:Drivers/STM32F7xx_HAL_Driver/Src/stm32f7xx_ll_usb.c ****     USBx_OUTEP(epnum)->DOEPTSIZ &= ~(USB_OTG_DOEPTSIZ_PKTCNT);
 2158              		.loc 1 876 33 is_stmt 0 view .LVU668
 2159 000c 00EB4313 		add	r3, r0, r3, lsl #5
 2160              	.LVL168:
 876:Drivers/STM32F7xx_HAL_Driver/Src/stm32f7xx_ll_usb.c ****     USBx_OUTEP(epnum)->DOEPTSIZ &= ~(USB_OTG_DOEPTSIZ_PKTCNT);
 2161              		.loc 1 876 33 view .LVU669
 2162 0010 03F53064 		add	r4, r3, #2816
 2163 0014 2669     		ldr	r6, [r4, #16]
 2164 0016 7C4D     		ldr	r5, .L173
ARM GAS  /tmp/ccrvI8Gd.s 			page 75


 2165 0018 3540     		ands	r5, r5, r6
 2166 001a 2561     		str	r5, [r4, #16]
 2167              	.LVL169:
 877:Drivers/STM32F7xx_HAL_Driver/Src/stm32f7xx_ll_usb.c **** 
 2168              		.loc 1 877 5 is_stmt 1 view .LVU670
 877:Drivers/STM32F7xx_HAL_Driver/Src/stm32f7xx_ll_usb.c **** 
 2169              		.loc 1 877 33 is_stmt 0 view .LVU671
 2170 001c 2669     		ldr	r6, [r4, #16]
 2171 001e 7B4D     		ldr	r5, .L173+4
 2172 0020 3540     		ands	r5, r5, r6
 2173 0022 2561     		str	r5, [r4, #16]
 879:Drivers/STM32F7xx_HAL_Driver/Src/stm32f7xx_ll_usb.c ****     {
 2174              		.loc 1 879 5 is_stmt 1 view .LVU672
 879:Drivers/STM32F7xx_HAL_Driver/Src/stm32f7xx_ll_usb.c ****     {
 2175              		.loc 1 879 11 is_stmt 0 view .LVU673
 2176 0024 4D69     		ldr	r5, [r1, #20]
 879:Drivers/STM32F7xx_HAL_Driver/Src/stm32f7xx_ll_usb.c ****     {
 2177              		.loc 1 879 8 view .LVU674
 2178 0026 002D     		cmp	r5, #0
 2179 0028 40F0BF80 		bne	.L162
 881:Drivers/STM32F7xx_HAL_Driver/Src/stm32f7xx_ll_usb.c ****       USBx_OUTEP(epnum)->DOEPTSIZ |= (USB_OTG_DOEPTSIZ_PKTCNT & (1U << 19));
 2180              		.loc 1 881 7 is_stmt 1 view .LVU675
 881:Drivers/STM32F7xx_HAL_Driver/Src/stm32f7xx_ll_usb.c ****       USBx_OUTEP(epnum)->DOEPTSIZ |= (USB_OTG_DOEPTSIZ_PKTCNT & (1U << 19));
 2181              		.loc 1 881 35 is_stmt 0 view .LVU676
 2182 002c 2569     		ldr	r5, [r4, #16]
 881:Drivers/STM32F7xx_HAL_Driver/Src/stm32f7xx_ll_usb.c ****       USBx_OUTEP(epnum)->DOEPTSIZ |= (USB_OTG_DOEPTSIZ_PKTCNT & (1U << 19));
 2183              		.loc 1 881 67 view .LVU677
 2184 002e 8E68     		ldr	r6, [r1, #8]
 881:Drivers/STM32F7xx_HAL_Driver/Src/stm32f7xx_ll_usb.c ****       USBx_OUTEP(epnum)->DOEPTSIZ |= (USB_OTG_DOEPTSIZ_PKTCNT & (1U << 19));
 2185              		.loc 1 881 63 view .LVU678
 2186 0030 C6F31206 		ubfx	r6, r6, #0, #19
 881:Drivers/STM32F7xx_HAL_Driver/Src/stm32f7xx_ll_usb.c ****       USBx_OUTEP(epnum)->DOEPTSIZ |= (USB_OTG_DOEPTSIZ_PKTCNT & (1U << 19));
 2187              		.loc 1 881 35 view .LVU679
 2188 0034 3543     		orrs	r5, r5, r6
 2189 0036 2561     		str	r5, [r4, #16]
 882:Drivers/STM32F7xx_HAL_Driver/Src/stm32f7xx_ll_usb.c ****     }
 2190              		.loc 1 882 7 is_stmt 1 view .LVU680
 882:Drivers/STM32F7xx_HAL_Driver/Src/stm32f7xx_ll_usb.c ****     }
 2191              		.loc 1 882 35 is_stmt 0 view .LVU681
 2192 0038 2569     		ldr	r5, [r4, #16]
 2193 003a 45F40025 		orr	r5, r5, #524288
 2194 003e 2561     		str	r5, [r4, #16]
 2195              	.L163:
 891:Drivers/STM32F7xx_HAL_Driver/Src/stm32f7xx_ll_usb.c ****     {
 2196              		.loc 1 891 5 is_stmt 1 view .LVU682
 891:Drivers/STM32F7xx_HAL_Driver/Src/stm32f7xx_ll_usb.c ****     {
 2197              		.loc 1 891 8 is_stmt 0 view .LVU683
 2198 0040 012A     		cmp	r2, #1
 2199 0042 00F0C780 		beq	.L169
 2200              	.LVL170:
 2201              	.L164:
 899:Drivers/STM32F7xx_HAL_Driver/Src/stm32f7xx_ll_usb.c ****     {
 2202              		.loc 1 899 5 is_stmt 1 view .LVU684
 899:Drivers/STM32F7xx_HAL_Driver/Src/stm32f7xx_ll_usb.c ****     {
 2203              		.loc 1 899 11 is_stmt 0 view .LVU685
 2204 0046 CA78     		ldrb	r2, [r1, #3]	@ zero_extendqisi2
 899:Drivers/STM32F7xx_HAL_Driver/Src/stm32f7xx_ll_usb.c ****     {
ARM GAS  /tmp/ccrvI8Gd.s 			page 76


 2205              		.loc 1 899 8 view .LVU686
 2206 0048 012A     		cmp	r2, #1
 2207 004a 00F0C980 		beq	.L170
 2208              	.L165:
 911:Drivers/STM32F7xx_HAL_Driver/Src/stm32f7xx_ll_usb.c ****   }
 2209              		.loc 1 911 5 is_stmt 1 view .LVU687
 911:Drivers/STM32F7xx_HAL_Driver/Src/stm32f7xx_ll_usb.c ****   }
 2210              		.loc 1 911 32 is_stmt 0 view .LVU688
 2211 004e D3F8002B 		ldr	r2, [r3, #2816]
 2212 0052 42F00442 		orr	r2, r2, #-2080374784
 2213 0056 C3F8002B 		str	r2, [r3, #2816]
 2214              	.LVL171:
 2215              	.L158:
 914:Drivers/STM32F7xx_HAL_Driver/Src/stm32f7xx_ll_usb.c **** }
 2216              		.loc 1 914 3 is_stmt 1 view .LVU689
 915:Drivers/STM32F7xx_HAL_Driver/Src/stm32f7xx_ll_usb.c **** 
 2217              		.loc 1 915 1 is_stmt 0 view .LVU690
 2218 005a 0020     		movs	r0, #0
 2219 005c 03B0     		add	sp, sp, #12
 2220              	.LCFI35:
 2221              		.cfi_remember_state
 2222              		.cfi_def_cfa_offset 20
 2223              		@ sp needed
 2224 005e F0BD     		pop	{r4, r5, r6, r7, pc}
 2225              	.LVL172:
 2226              	.L168:
 2227              	.LCFI36:
 2228              		.cfi_restore_state
 793:Drivers/STM32F7xx_HAL_Driver/Src/stm32f7xx_ll_usb.c ****     {
 2229              		.loc 1 793 5 is_stmt 1 view .LVU691
 793:Drivers/STM32F7xx_HAL_Driver/Src/stm32f7xx_ll_usb.c ****     {
 2230              		.loc 1 793 11 is_stmt 0 view .LVU692
 2231 0060 4C69     		ldr	r4, [r1, #20]
 793:Drivers/STM32F7xx_HAL_Driver/Src/stm32f7xx_ll_usb.c ****     {
 2232              		.loc 1 793 8 view .LVU693
 2233 0062 74BB     		cbnz	r4, .L152
 795:Drivers/STM32F7xx_HAL_Driver/Src/stm32f7xx_ll_usb.c ****       USBx_INEP(epnum)->DIEPTSIZ |= (USB_OTG_DIEPTSIZ_PKTCNT & (1U << 19));
 2234              		.loc 1 795 7 is_stmt 1 view .LVU694
 795:Drivers/STM32F7xx_HAL_Driver/Src/stm32f7xx_ll_usb.c ****       USBx_INEP(epnum)->DIEPTSIZ |= (USB_OTG_DIEPTSIZ_PKTCNT & (1U << 19));
 2235              		.loc 1 795 34 is_stmt 0 view .LVU695
 2236 0064 00EB4314 		add	r4, r0, r3, lsl #5
 2237 0068 D4F81069 		ldr	r6, [r4, #2320]
 2238 006c 674D     		ldr	r5, .L173+4
 2239 006e 3540     		ands	r5, r5, r6
 2240 0070 C4F81059 		str	r5, [r4, #2320]
 796:Drivers/STM32F7xx_HAL_Driver/Src/stm32f7xx_ll_usb.c ****       USBx_INEP(epnum)->DIEPTSIZ &= ~(USB_OTG_DIEPTSIZ_XFRSIZ);
 2241              		.loc 1 796 7 is_stmt 1 view .LVU696
 796:Drivers/STM32F7xx_HAL_Driver/Src/stm32f7xx_ll_usb.c ****       USBx_INEP(epnum)->DIEPTSIZ &= ~(USB_OTG_DIEPTSIZ_XFRSIZ);
 2242              		.loc 1 796 34 is_stmt 0 view .LVU697
 2243 0074 D4F81059 		ldr	r5, [r4, #2320]
 2244 0078 45F40025 		orr	r5, r5, #524288
 2245 007c C4F81059 		str	r5, [r4, #2320]
 797:Drivers/STM32F7xx_HAL_Driver/Src/stm32f7xx_ll_usb.c ****     }
 2246              		.loc 1 797 7 is_stmt 1 view .LVU698
 797:Drivers/STM32F7xx_HAL_Driver/Src/stm32f7xx_ll_usb.c ****     }
 2247              		.loc 1 797 34 is_stmt 0 view .LVU699
 2248 0080 D4F81069 		ldr	r6, [r4, #2320]
ARM GAS  /tmp/ccrvI8Gd.s 			page 77


 2249 0084 604D     		ldr	r5, .L173
 2250 0086 3540     		ands	r5, r5, r6
 2251 0088 C4F81059 		str	r5, [r4, #2320]
 2252              	.L153:
 820:Drivers/STM32F7xx_HAL_Driver/Src/stm32f7xx_ll_usb.c ****     {
 2253              		.loc 1 820 5 is_stmt 1 view .LVU700
 820:Drivers/STM32F7xx_HAL_Driver/Src/stm32f7xx_ll_usb.c ****     {
 2254              		.loc 1 820 8 is_stmt 0 view .LVU701
 2255 008c 012A     		cmp	r2, #1
 2256 008e 4AD0     		beq	.L171
 845:Drivers/STM32F7xx_HAL_Driver/Src/stm32f7xx_ll_usb.c **** 
 2257              		.loc 1 845 7 is_stmt 1 view .LVU702
 845:Drivers/STM32F7xx_HAL_Driver/Src/stm32f7xx_ll_usb.c **** 
 2258              		.loc 1 845 33 is_stmt 0 view .LVU703
 2259 0090 00EB4313 		add	r3, r0, r3, lsl #5
 2260              	.LVL173:
 845:Drivers/STM32F7xx_HAL_Driver/Src/stm32f7xx_ll_usb.c **** 
 2261              		.loc 1 845 33 view .LVU704
 2262 0094 D3F80049 		ldr	r4, [r3, #2304]
 2263 0098 44F00444 		orr	r4, r4, #-2080374784
 2264 009c C3F80049 		str	r4, [r3, #2304]
 847:Drivers/STM32F7xx_HAL_Driver/Src/stm32f7xx_ll_usb.c ****       {
 2265              		.loc 1 847 7 is_stmt 1 view .LVU705
 847:Drivers/STM32F7xx_HAL_Driver/Src/stm32f7xx_ll_usb.c ****       {
 2266              		.loc 1 847 13 is_stmt 0 view .LVU706
 2267 00a0 CC78     		ldrb	r4, [r1, #3]	@ zero_extendqisi2
 847:Drivers/STM32F7xx_HAL_Driver/Src/stm32f7xx_ll_usb.c ****       {
 2268              		.loc 1 847 10 view .LVU707
 2269 00a2 012C     		cmp	r4, #1
 2270 00a4 68D0     		beq	.L159
 850:Drivers/STM32F7xx_HAL_Driver/Src/stm32f7xx_ll_usb.c ****         {
 2271              		.loc 1 850 9 is_stmt 1 view .LVU708
 850:Drivers/STM32F7xx_HAL_Driver/Src/stm32f7xx_ll_usb.c ****         {
 2272              		.loc 1 850 15 is_stmt 0 view .LVU709
 2273 00a6 4B69     		ldr	r3, [r1, #20]
 850:Drivers/STM32F7xx_HAL_Driver/Src/stm32f7xx_ll_usb.c ****         {
 2274              		.loc 1 850 12 view .LVU710
 2275 00a8 002B     		cmp	r3, #0
 2276 00aa D6D0     		beq	.L158
 852:Drivers/STM32F7xx_HAL_Driver/Src/stm32f7xx_ll_usb.c ****         }
 2277              		.loc 1 852 11 is_stmt 1 view .LVU711
 852:Drivers/STM32F7xx_HAL_Driver/Src/stm32f7xx_ll_usb.c ****         }
 2278              		.loc 1 852 35 is_stmt 0 view .LVU712
 2279 00ac D0F83428 		ldr	r2, [r0, #2100]
 2280              	.LVL174:
 852:Drivers/STM32F7xx_HAL_Driver/Src/stm32f7xx_ll_usb.c ****         }
 2281              		.loc 1 852 48 view .LVU713
 2282 00b0 0978     		ldrb	r1, [r1]	@ zero_extendqisi2
 2283              	.LVL175:
 852:Drivers/STM32F7xx_HAL_Driver/Src/stm32f7xx_ll_usb.c ****         }
 2284              		.loc 1 852 54 view .LVU714
 2285 00b2 01F00F04 		and	r4, r1, #15
 852:Drivers/STM32F7xx_HAL_Driver/Src/stm32f7xx_ll_usb.c ****         }
 2286              		.loc 1 852 42 view .LVU715
 2287 00b6 0121     		movs	r1, #1
 2288 00b8 A140     		lsls	r1, r1, r4
 852:Drivers/STM32F7xx_HAL_Driver/Src/stm32f7xx_ll_usb.c ****         }
ARM GAS  /tmp/ccrvI8Gd.s 			page 78


 2289              		.loc 1 852 35 view .LVU716
 2290 00ba 0A43     		orrs	r2, r2, r1
 2291 00bc C0F83428 		str	r2, [r0, #2100]
 2292 00c0 CBE7     		b	.L158
 2293              	.LVL176:
 2294              	.L152:
 806:Drivers/STM32F7xx_HAL_Driver/Src/stm32f7xx_ll_usb.c ****       USBx_INEP(epnum)->DIEPTSIZ &= ~(USB_OTG_DIEPTSIZ_PKTCNT);
 2295              		.loc 1 806 7 is_stmt 1 view .LVU717
 806:Drivers/STM32F7xx_HAL_Driver/Src/stm32f7xx_ll_usb.c ****       USBx_INEP(epnum)->DIEPTSIZ &= ~(USB_OTG_DIEPTSIZ_PKTCNT);
 2296              		.loc 1 806 34 is_stmt 0 view .LVU718
 2297 00c2 00EB4314 		add	r4, r0, r3, lsl #5
 2298 00c6 D4F81069 		ldr	r6, [r4, #2320]
 2299 00ca 4F4D     		ldr	r5, .L173
 2300 00cc 3540     		ands	r5, r5, r6
 2301 00ce C4F81059 		str	r5, [r4, #2320]
 807:Drivers/STM32F7xx_HAL_Driver/Src/stm32f7xx_ll_usb.c ****       USBx_INEP(epnum)->DIEPTSIZ |= (USB_OTG_DIEPTSIZ_PKTCNT &
 2302              		.loc 1 807 7 is_stmt 1 view .LVU719
 807:Drivers/STM32F7xx_HAL_Driver/Src/stm32f7xx_ll_usb.c ****       USBx_INEP(epnum)->DIEPTSIZ |= (USB_OTG_DIEPTSIZ_PKTCNT &
 2303              		.loc 1 807 34 is_stmt 0 view .LVU720
 2304 00d2 D4F81069 		ldr	r6, [r4, #2320]
 2305 00d6 4D4D     		ldr	r5, .L173+4
 2306 00d8 3540     		ands	r5, r5, r6
 2307 00da C4F81059 		str	r5, [r4, #2320]
 808:Drivers/STM32F7xx_HAL_Driver/Src/stm32f7xx_ll_usb.c ****                                      (((ep->xfer_len + ep->maxpacket - 1U) / ep->maxpacket) << 19))
 2308              		.loc 1 808 7 is_stmt 1 view .LVU721
 808:Drivers/STM32F7xx_HAL_Driver/Src/stm32f7xx_ll_usb.c ****                                      (((ep->xfer_len + ep->maxpacket - 1U) / ep->maxpacket) << 19))
 2309              		.loc 1 808 34 is_stmt 0 view .LVU722
 2310 00de D4F81069 		ldr	r6, [r4, #2320]
 809:Drivers/STM32F7xx_HAL_Driver/Src/stm32f7xx_ll_usb.c **** 
 2311              		.loc 1 809 43 view .LVU723
 2312 00e2 4D69     		ldr	r5, [r1, #20]
 809:Drivers/STM32F7xx_HAL_Driver/Src/stm32f7xx_ll_usb.c **** 
 2313              		.loc 1 809 58 view .LVU724
 2314 00e4 8F68     		ldr	r7, [r1, #8]
 809:Drivers/STM32F7xx_HAL_Driver/Src/stm32f7xx_ll_usb.c **** 
 2315              		.loc 1 809 54 view .LVU725
 2316 00e6 3D44     		add	r5, r5, r7
 809:Drivers/STM32F7xx_HAL_Driver/Src/stm32f7xx_ll_usb.c **** 
 2317              		.loc 1 809 70 view .LVU726
 2318 00e8 013D     		subs	r5, r5, #1
 809:Drivers/STM32F7xx_HAL_Driver/Src/stm32f7xx_ll_usb.c **** 
 2319              		.loc 1 809 76 view .LVU727
 2320 00ea B5FBF7F5 		udiv	r5, r5, r7
 808:Drivers/STM32F7xx_HAL_Driver/Src/stm32f7xx_ll_usb.c ****                                      (((ep->xfer_len + ep->maxpacket - 1U) / ep->maxpacket) << 19))
 2321              		.loc 1 808 62 view .LVU728
 2322 00ee 484F     		ldr	r7, .L173+8
 2323 00f0 07EAC545 		and	r5, r7, r5, lsl #19
 808:Drivers/STM32F7xx_HAL_Driver/Src/stm32f7xx_ll_usb.c ****                                      (((ep->xfer_len + ep->maxpacket - 1U) / ep->maxpacket) << 19))
 2324              		.loc 1 808 34 view .LVU729
 2325 00f4 3543     		orrs	r5, r5, r6
 2326 00f6 C4F81059 		str	r5, [r4, #2320]
 811:Drivers/STM32F7xx_HAL_Driver/Src/stm32f7xx_ll_usb.c **** 
 2327              		.loc 1 811 7 is_stmt 1 view .LVU730
 811:Drivers/STM32F7xx_HAL_Driver/Src/stm32f7xx_ll_usb.c **** 
 2328              		.loc 1 811 34 is_stmt 0 view .LVU731
 2329 00fa D4F81059 		ldr	r5, [r4, #2320]
 811:Drivers/STM32F7xx_HAL_Driver/Src/stm32f7xx_ll_usb.c **** 
ARM GAS  /tmp/ccrvI8Gd.s 			page 79


 2330              		.loc 1 811 66 view .LVU732
 2331 00fe 4E69     		ldr	r6, [r1, #20]
 811:Drivers/STM32F7xx_HAL_Driver/Src/stm32f7xx_ll_usb.c **** 
 2332              		.loc 1 811 62 view .LVU733
 2333 0100 C6F31206 		ubfx	r6, r6, #0, #19
 811:Drivers/STM32F7xx_HAL_Driver/Src/stm32f7xx_ll_usb.c **** 
 2334              		.loc 1 811 34 view .LVU734
 2335 0104 3543     		orrs	r5, r5, r6
 2336 0106 C4F81059 		str	r5, [r4, #2320]
 806:Drivers/STM32F7xx_HAL_Driver/Src/stm32f7xx_ll_usb.c ****       USBx_INEP(epnum)->DIEPTSIZ &= ~(USB_OTG_DIEPTSIZ_PKTCNT);
 2337              		.loc 1 806 34 view .LVU735
 2338 010a 04F51064 		add	r4, r4, #2304
 813:Drivers/STM32F7xx_HAL_Driver/Src/stm32f7xx_ll_usb.c ****       {
 2339              		.loc 1 813 7 is_stmt 1 view .LVU736
 813:Drivers/STM32F7xx_HAL_Driver/Src/stm32f7xx_ll_usb.c ****       {
 2340              		.loc 1 813 13 is_stmt 0 view .LVU737
 2341 010e CD78     		ldrb	r5, [r1, #3]	@ zero_extendqisi2
 813:Drivers/STM32F7xx_HAL_Driver/Src/stm32f7xx_ll_usb.c ****       {
 2342              		.loc 1 813 10 view .LVU738
 2343 0110 012D     		cmp	r5, #1
 2344 0112 BBD1     		bne	.L153
 815:Drivers/STM32F7xx_HAL_Driver/Src/stm32f7xx_ll_usb.c ****         USBx_INEP(epnum)->DIEPTSIZ |= (USB_OTG_DIEPTSIZ_MULCNT & (1U << 29));
 2345              		.loc 1 815 9 is_stmt 1 view .LVU739
 815:Drivers/STM32F7xx_HAL_Driver/Src/stm32f7xx_ll_usb.c ****         USBx_INEP(epnum)->DIEPTSIZ |= (USB_OTG_DIEPTSIZ_MULCNT & (1U << 29));
 2346              		.loc 1 815 36 is_stmt 0 view .LVU740
 2347 0114 2569     		ldr	r5, [r4, #16]
 2348 0116 25F0C045 		bic	r5, r5, #1610612736
 2349 011a 2561     		str	r5, [r4, #16]
 816:Drivers/STM32F7xx_HAL_Driver/Src/stm32f7xx_ll_usb.c ****       }
 2350              		.loc 1 816 9 is_stmt 1 view .LVU741
 816:Drivers/STM32F7xx_HAL_Driver/Src/stm32f7xx_ll_usb.c ****       }
 2351              		.loc 1 816 36 is_stmt 0 view .LVU742
 2352 011c 2569     		ldr	r5, [r4, #16]
 2353 011e 45F00055 		orr	r5, r5, #536870912
 2354 0122 2561     		str	r5, [r4, #16]
 2355 0124 B2E7     		b	.L153
 2356              	.L171:
 822:Drivers/STM32F7xx_HAL_Driver/Src/stm32f7xx_ll_usb.c ****       {
 2357              		.loc 1 822 7 is_stmt 1 view .LVU743
 822:Drivers/STM32F7xx_HAL_Driver/Src/stm32f7xx_ll_usb.c ****       {
 2358              		.loc 1 822 23 is_stmt 0 view .LVU744
 2359 0126 0A69     		ldr	r2, [r1, #16]
 2360              	.LVL177:
 822:Drivers/STM32F7xx_HAL_Driver/Src/stm32f7xx_ll_usb.c ****       {
 2361              		.loc 1 822 10 view .LVU745
 2362 0128 1AB1     		cbz	r2, .L155
 824:Drivers/STM32F7xx_HAL_Driver/Src/stm32f7xx_ll_usb.c ****       }
 2363              		.loc 1 824 9 is_stmt 1 view .LVU746
 2364 012a 00EB4314 		add	r4, r0, r3, lsl #5
 824:Drivers/STM32F7xx_HAL_Driver/Src/stm32f7xx_ll_usb.c ****       }
 2365              		.loc 1 824 35 is_stmt 0 view .LVU747
 2366 012e C4F81429 		str	r2, [r4, #2324]
 2367              	.L155:
 827:Drivers/STM32F7xx_HAL_Driver/Src/stm32f7xx_ll_usb.c ****       {
 2368              		.loc 1 827 7 is_stmt 1 view .LVU748
 827:Drivers/STM32F7xx_HAL_Driver/Src/stm32f7xx_ll_usb.c ****       {
 2369              		.loc 1 827 13 is_stmt 0 view .LVU749
ARM GAS  /tmp/ccrvI8Gd.s 			page 80


 2370 0132 CA78     		ldrb	r2, [r1, #3]	@ zero_extendqisi2
 827:Drivers/STM32F7xx_HAL_Driver/Src/stm32f7xx_ll_usb.c ****       {
 2371              		.loc 1 827 10 view .LVU750
 2372 0134 012A     		cmp	r2, #1
 2373 0136 08D0     		beq	.L172
 2374              	.LVL178:
 2375              	.L156:
 840:Drivers/STM32F7xx_HAL_Driver/Src/stm32f7xx_ll_usb.c ****     }
 2376              		.loc 1 840 7 is_stmt 1 view .LVU751
 840:Drivers/STM32F7xx_HAL_Driver/Src/stm32f7xx_ll_usb.c ****     }
 2377              		.loc 1 840 33 is_stmt 0 view .LVU752
 2378 0138 00EB4313 		add	r3, r0, r3, lsl #5
 2379              	.LVL179:
 840:Drivers/STM32F7xx_HAL_Driver/Src/stm32f7xx_ll_usb.c ****     }
 2380              		.loc 1 840 33 view .LVU753
 2381 013c D3F80029 		ldr	r2, [r3, #2304]
 2382 0140 42F00442 		orr	r2, r2, #-2080374784
 2383 0144 C3F80029 		str	r2, [r3, #2304]
 2384 0148 87E7     		b	.L158
 2385              	.LVL180:
 2386              	.L172:
 829:Drivers/STM32F7xx_HAL_Driver/Src/stm32f7xx_ll_usb.c ****         {
 2387              		.loc 1 829 9 is_stmt 1 view .LVU754
 829:Drivers/STM32F7xx_HAL_Driver/Src/stm32f7xx_ll_usb.c ****         {
 2388              		.loc 1 829 25 is_stmt 0 view .LVU755
 2389 014a D0F80828 		ldr	r2, [r0, #2056]
 829:Drivers/STM32F7xx_HAL_Driver/Src/stm32f7xx_ll_usb.c ****         {
 2390              		.loc 1 829 12 view .LVU756
 2391 014e 12F4807F 		tst	r2, #256
 2392 0152 08D1     		bne	.L157
 831:Drivers/STM32F7xx_HAL_Driver/Src/stm32f7xx_ll_usb.c ****         }
 2393              		.loc 1 831 11 is_stmt 1 view .LVU757
 831:Drivers/STM32F7xx_HAL_Driver/Src/stm32f7xx_ll_usb.c ****         }
 2394              		.loc 1 831 37 is_stmt 0 view .LVU758
 2395 0154 00EB4311 		add	r1, r0, r3, lsl #5
 2396              	.LVL181:
 831:Drivers/STM32F7xx_HAL_Driver/Src/stm32f7xx_ll_usb.c ****         }
 2397              		.loc 1 831 37 view .LVU759
 2398 0158 D1F80029 		ldr	r2, [r1, #2304]
 2399 015c 42F00052 		orr	r2, r2, #536870912
 2400 0160 C1F80029 		str	r2, [r1, #2304]
 2401 0164 E8E7     		b	.L156
 2402              	.LVL182:
 2403              	.L157:
 835:Drivers/STM32F7xx_HAL_Driver/Src/stm32f7xx_ll_usb.c ****         }
 2404              		.loc 1 835 11 is_stmt 1 view .LVU760
 835:Drivers/STM32F7xx_HAL_Driver/Src/stm32f7xx_ll_usb.c ****         }
 2405              		.loc 1 835 37 is_stmt 0 view .LVU761
 2406 0166 00EB4311 		add	r1, r0, r3, lsl #5
 2407              	.LVL183:
 835:Drivers/STM32F7xx_HAL_Driver/Src/stm32f7xx_ll_usb.c ****         }
 2408              		.loc 1 835 37 view .LVU762
 2409 016a D1F80029 		ldr	r2, [r1, #2304]
 2410 016e 42F08052 		orr	r2, r2, #268435456
 2411 0172 C1F80029 		str	r2, [r1, #2304]
 2412 0176 DFE7     		b	.L156
 2413              	.LVL184:
ARM GAS  /tmp/ccrvI8Gd.s 			page 81


 2414              	.L159:
 857:Drivers/STM32F7xx_HAL_Driver/Src/stm32f7xx_ll_usb.c ****         {
 2415              		.loc 1 857 9 is_stmt 1 view .LVU763
 857:Drivers/STM32F7xx_HAL_Driver/Src/stm32f7xx_ll_usb.c ****         {
 2416              		.loc 1 857 25 is_stmt 0 view .LVU764
 2417 0178 D0F80848 		ldr	r4, [r0, #2056]
 857:Drivers/STM32F7xx_HAL_Driver/Src/stm32f7xx_ll_usb.c ****         {
 2418              		.loc 1 857 12 view .LVU765
 2419 017c 14F4807F 		tst	r4, #256
 2420 0180 0CD1     		bne	.L160
 859:Drivers/STM32F7xx_HAL_Driver/Src/stm32f7xx_ll_usb.c ****         }
 2421              		.loc 1 859 11 is_stmt 1 view .LVU766
 859:Drivers/STM32F7xx_HAL_Driver/Src/stm32f7xx_ll_usb.c ****         }
 2422              		.loc 1 859 37 is_stmt 0 view .LVU767
 2423 0182 D3F80049 		ldr	r4, [r3, #2304]
 2424 0186 44F00054 		orr	r4, r4, #536870912
 2425 018a C3F80049 		str	r4, [r3, #2304]
 2426              	.L161:
 866:Drivers/STM32F7xx_HAL_Driver/Src/stm32f7xx_ll_usb.c ****       }
 2427              		.loc 1 866 9 is_stmt 1 view .LVU768
 866:Drivers/STM32F7xx_HAL_Driver/Src/stm32f7xx_ll_usb.c ****       }
 2428              		.loc 1 866 15 is_stmt 0 view .LVU769
 2429 018e 0092     		str	r2, [sp]
 2430 0190 8B8A     		ldrh	r3, [r1, #20]
 2431 0192 0A78     		ldrb	r2, [r1]	@ zero_extendqisi2
 2432              	.LVL185:
 866:Drivers/STM32F7xx_HAL_Driver/Src/stm32f7xx_ll_usb.c ****       }
 2433              		.loc 1 866 15 view .LVU770
 2434 0194 C968     		ldr	r1, [r1, #12]
 2435              	.LVL186:
 866:Drivers/STM32F7xx_HAL_Driver/Src/stm32f7xx_ll_usb.c ****       }
 2436              		.loc 1 866 15 view .LVU771
 2437 0196 FFF7FEFF 		bl	USB_WritePacket
 2438              	.LVL187:
 866:Drivers/STM32F7xx_HAL_Driver/Src/stm32f7xx_ll_usb.c ****       }
 2439              		.loc 1 866 15 view .LVU772
 2440 019a 5EE7     		b	.L158
 2441              	.LVL188:
 2442              	.L160:
 863:Drivers/STM32F7xx_HAL_Driver/Src/stm32f7xx_ll_usb.c ****         }
 2443              		.loc 1 863 11 is_stmt 1 view .LVU773
 863:Drivers/STM32F7xx_HAL_Driver/Src/stm32f7xx_ll_usb.c ****         }
 2444              		.loc 1 863 37 is_stmt 0 view .LVU774
 2445 019c D3F80049 		ldr	r4, [r3, #2304]
 2446 01a0 44F08054 		orr	r4, r4, #268435456
 2447 01a4 C3F80049 		str	r4, [r3, #2304]
 2448 01a8 F1E7     		b	.L161
 2449              	.L162:
 886:Drivers/STM32F7xx_HAL_Driver/Src/stm32f7xx_ll_usb.c ****       USBx_OUTEP(epnum)->DOEPTSIZ |= USB_OTG_DOEPTSIZ_PKTCNT & ((uint32_t)pktcnt << 19);
 2450              		.loc 1 886 7 is_stmt 1 view .LVU775
 886:Drivers/STM32F7xx_HAL_Driver/Src/stm32f7xx_ll_usb.c ****       USBx_OUTEP(epnum)->DOEPTSIZ |= USB_OTG_DOEPTSIZ_PKTCNT & ((uint32_t)pktcnt << 19);
 2451              		.loc 1 886 45 is_stmt 0 view .LVU776
 2452 01aa 8E68     		ldr	r6, [r1, #8]
 886:Drivers/STM32F7xx_HAL_Driver/Src/stm32f7xx_ll_usb.c ****       USBx_OUTEP(epnum)->DOEPTSIZ |= USB_OTG_DOEPTSIZ_PKTCNT & ((uint32_t)pktcnt << 19);
 2453              		.loc 1 886 41 view .LVU777
 2454 01ac 3544     		add	r5, r5, r6
 886:Drivers/STM32F7xx_HAL_Driver/Src/stm32f7xx_ll_usb.c ****       USBx_OUTEP(epnum)->DOEPTSIZ |= USB_OTG_DOEPTSIZ_PKTCNT & ((uint32_t)pktcnt << 19);
ARM GAS  /tmp/ccrvI8Gd.s 			page 82


 2455              		.loc 1 886 57 view .LVU778
 2456 01ae 013D     		subs	r5, r5, #1
 886:Drivers/STM32F7xx_HAL_Driver/Src/stm32f7xx_ll_usb.c ****       USBx_OUTEP(epnum)->DOEPTSIZ |= USB_OTG_DOEPTSIZ_PKTCNT & ((uint32_t)pktcnt << 19);
 2457              		.loc 1 886 63 view .LVU779
 2458 01b0 B5FBF6F5 		udiv	r5, r5, r6
 2459              	.LVL189:
 887:Drivers/STM32F7xx_HAL_Driver/Src/stm32f7xx_ll_usb.c ****       USBx_OUTEP(epnum)->DOEPTSIZ |= USB_OTG_DOEPTSIZ_XFRSIZ & (ep->maxpacket * pktcnt);
 2460              		.loc 1 887 7 is_stmt 1 view .LVU780
 887:Drivers/STM32F7xx_HAL_Driver/Src/stm32f7xx_ll_usb.c ****       USBx_OUTEP(epnum)->DOEPTSIZ |= USB_OTG_DOEPTSIZ_XFRSIZ & (ep->maxpacket * pktcnt);
 2461              		.loc 1 887 35 is_stmt 0 view .LVU781
 2462 01b4 2669     		ldr	r6, [r4, #16]
 887:Drivers/STM32F7xx_HAL_Driver/Src/stm32f7xx_ll_usb.c ****       USBx_OUTEP(epnum)->DOEPTSIZ |= USB_OTG_DOEPTSIZ_XFRSIZ & (ep->maxpacket * pktcnt);
 2463              		.loc 1 887 62 view .LVU782
 2464 01b6 164F     		ldr	r7, .L173+8
 2465 01b8 07EAC547 		and	r7, r7, r5, lsl #19
 887:Drivers/STM32F7xx_HAL_Driver/Src/stm32f7xx_ll_usb.c ****       USBx_OUTEP(epnum)->DOEPTSIZ |= USB_OTG_DOEPTSIZ_XFRSIZ & (ep->maxpacket * pktcnt);
 2466              		.loc 1 887 35 view .LVU783
 2467 01bc 3E43     		orrs	r6, r6, r7
 2468 01be 2661     		str	r6, [r4, #16]
 888:Drivers/STM32F7xx_HAL_Driver/Src/stm32f7xx_ll_usb.c ****     }
 2469              		.loc 1 888 7 is_stmt 1 view .LVU784
 888:Drivers/STM32F7xx_HAL_Driver/Src/stm32f7xx_ll_usb.c ****     }
 2470              		.loc 1 888 35 is_stmt 0 view .LVU785
 2471 01c0 2769     		ldr	r7, [r4, #16]
 888:Drivers/STM32F7xx_HAL_Driver/Src/stm32f7xx_ll_usb.c ****     }
 2472              		.loc 1 888 67 view .LVU786
 2473 01c2 8E68     		ldr	r6, [r1, #8]
 888:Drivers/STM32F7xx_HAL_Driver/Src/stm32f7xx_ll_usb.c ****     }
 2474              		.loc 1 888 79 view .LVU787
 2475 01c4 ADB2     		uxth	r5, r5
 888:Drivers/STM32F7xx_HAL_Driver/Src/stm32f7xx_ll_usb.c ****     }
 2476              		.loc 1 888 79 view .LVU788
 2477 01c6 06FB05F5 		mul	r5, r6, r5
 2478              	.LVL190:
 888:Drivers/STM32F7xx_HAL_Driver/Src/stm32f7xx_ll_usb.c ****     }
 2479              		.loc 1 888 62 view .LVU789
 2480 01ca C5F31205 		ubfx	r5, r5, #0, #19
 888:Drivers/STM32F7xx_HAL_Driver/Src/stm32f7xx_ll_usb.c ****     }
 2481              		.loc 1 888 35 view .LVU790
 2482 01ce 3D43     		orrs	r5, r5, r7
 2483 01d0 2561     		str	r5, [r4, #16]
 2484 01d2 35E7     		b	.L163
 2485              	.L169:
 893:Drivers/STM32F7xx_HAL_Driver/Src/stm32f7xx_ll_usb.c ****       {
 2486              		.loc 1 893 7 is_stmt 1 view .LVU791
 893:Drivers/STM32F7xx_HAL_Driver/Src/stm32f7xx_ll_usb.c ****       {
 2487              		.loc 1 893 23 is_stmt 0 view .LVU792
 2488 01d4 CA68     		ldr	r2, [r1, #12]
 2489              	.LVL191:
 893:Drivers/STM32F7xx_HAL_Driver/Src/stm32f7xx_ll_usb.c ****       {
 2490              		.loc 1 893 10 view .LVU793
 2491 01d6 002A     		cmp	r2, #0
 2492 01d8 3FF435AF 		beq	.L164
 895:Drivers/STM32F7xx_HAL_Driver/Src/stm32f7xx_ll_usb.c ****       }
 2493              		.loc 1 895 9 is_stmt 1 view .LVU794
 895:Drivers/STM32F7xx_HAL_Driver/Src/stm32f7xx_ll_usb.c ****       }
 2494              		.loc 1 895 36 is_stmt 0 view .LVU795
ARM GAS  /tmp/ccrvI8Gd.s 			page 83


 2495 01dc 6261     		str	r2, [r4, #20]
 2496 01de 32E7     		b	.L164
 2497              	.L170:
 901:Drivers/STM32F7xx_HAL_Driver/Src/stm32f7xx_ll_usb.c ****       {
 2498              		.loc 1 901 7 is_stmt 1 view .LVU796
 901:Drivers/STM32F7xx_HAL_Driver/Src/stm32f7xx_ll_usb.c ****       {
 2499              		.loc 1 901 23 is_stmt 0 view .LVU797
 2500 01e0 D0F80828 		ldr	r2, [r0, #2056]
 901:Drivers/STM32F7xx_HAL_Driver/Src/stm32f7xx_ll_usb.c ****       {
 2501              		.loc 1 901 10 view .LVU798
 2502 01e4 12F4807F 		tst	r2, #256
 2503 01e8 06D1     		bne	.L166
 903:Drivers/STM32F7xx_HAL_Driver/Src/stm32f7xx_ll_usb.c ****       }
 2504              		.loc 1 903 9 is_stmt 1 view .LVU799
 903:Drivers/STM32F7xx_HAL_Driver/Src/stm32f7xx_ll_usb.c ****       }
 2505              		.loc 1 903 36 is_stmt 0 view .LVU800
 2506 01ea D3F8002B 		ldr	r2, [r3, #2816]
 2507 01ee 42F00052 		orr	r2, r2, #536870912
 2508 01f2 C3F8002B 		str	r2, [r3, #2816]
 2509 01f6 2AE7     		b	.L165
 2510              	.L166:
 907:Drivers/STM32F7xx_HAL_Driver/Src/stm32f7xx_ll_usb.c ****       }
 2511              		.loc 1 907 9 is_stmt 1 view .LVU801
 907:Drivers/STM32F7xx_HAL_Driver/Src/stm32f7xx_ll_usb.c ****       }
 2512              		.loc 1 907 36 is_stmt 0 view .LVU802
 2513 01f8 D3F8002B 		ldr	r2, [r3, #2816]
 2514 01fc 42F08052 		orr	r2, r2, #268435456
 2515 0200 C3F8002B 		str	r2, [r3, #2816]
 2516 0204 23E7     		b	.L165
 2517              	.L174:
 2518 0206 00BF     		.align	2
 2519              	.L173:
 2520 0208 0000F8FF 		.word	-524288
 2521 020c FFFF07E0 		.word	-536346625
 2522 0210 0000F81F 		.word	536346624
 2523              		.cfi_endproc
 2524              	.LFE155:
 2526              		.section	.text.USB_ReadPacket,"ax",%progbits
 2527              		.align	1
 2528              		.global	USB_ReadPacket
 2529              		.syntax unified
 2530              		.thumb
 2531              		.thumb_func
 2532              		.fpu fpv5-d16
 2534              	USB_ReadPacket:
 2535              	.LVL192:
 2536              	.LFB158:
1059:Drivers/STM32F7xx_HAL_Driver/Src/stm32f7xx_ll_usb.c ****   uint32_t USBx_BASE = (uint32_t)USBx;
 2537              		.loc 1 1059 1 is_stmt 1 view -0
 2538              		.cfi_startproc
 2539              		@ args = 0, pretend = 0, frame = 8
 2540              		@ frame_needed = 0, uses_anonymous_args = 0
 2541              		@ link register save eliminated.
1059:Drivers/STM32F7xx_HAL_Driver/Src/stm32f7xx_ll_usb.c ****   uint32_t USBx_BASE = (uint32_t)USBx;
 2542              		.loc 1 1059 1 is_stmt 0 view .LVU804
 2543 0000 F0B4     		push	{r4, r5, r6, r7}
 2544              	.LCFI37:
ARM GAS  /tmp/ccrvI8Gd.s 			page 84


 2545              		.cfi_def_cfa_offset 16
 2546              		.cfi_offset 4, -16
 2547              		.cfi_offset 5, -12
 2548              		.cfi_offset 6, -8
 2549              		.cfi_offset 7, -4
 2550 0002 82B0     		sub	sp, sp, #8
 2551              	.LCFI38:
 2552              		.cfi_def_cfa_offset 24
 2553 0004 0746     		mov	r7, r0
 2554 0006 0846     		mov	r0, r1
 2555              	.LVL193:
1060:Drivers/STM32F7xx_HAL_Driver/Src/stm32f7xx_ll_usb.c ****   uint8_t *pDest = dest;
 2556              		.loc 1 1060 3 is_stmt 1 view .LVU805
1060:Drivers/STM32F7xx_HAL_Driver/Src/stm32f7xx_ll_usb.c ****   uint8_t *pDest = dest;
 2557              		.loc 1 1060 12 is_stmt 0 view .LVU806
 2558 0008 3E46     		mov	r6, r7
 2559              	.LVL194:
1061:Drivers/STM32F7xx_HAL_Driver/Src/stm32f7xx_ll_usb.c ****   uint32_t pData;
 2560              		.loc 1 1061 3 is_stmt 1 view .LVU807
1062:Drivers/STM32F7xx_HAL_Driver/Src/stm32f7xx_ll_usb.c ****   uint32_t i;
 2561              		.loc 1 1062 3 view .LVU808
1063:Drivers/STM32F7xx_HAL_Driver/Src/stm32f7xx_ll_usb.c ****   uint32_t count32b = (uint32_t)len >> 2U;
 2562              		.loc 1 1063 3 view .LVU809
1064:Drivers/STM32F7xx_HAL_Driver/Src/stm32f7xx_ll_usb.c ****   uint16_t remaining_bytes = len % 4U;
 2563              		.loc 1 1064 3 view .LVU810
1064:Drivers/STM32F7xx_HAL_Driver/Src/stm32f7xx_ll_usb.c ****   uint16_t remaining_bytes = len % 4U;
 2564              		.loc 1 1064 37 is_stmt 0 view .LVU811
 2565 000a 9508     		lsrs	r5, r2, #2
 2566              	.LVL195:
1065:Drivers/STM32F7xx_HAL_Driver/Src/stm32f7xx_ll_usb.c **** 
 2567              		.loc 1 1065 3 is_stmt 1 view .LVU812
1065:Drivers/STM32F7xx_HAL_Driver/Src/stm32f7xx_ll_usb.c **** 
 2568              		.loc 1 1065 12 is_stmt 0 view .LVU813
 2569 000c 02F00302 		and	r2, r2, #3
 2570              	.LVL196:
1067:Drivers/STM32F7xx_HAL_Driver/Src/stm32f7xx_ll_usb.c ****   {
 2571              		.loc 1 1067 3 is_stmt 1 view .LVU814
1067:Drivers/STM32F7xx_HAL_Driver/Src/stm32f7xx_ll_usb.c ****   {
 2572              		.loc 1 1067 10 is_stmt 0 view .LVU815
 2573 0010 0023     		movs	r3, #0
 2574              	.LVL197:
 2575              	.L176:
1067:Drivers/STM32F7xx_HAL_Driver/Src/stm32f7xx_ll_usb.c ****   {
 2576              		.loc 1 1067 16 is_stmt 1 discriminator 1 view .LVU816
1067:Drivers/STM32F7xx_HAL_Driver/Src/stm32f7xx_ll_usb.c ****   {
 2577              		.loc 1 1067 3 is_stmt 0 discriminator 1 view .LVU817
 2578 0012 AB42     		cmp	r3, r5
 2579 0014 06D2     		bcs	.L181
1069:Drivers/STM32F7xx_HAL_Driver/Src/stm32f7xx_ll_usb.c ****     pDest++;
 2580              		.loc 1 1069 5 is_stmt 1 discriminator 3 view .LVU818
 2581 0016 06F58054 		add	r4, r6, #4096
 2582 001a 2468     		ldr	r4, [r4]
 2583 001c 40F8044B 		str	r4, [r0], #4	@ unaligned
 2584              	.LVL198:
1070:Drivers/STM32F7xx_HAL_Driver/Src/stm32f7xx_ll_usb.c ****     pDest++;
 2585              		.loc 1 1070 5 discriminator 3 view .LVU819
1071:Drivers/STM32F7xx_HAL_Driver/Src/stm32f7xx_ll_usb.c ****     pDest++;
ARM GAS  /tmp/ccrvI8Gd.s 			page 85


 2586              		.loc 1 1071 5 discriminator 3 view .LVU820
1072:Drivers/STM32F7xx_HAL_Driver/Src/stm32f7xx_ll_usb.c ****     pDest++;
 2587              		.loc 1 1072 5 discriminator 3 view .LVU821
1073:Drivers/STM32F7xx_HAL_Driver/Src/stm32f7xx_ll_usb.c ****   }
 2588              		.loc 1 1073 5 discriminator 3 view .LVU822
1067:Drivers/STM32F7xx_HAL_Driver/Src/stm32f7xx_ll_usb.c ****   {
 2589              		.loc 1 1067 30 discriminator 3 view .LVU823
1067:Drivers/STM32F7xx_HAL_Driver/Src/stm32f7xx_ll_usb.c ****   {
 2590              		.loc 1 1067 31 is_stmt 0 discriminator 3 view .LVU824
 2591 0020 0133     		adds	r3, r3, #1
 2592              	.LVL199:
1067:Drivers/STM32F7xx_HAL_Driver/Src/stm32f7xx_ll_usb.c ****   {
 2593              		.loc 1 1067 31 discriminator 3 view .LVU825
 2594 0022 F6E7     		b	.L176
 2595              	.LVL200:
 2596              	.L181:
1077:Drivers/STM32F7xx_HAL_Driver/Src/stm32f7xx_ll_usb.c ****   {
 2597              		.loc 1 1077 3 is_stmt 1 view .LVU826
1077:Drivers/STM32F7xx_HAL_Driver/Src/stm32f7xx_ll_usb.c ****   {
 2598              		.loc 1 1077 6 is_stmt 0 view .LVU827
 2599 0024 7AB1     		cbz	r2, .L178
1079:Drivers/STM32F7xx_HAL_Driver/Src/stm32f7xx_ll_usb.c ****     __UNALIGNED_UINT32_WRITE(&pData, USBx_DFIFO(0U));
 2600              		.loc 1 1079 5 is_stmt 1 view .LVU828
 2601              	.LVL201:
1080:Drivers/STM32F7xx_HAL_Driver/Src/stm32f7xx_ll_usb.c **** 
 2602              		.loc 1 1080 5 view .LVU829
 2603 0026 07F58057 		add	r7, r7, #4096
 2604 002a 3B68     		ldr	r3, [r7]
 2605 002c 0193     		str	r3, [sp, #4]
1079:Drivers/STM32F7xx_HAL_Driver/Src/stm32f7xx_ll_usb.c ****     __UNALIGNED_UINT32_WRITE(&pData, USBx_DFIFO(0U));
 2606              		.loc 1 1079 7 is_stmt 0 view .LVU830
 2607 002e 0025     		movs	r5, #0
 2608              	.LVL202:
 2609              	.L179:
1082:Drivers/STM32F7xx_HAL_Driver/Src/stm32f7xx_ll_usb.c ****     {
 2610              		.loc 1 1082 5 is_stmt 1 discriminator 1 view .LVU831
1084:Drivers/STM32F7xx_HAL_Driver/Src/stm32f7xx_ll_usb.c ****       i++;
 2611              		.loc 1 1084 7 discriminator 1 view .LVU832
1084:Drivers/STM32F7xx_HAL_Driver/Src/stm32f7xx_ll_usb.c ****       i++;
 2612              		.loc 1 1084 50 is_stmt 0 discriminator 1 view .LVU833
 2613 0030 EBB2     		uxtb	r3, r5
 2614 0032 DC00     		lsls	r4, r3, #3
1084:Drivers/STM32F7xx_HAL_Driver/Src/stm32f7xx_ll_usb.c ****       i++;
 2615              		.loc 1 1084 43 discriminator 1 view .LVU834
 2616 0034 019B     		ldr	r3, [sp, #4]
 2617 0036 E340     		lsrs	r3, r3, r4
1084:Drivers/STM32F7xx_HAL_Driver/Src/stm32f7xx_ll_usb.c ****       i++;
 2618              		.loc 1 1084 25 discriminator 1 view .LVU835
 2619 0038 00F8013B 		strb	r3, [r0], #1
 2620              	.LVL203:
1085:Drivers/STM32F7xx_HAL_Driver/Src/stm32f7xx_ll_usb.c ****       pDest++;
 2621              		.loc 1 1085 7 is_stmt 1 discriminator 1 view .LVU836
1085:Drivers/STM32F7xx_HAL_Driver/Src/stm32f7xx_ll_usb.c ****       pDest++;
 2622              		.loc 1 1085 8 is_stmt 0 discriminator 1 view .LVU837
 2623 003c 0135     		adds	r5, r5, #1
 2624              	.LVL204:
1086:Drivers/STM32F7xx_HAL_Driver/Src/stm32f7xx_ll_usb.c ****       remaining_bytes--;
ARM GAS  /tmp/ccrvI8Gd.s 			page 86


 2625              		.loc 1 1086 7 is_stmt 1 discriminator 1 view .LVU838
1087:Drivers/STM32F7xx_HAL_Driver/Src/stm32f7xx_ll_usb.c ****     } while (remaining_bytes != 0U);
 2626              		.loc 1 1087 7 discriminator 1 view .LVU839
1087:Drivers/STM32F7xx_HAL_Driver/Src/stm32f7xx_ll_usb.c ****     } while (remaining_bytes != 0U);
 2627              		.loc 1 1087 22 is_stmt 0 discriminator 1 view .LVU840
 2628 003e 013A     		subs	r2, r2, #1
 2629              	.LVL205:
1087:Drivers/STM32F7xx_HAL_Driver/Src/stm32f7xx_ll_usb.c ****     } while (remaining_bytes != 0U);
 2630              		.loc 1 1087 22 discriminator 1 view .LVU841
 2631 0040 92B2     		uxth	r2, r2
 2632              	.LVL206:
1088:Drivers/STM32F7xx_HAL_Driver/Src/stm32f7xx_ll_usb.c ****   }
 2633              		.loc 1 1088 13 is_stmt 1 discriminator 1 view .LVU842
1088:Drivers/STM32F7xx_HAL_Driver/Src/stm32f7xx_ll_usb.c ****   }
 2634              		.loc 1 1088 5 is_stmt 0 discriminator 1 view .LVU843
 2635 0042 002A     		cmp	r2, #0
 2636 0044 F4D1     		bne	.L179
 2637              	.LVL207:
 2638              	.L178:
1091:Drivers/STM32F7xx_HAL_Driver/Src/stm32f7xx_ll_usb.c **** }
 2639              		.loc 1 1091 3 is_stmt 1 view .LVU844
1092:Drivers/STM32F7xx_HAL_Driver/Src/stm32f7xx_ll_usb.c **** 
 2640              		.loc 1 1092 1 is_stmt 0 view .LVU845
 2641 0046 02B0     		add	sp, sp, #8
 2642              	.LCFI39:
 2643              		.cfi_def_cfa_offset 16
 2644              		@ sp needed
 2645 0048 F0BC     		pop	{r4, r5, r6, r7}
 2646              	.LCFI40:
 2647              		.cfi_restore 7
 2648              		.cfi_restore 6
 2649              		.cfi_restore 5
 2650              		.cfi_restore 4
 2651              		.cfi_def_cfa_offset 0
 2652              	.LVL208:
1092:Drivers/STM32F7xx_HAL_Driver/Src/stm32f7xx_ll_usb.c **** 
 2653              		.loc 1 1092 1 view .LVU846
 2654 004a 7047     		bx	lr
 2655              		.cfi_endproc
 2656              	.LFE158:
 2658              		.section	.text.USB_EPSetStall,"ax",%progbits
 2659              		.align	1
 2660              		.global	USB_EPSetStall
 2661              		.syntax unified
 2662              		.thumb
 2663              		.thumb_func
 2664              		.fpu fpv5-d16
 2666              	USB_EPSetStall:
 2667              	.LVL209:
 2668              	.LFB159:
1101:Drivers/STM32F7xx_HAL_Driver/Src/stm32f7xx_ll_usb.c ****   uint32_t USBx_BASE = (uint32_t)USBx;
 2669              		.loc 1 1101 1 is_stmt 1 view -0
 2670              		.cfi_startproc
 2671              		@ args = 0, pretend = 0, frame = 0
 2672              		@ frame_needed = 0, uses_anonymous_args = 0
 2673              		@ link register save eliminated.
1102:Drivers/STM32F7xx_HAL_Driver/Src/stm32f7xx_ll_usb.c ****   uint32_t epnum = (uint32_t)ep->num;
ARM GAS  /tmp/ccrvI8Gd.s 			page 87


 2674              		.loc 1 1102 3 view .LVU848
1103:Drivers/STM32F7xx_HAL_Driver/Src/stm32f7xx_ll_usb.c **** 
 2675              		.loc 1 1103 3 view .LVU849
1103:Drivers/STM32F7xx_HAL_Driver/Src/stm32f7xx_ll_usb.c **** 
 2676              		.loc 1 1103 32 is_stmt 0 view .LVU850
 2677 0000 0B78     		ldrb	r3, [r1]	@ zero_extendqisi2
 2678              	.LVL210:
1105:Drivers/STM32F7xx_HAL_Driver/Src/stm32f7xx_ll_usb.c ****   {
 2679              		.loc 1 1105 3 is_stmt 1 view .LVU851
1105:Drivers/STM32F7xx_HAL_Driver/Src/stm32f7xx_ll_usb.c ****   {
 2680              		.loc 1 1105 9 is_stmt 0 view .LVU852
 2681 0002 4A78     		ldrb	r2, [r1, #1]	@ zero_extendqisi2
1105:Drivers/STM32F7xx_HAL_Driver/Src/stm32f7xx_ll_usb.c ****   {
 2682              		.loc 1 1105 6 view .LVU853
 2683 0004 012A     		cmp	r2, #1
 2684 0006 14D0     		beq	.L187
1115:Drivers/STM32F7xx_HAL_Driver/Src/stm32f7xx_ll_usb.c ****     {
 2685              		.loc 1 1115 5 is_stmt 1 view .LVU854
1115:Drivers/STM32F7xx_HAL_Driver/Src/stm32f7xx_ll_usb.c ****     {
 2686              		.loc 1 1115 11 is_stmt 0 view .LVU855
 2687 0008 00EB4310 		add	r0, r0, r3, lsl #5
 2688              	.LVL211:
1115:Drivers/STM32F7xx_HAL_Driver/Src/stm32f7xx_ll_usb.c ****     {
 2689              		.loc 1 1115 28 view .LVU856
 2690 000c D0F8002B 		ldr	r2, [r0, #2816]
1115:Drivers/STM32F7xx_HAL_Driver/Src/stm32f7xx_ll_usb.c ****     {
 2691              		.loc 1 1115 8 view .LVU857
 2692 0010 002A     		cmp	r2, #0
 2693 0012 06DB     		blt	.L186
1115:Drivers/STM32F7xx_HAL_Driver/Src/stm32f7xx_ll_usb.c ****     {
 2694              		.loc 1 1115 70 discriminator 1 view .LVU858
 2695 0014 2BB1     		cbz	r3, .L186
1117:Drivers/STM32F7xx_HAL_Driver/Src/stm32f7xx_ll_usb.c ****     }
 2696              		.loc 1 1117 7 is_stmt 1 view .LVU859
1117:Drivers/STM32F7xx_HAL_Driver/Src/stm32f7xx_ll_usb.c ****     }
 2697              		.loc 1 1117 34 is_stmt 0 view .LVU860
 2698 0016 D0F8003B 		ldr	r3, [r0, #2816]
 2699              	.LVL212:
1117:Drivers/STM32F7xx_HAL_Driver/Src/stm32f7xx_ll_usb.c ****     }
 2700              		.loc 1 1117 34 view .LVU861
 2701 001a 23F08043 		bic	r3, r3, #1073741824
 2702 001e C0F8003B 		str	r3, [r0, #2816]
 2703              	.LVL213:
 2704              	.L186:
1119:Drivers/STM32F7xx_HAL_Driver/Src/stm32f7xx_ll_usb.c ****   }
 2705              		.loc 1 1119 5 is_stmt 1 view .LVU862
1119:Drivers/STM32F7xx_HAL_Driver/Src/stm32f7xx_ll_usb.c ****   }
 2706              		.loc 1 1119 32 is_stmt 0 view .LVU863
 2707 0022 D0F8003B 		ldr	r3, [r0, #2816]
 2708 0026 43F40013 		orr	r3, r3, #2097152
 2709 002a C0F8003B 		str	r3, [r0, #2816]
 2710              	.L185:
1122:Drivers/STM32F7xx_HAL_Driver/Src/stm32f7xx_ll_usb.c **** }
 2711              		.loc 1 1122 3 is_stmt 1 view .LVU864
1123:Drivers/STM32F7xx_HAL_Driver/Src/stm32f7xx_ll_usb.c **** 
 2712              		.loc 1 1123 1 is_stmt 0 view .LVU865
 2713 002e 0020     		movs	r0, #0
ARM GAS  /tmp/ccrvI8Gd.s 			page 88


 2714 0030 7047     		bx	lr
 2715              	.LVL214:
 2716              	.L187:
1107:Drivers/STM32F7xx_HAL_Driver/Src/stm32f7xx_ll_usb.c ****     {
 2717              		.loc 1 1107 5 is_stmt 1 view .LVU866
1107:Drivers/STM32F7xx_HAL_Driver/Src/stm32f7xx_ll_usb.c ****     {
 2718              		.loc 1 1107 11 is_stmt 0 view .LVU867
 2719 0032 00EB4310 		add	r0, r0, r3, lsl #5
 2720              	.LVL215:
1107:Drivers/STM32F7xx_HAL_Driver/Src/stm32f7xx_ll_usb.c ****     {
 2721              		.loc 1 1107 27 view .LVU868
 2722 0036 D0F80029 		ldr	r2, [r0, #2304]
1107:Drivers/STM32F7xx_HAL_Driver/Src/stm32f7xx_ll_usb.c ****     {
 2723              		.loc 1 1107 8 view .LVU869
 2724 003a 002A     		cmp	r2, #0
 2725 003c 06DB     		blt	.L184
1107:Drivers/STM32F7xx_HAL_Driver/Src/stm32f7xx_ll_usb.c ****     {
 2726              		.loc 1 1107 69 discriminator 1 view .LVU870
 2727 003e 2BB1     		cbz	r3, .L184
1109:Drivers/STM32F7xx_HAL_Driver/Src/stm32f7xx_ll_usb.c ****     }
 2728              		.loc 1 1109 7 is_stmt 1 view .LVU871
1109:Drivers/STM32F7xx_HAL_Driver/Src/stm32f7xx_ll_usb.c ****     }
 2729              		.loc 1 1109 33 is_stmt 0 view .LVU872
 2730 0040 D0F80039 		ldr	r3, [r0, #2304]
 2731              	.LVL216:
1109:Drivers/STM32F7xx_HAL_Driver/Src/stm32f7xx_ll_usb.c ****     }
 2732              		.loc 1 1109 33 view .LVU873
 2733 0044 23F08043 		bic	r3, r3, #1073741824
 2734 0048 C0F80039 		str	r3, [r0, #2304]
 2735              	.LVL217:
 2736              	.L184:
1111:Drivers/STM32F7xx_HAL_Driver/Src/stm32f7xx_ll_usb.c ****   }
 2737              		.loc 1 1111 5 is_stmt 1 view .LVU874
1111:Drivers/STM32F7xx_HAL_Driver/Src/stm32f7xx_ll_usb.c ****   }
 2738              		.loc 1 1111 31 is_stmt 0 view .LVU875
 2739 004c D0F80039 		ldr	r3, [r0, #2304]
 2740 0050 43F40013 		orr	r3, r3, #2097152
 2741 0054 C0F80039 		str	r3, [r0, #2304]
 2742 0058 E9E7     		b	.L185
 2743              		.cfi_endproc
 2744              	.LFE159:
 2746              		.section	.text.USB_EPClearStall,"ax",%progbits
 2747              		.align	1
 2748              		.global	USB_EPClearStall
 2749              		.syntax unified
 2750              		.thumb
 2751              		.thumb_func
 2752              		.fpu fpv5-d16
 2754              	USB_EPClearStall:
 2755              	.LVL218:
 2756              	.LFB160:
1132:Drivers/STM32F7xx_HAL_Driver/Src/stm32f7xx_ll_usb.c ****   uint32_t USBx_BASE = (uint32_t)USBx;
 2757              		.loc 1 1132 1 is_stmt 1 view -0
 2758              		.cfi_startproc
 2759              		@ args = 0, pretend = 0, frame = 0
 2760              		@ frame_needed = 0, uses_anonymous_args = 0
 2761              		@ link register save eliminated.
ARM GAS  /tmp/ccrvI8Gd.s 			page 89


1133:Drivers/STM32F7xx_HAL_Driver/Src/stm32f7xx_ll_usb.c ****   uint32_t epnum = (uint32_t)ep->num;
 2762              		.loc 1 1133 3 view .LVU877
1134:Drivers/STM32F7xx_HAL_Driver/Src/stm32f7xx_ll_usb.c **** 
 2763              		.loc 1 1134 3 view .LVU878
1134:Drivers/STM32F7xx_HAL_Driver/Src/stm32f7xx_ll_usb.c **** 
 2764              		.loc 1 1134 32 is_stmt 0 view .LVU879
 2765 0000 0B78     		ldrb	r3, [r1]	@ zero_extendqisi2
 2766              	.LVL219:
1136:Drivers/STM32F7xx_HAL_Driver/Src/stm32f7xx_ll_usb.c ****   {
 2767              		.loc 1 1136 3 is_stmt 1 view .LVU880
1136:Drivers/STM32F7xx_HAL_Driver/Src/stm32f7xx_ll_usb.c ****   {
 2768              		.loc 1 1136 9 is_stmt 0 view .LVU881
 2769 0002 4A78     		ldrb	r2, [r1, #1]	@ zero_extendqisi2
1136:Drivers/STM32F7xx_HAL_Driver/Src/stm32f7xx_ll_usb.c ****   {
 2770              		.loc 1 1136 6 view .LVU882
 2771 0004 012A     		cmp	r2, #1
 2772 0006 0ED0     		beq	.L191
1146:Drivers/STM32F7xx_HAL_Driver/Src/stm32f7xx_ll_usb.c ****     if ((ep->type == EP_TYPE_INTR) || (ep->type == EP_TYPE_BULK))
 2773              		.loc 1 1146 5 is_stmt 1 view .LVU883
1146:Drivers/STM32F7xx_HAL_Driver/Src/stm32f7xx_ll_usb.c ****     if ((ep->type == EP_TYPE_INTR) || (ep->type == EP_TYPE_BULK))
 2774              		.loc 1 1146 32 is_stmt 0 view .LVU884
 2775 0008 00EB4310 		add	r0, r0, r3, lsl #5
 2776              	.LVL220:
1146:Drivers/STM32F7xx_HAL_Driver/Src/stm32f7xx_ll_usb.c ****     if ((ep->type == EP_TYPE_INTR) || (ep->type == EP_TYPE_BULK))
 2777              		.loc 1 1146 32 view .LVU885
 2778 000c D0F8003B 		ldr	r3, [r0, #2816]
 2779              	.LVL221:
1146:Drivers/STM32F7xx_HAL_Driver/Src/stm32f7xx_ll_usb.c ****     if ((ep->type == EP_TYPE_INTR) || (ep->type == EP_TYPE_BULK))
 2780              		.loc 1 1146 32 view .LVU886
 2781 0010 23F40013 		bic	r3, r3, #2097152
 2782 0014 C0F8003B 		str	r3, [r0, #2816]
 2783              	.LVL222:
1147:Drivers/STM32F7xx_HAL_Driver/Src/stm32f7xx_ll_usb.c ****     {
 2784              		.loc 1 1147 5 is_stmt 1 view .LVU887
1147:Drivers/STM32F7xx_HAL_Driver/Src/stm32f7xx_ll_usb.c ****     {
 2785              		.loc 1 1147 12 is_stmt 0 view .LVU888
 2786 0018 CB78     		ldrb	r3, [r1, #3]	@ zero_extendqisi2
1147:Drivers/STM32F7xx_HAL_Driver/Src/stm32f7xx_ll_usb.c ****     {
 2787              		.loc 1 1147 36 view .LVU889
 2788 001a 023B     		subs	r3, r3, #2
 2789 001c DBB2     		uxtb	r3, r3
1147:Drivers/STM32F7xx_HAL_Driver/Src/stm32f7xx_ll_usb.c ****     {
 2790              		.loc 1 1147 8 view .LVU890
 2791 001e 012B     		cmp	r3, #1
 2792 0020 15D9     		bls	.L192
 2793              	.L190:
1152:Drivers/STM32F7xx_HAL_Driver/Src/stm32f7xx_ll_usb.c **** }
 2794              		.loc 1 1152 3 is_stmt 1 view .LVU891
1153:Drivers/STM32F7xx_HAL_Driver/Src/stm32f7xx_ll_usb.c **** 
 2795              		.loc 1 1153 1 is_stmt 0 view .LVU892
 2796 0022 0020     		movs	r0, #0
 2797 0024 7047     		bx	lr
 2798              	.LVL223:
 2799              	.L191:
1138:Drivers/STM32F7xx_HAL_Driver/Src/stm32f7xx_ll_usb.c ****     if ((ep->type == EP_TYPE_INTR) || (ep->type == EP_TYPE_BULK))
 2800              		.loc 1 1138 5 is_stmt 1 view .LVU893
1138:Drivers/STM32F7xx_HAL_Driver/Src/stm32f7xx_ll_usb.c ****     if ((ep->type == EP_TYPE_INTR) || (ep->type == EP_TYPE_BULK))
ARM GAS  /tmp/ccrvI8Gd.s 			page 90


 2801              		.loc 1 1138 31 is_stmt 0 view .LVU894
 2802 0026 00EB4310 		add	r0, r0, r3, lsl #5
 2803              	.LVL224:
1138:Drivers/STM32F7xx_HAL_Driver/Src/stm32f7xx_ll_usb.c ****     if ((ep->type == EP_TYPE_INTR) || (ep->type == EP_TYPE_BULK))
 2804              		.loc 1 1138 31 view .LVU895
 2805 002a D0F80039 		ldr	r3, [r0, #2304]
 2806              	.LVL225:
1138:Drivers/STM32F7xx_HAL_Driver/Src/stm32f7xx_ll_usb.c ****     if ((ep->type == EP_TYPE_INTR) || (ep->type == EP_TYPE_BULK))
 2807              		.loc 1 1138 31 view .LVU896
 2808 002e 23F40013 		bic	r3, r3, #2097152
 2809 0032 C0F80039 		str	r3, [r0, #2304]
 2810              	.LVL226:
1139:Drivers/STM32F7xx_HAL_Driver/Src/stm32f7xx_ll_usb.c ****     {
 2811              		.loc 1 1139 5 is_stmt 1 view .LVU897
1139:Drivers/STM32F7xx_HAL_Driver/Src/stm32f7xx_ll_usb.c ****     {
 2812              		.loc 1 1139 12 is_stmt 0 view .LVU898
 2813 0036 CB78     		ldrb	r3, [r1, #3]	@ zero_extendqisi2
1139:Drivers/STM32F7xx_HAL_Driver/Src/stm32f7xx_ll_usb.c ****     {
 2814              		.loc 1 1139 36 view .LVU899
 2815 0038 023B     		subs	r3, r3, #2
 2816 003a DBB2     		uxtb	r3, r3
1139:Drivers/STM32F7xx_HAL_Driver/Src/stm32f7xx_ll_usb.c ****     {
 2817              		.loc 1 1139 8 view .LVU900
 2818 003c 012B     		cmp	r3, #1
 2819 003e F0D8     		bhi	.L190
1141:Drivers/STM32F7xx_HAL_Driver/Src/stm32f7xx_ll_usb.c ****     }
 2820              		.loc 1 1141 7 is_stmt 1 view .LVU901
1141:Drivers/STM32F7xx_HAL_Driver/Src/stm32f7xx_ll_usb.c ****     }
 2821              		.loc 1 1141 33 is_stmt 0 view .LVU902
 2822 0040 D0F80039 		ldr	r3, [r0, #2304]
 2823 0044 43F08053 		orr	r3, r3, #268435456
 2824 0048 C0F80039 		str	r3, [r0, #2304]
 2825 004c E9E7     		b	.L190
 2826              	.L192:
1149:Drivers/STM32F7xx_HAL_Driver/Src/stm32f7xx_ll_usb.c ****     }
 2827              		.loc 1 1149 7 is_stmt 1 view .LVU903
1149:Drivers/STM32F7xx_HAL_Driver/Src/stm32f7xx_ll_usb.c ****     }
 2828              		.loc 1 1149 34 is_stmt 0 view .LVU904
 2829 004e D0F8003B 		ldr	r3, [r0, #2816]
 2830 0052 43F08053 		orr	r3, r3, #268435456
 2831 0056 C0F8003B 		str	r3, [r0, #2816]
 2832 005a E2E7     		b	.L190
 2833              		.cfi_endproc
 2834              	.LFE160:
 2836              		.section	.text.USB_StopDevice,"ax",%progbits
 2837              		.align	1
 2838              		.global	USB_StopDevice
 2839              		.syntax unified
 2840              		.thumb
 2841              		.thumb_func
 2842              		.fpu fpv5-d16
 2844              	USB_StopDevice:
 2845              	.LVL227:
 2846              	.LFB161:
1161:Drivers/STM32F7xx_HAL_Driver/Src/stm32f7xx_ll_usb.c ****   HAL_StatusTypeDef ret;
 2847              		.loc 1 1161 1 is_stmt 1 view -0
 2848              		.cfi_startproc
ARM GAS  /tmp/ccrvI8Gd.s 			page 91


 2849              		@ args = 0, pretend = 0, frame = 0
 2850              		@ frame_needed = 0, uses_anonymous_args = 0
1161:Drivers/STM32F7xx_HAL_Driver/Src/stm32f7xx_ll_usb.c ****   HAL_StatusTypeDef ret;
 2851              		.loc 1 1161 1 is_stmt 0 view .LVU906
 2852 0000 70B5     		push	{r4, r5, r6, lr}
 2853              	.LCFI41:
 2854              		.cfi_def_cfa_offset 16
 2855              		.cfi_offset 4, -16
 2856              		.cfi_offset 5, -12
 2857              		.cfi_offset 6, -8
 2858              		.cfi_offset 14, -4
 2859 0002 0646     		mov	r6, r0
1162:Drivers/STM32F7xx_HAL_Driver/Src/stm32f7xx_ll_usb.c ****   uint32_t USBx_BASE = (uint32_t)USBx;
 2860              		.loc 1 1162 3 is_stmt 1 view .LVU907
1163:Drivers/STM32F7xx_HAL_Driver/Src/stm32f7xx_ll_usb.c ****   uint32_t i;
 2861              		.loc 1 1163 3 view .LVU908
1163:Drivers/STM32F7xx_HAL_Driver/Src/stm32f7xx_ll_usb.c ****   uint32_t i;
 2862              		.loc 1 1163 12 is_stmt 0 view .LVU909
 2863 0004 0546     		mov	r5, r0
 2864              	.LVL228:
1164:Drivers/STM32F7xx_HAL_Driver/Src/stm32f7xx_ll_usb.c **** 
 2865              		.loc 1 1164 3 is_stmt 1 view .LVU910
1167:Drivers/STM32F7xx_HAL_Driver/Src/stm32f7xx_ll_usb.c ****   {
 2866              		.loc 1 1167 3 view .LVU911
1167:Drivers/STM32F7xx_HAL_Driver/Src/stm32f7xx_ll_usb.c ****   {
 2867              		.loc 1 1167 10 is_stmt 0 view .LVU912
 2868 0006 0022     		movs	r2, #0
1167:Drivers/STM32F7xx_HAL_Driver/Src/stm32f7xx_ll_usb.c ****   {
 2869              		.loc 1 1167 3 view .LVU913
 2870 0008 08E0     		b	.L194
 2871              	.LVL229:
 2872              	.L195:
1169:Drivers/STM32F7xx_HAL_Driver/Src/stm32f7xx_ll_usb.c ****     USBx_OUTEP(i)->DOEPINT = 0xFB7FU;
 2873              		.loc 1 1169 5 is_stmt 1 discriminator 3 view .LVU914
 2874 000a 05EB4213 		add	r3, r5, r2, lsl #5
1169:Drivers/STM32F7xx_HAL_Driver/Src/stm32f7xx_ll_usb.c ****     USBx_OUTEP(i)->DOEPINT = 0xFB7FU;
 2875              		.loc 1 1169 27 is_stmt 0 discriminator 3 view .LVU915
 2876 000e 4FF67F31 		movw	r1, #64383
 2877 0012 C3F80819 		str	r1, [r3, #2312]
1170:Drivers/STM32F7xx_HAL_Driver/Src/stm32f7xx_ll_usb.c ****   }
 2878              		.loc 1 1170 5 is_stmt 1 discriminator 3 view .LVU916
1170:Drivers/STM32F7xx_HAL_Driver/Src/stm32f7xx_ll_usb.c ****   }
 2879              		.loc 1 1170 28 is_stmt 0 discriminator 3 view .LVU917
 2880 0016 C3F8081B 		str	r1, [r3, #2824]
1167:Drivers/STM32F7xx_HAL_Driver/Src/stm32f7xx_ll_usb.c ****   {
 2881              		.loc 1 1167 25 is_stmt 1 discriminator 3 view .LVU918
1167:Drivers/STM32F7xx_HAL_Driver/Src/stm32f7xx_ll_usb.c ****   {
 2882              		.loc 1 1167 26 is_stmt 0 discriminator 3 view .LVU919
 2883 001a 0132     		adds	r2, r2, #1
 2884              	.LVL230:
 2885              	.L194:
1167:Drivers/STM32F7xx_HAL_Driver/Src/stm32f7xx_ll_usb.c ****   {
 2886              		.loc 1 1167 16 is_stmt 1 discriminator 1 view .LVU920
1167:Drivers/STM32F7xx_HAL_Driver/Src/stm32f7xx_ll_usb.c ****   {
 2887              		.loc 1 1167 3 is_stmt 0 discriminator 1 view .LVU921
 2888 001c 0E2A     		cmp	r2, #14
 2889 001e F4D9     		bls	.L195
ARM GAS  /tmp/ccrvI8Gd.s 			page 92


1174:Drivers/STM32F7xx_HAL_Driver/Src/stm32f7xx_ll_usb.c ****   USBx_DEVICE->DOEPMSK  = 0U;
 2890              		.loc 1 1174 3 is_stmt 1 view .LVU922
1174:Drivers/STM32F7xx_HAL_Driver/Src/stm32f7xx_ll_usb.c ****   USBx_DEVICE->DOEPMSK  = 0U;
 2891              		.loc 1 1174 25 is_stmt 0 view .LVU923
 2892 0020 0022     		movs	r2, #0
 2893              	.LVL231:
1174:Drivers/STM32F7xx_HAL_Driver/Src/stm32f7xx_ll_usb.c ****   USBx_DEVICE->DOEPMSK  = 0U;
 2894              		.loc 1 1174 25 view .LVU924
 2895 0022 C6F81028 		str	r2, [r6, #2064]
1175:Drivers/STM32F7xx_HAL_Driver/Src/stm32f7xx_ll_usb.c ****   USBx_DEVICE->DAINTMSK = 0U;
 2896              		.loc 1 1175 3 is_stmt 1 view .LVU925
1175:Drivers/STM32F7xx_HAL_Driver/Src/stm32f7xx_ll_usb.c ****   USBx_DEVICE->DAINTMSK = 0U;
 2897              		.loc 1 1175 25 is_stmt 0 view .LVU926
 2898 0026 C6F81428 		str	r2, [r6, #2068]
1176:Drivers/STM32F7xx_HAL_Driver/Src/stm32f7xx_ll_usb.c **** 
 2899              		.loc 1 1176 3 is_stmt 1 view .LVU927
1176:Drivers/STM32F7xx_HAL_Driver/Src/stm32f7xx_ll_usb.c **** 
 2900              		.loc 1 1176 25 is_stmt 0 view .LVU928
 2901 002a C6F81C28 		str	r2, [r6, #2076]
1179:Drivers/STM32F7xx_HAL_Driver/Src/stm32f7xx_ll_usb.c ****   if (ret != HAL_OK)
 2902              		.loc 1 1179 3 is_stmt 1 view .LVU929
1179:Drivers/STM32F7xx_HAL_Driver/Src/stm32f7xx_ll_usb.c ****   if (ret != HAL_OK)
 2903              		.loc 1 1179 9 is_stmt 0 view .LVU930
 2904 002e 3046     		mov	r0, r6
 2905              	.LVL232:
1179:Drivers/STM32F7xx_HAL_Driver/Src/stm32f7xx_ll_usb.c ****   if (ret != HAL_OK)
 2906              		.loc 1 1179 9 view .LVU931
 2907 0030 FFF7FEFF 		bl	USB_FlushRxFifo
 2908              	.LVL233:
1180:Drivers/STM32F7xx_HAL_Driver/Src/stm32f7xx_ll_usb.c ****   {
 2909              		.loc 1 1180 3 is_stmt 1 view .LVU932
1180:Drivers/STM32F7xx_HAL_Driver/Src/stm32f7xx_ll_usb.c ****   {
 2910              		.loc 1 1180 6 is_stmt 0 view .LVU933
 2911 0034 00B1     		cbz	r0, .L198
 2912              	.L196:
1192:Drivers/STM32F7xx_HAL_Driver/Src/stm32f7xx_ll_usb.c **** 
 2913              		.loc 1 1192 1 view .LVU934
 2914 0036 70BD     		pop	{r4, r5, r6, pc}
 2915              	.LVL234:
 2916              	.L198:
1185:Drivers/STM32F7xx_HAL_Driver/Src/stm32f7xx_ll_usb.c ****   if (ret != HAL_OK)
 2917              		.loc 1 1185 3 is_stmt 1 view .LVU935
1185:Drivers/STM32F7xx_HAL_Driver/Src/stm32f7xx_ll_usb.c ****   if (ret != HAL_OK)
 2918              		.loc 1 1185 9 is_stmt 0 view .LVU936
 2919 0038 1021     		movs	r1, #16
 2920 003a 3046     		mov	r0, r6
 2921              	.LVL235:
1185:Drivers/STM32F7xx_HAL_Driver/Src/stm32f7xx_ll_usb.c ****   if (ret != HAL_OK)
 2922              		.loc 1 1185 9 view .LVU937
 2923 003c FFF7FEFF 		bl	USB_FlushTxFifo
 2924              	.LVL236:
1186:Drivers/STM32F7xx_HAL_Driver/Src/stm32f7xx_ll_usb.c ****   {
 2925              		.loc 1 1186 3 is_stmt 1 view .LVU938
 2926 0040 F9E7     		b	.L196
 2927              		.cfi_endproc
 2928              	.LFE161:
 2930              		.section	.text.USB_SetDevAddress,"ax",%progbits
ARM GAS  /tmp/ccrvI8Gd.s 			page 93


 2931              		.align	1
 2932              		.global	USB_SetDevAddress
 2933              		.syntax unified
 2934              		.thumb
 2935              		.thumb_func
 2936              		.fpu fpv5-d16
 2938              	USB_SetDevAddress:
 2939              	.LVL237:
 2940              	.LFB162:
1202:Drivers/STM32F7xx_HAL_Driver/Src/stm32f7xx_ll_usb.c ****   uint32_t USBx_BASE = (uint32_t)USBx;
 2941              		.loc 1 1202 1 view -0
 2942              		.cfi_startproc
 2943              		@ args = 0, pretend = 0, frame = 0
 2944              		@ frame_needed = 0, uses_anonymous_args = 0
 2945              		@ link register save eliminated.
1203:Drivers/STM32F7xx_HAL_Driver/Src/stm32f7xx_ll_usb.c **** 
 2946              		.loc 1 1203 3 view .LVU940
1205:Drivers/STM32F7xx_HAL_Driver/Src/stm32f7xx_ll_usb.c ****   USBx_DEVICE->DCFG |= ((uint32_t)address << 4) & USB_OTG_DCFG_DAD;
 2947              		.loc 1 1205 3 view .LVU941
1205:Drivers/STM32F7xx_HAL_Driver/Src/stm32f7xx_ll_usb.c ****   USBx_DEVICE->DCFG |= ((uint32_t)address << 4) & USB_OTG_DCFG_DAD;
 2948              		.loc 1 1205 21 is_stmt 0 view .LVU942
 2949 0000 D0F80038 		ldr	r3, [r0, #2048]
 2950 0004 23F4FE63 		bic	r3, r3, #2032
 2951 0008 C0F80038 		str	r3, [r0, #2048]
1206:Drivers/STM32F7xx_HAL_Driver/Src/stm32f7xx_ll_usb.c **** 
 2952              		.loc 1 1206 3 is_stmt 1 view .LVU943
1206:Drivers/STM32F7xx_HAL_Driver/Src/stm32f7xx_ll_usb.c **** 
 2953              		.loc 1 1206 21 is_stmt 0 view .LVU944
 2954 000c D0F80038 		ldr	r3, [r0, #2048]
1206:Drivers/STM32F7xx_HAL_Driver/Src/stm32f7xx_ll_usb.c **** 
 2955              		.loc 1 1206 43 view .LVU945
 2956 0010 0901     		lsls	r1, r1, #4
 2957              	.LVL238:
1206:Drivers/STM32F7xx_HAL_Driver/Src/stm32f7xx_ll_usb.c **** 
 2958              		.loc 1 1206 49 view .LVU946
 2959 0012 01F4FE61 		and	r1, r1, #2032
1206:Drivers/STM32F7xx_HAL_Driver/Src/stm32f7xx_ll_usb.c **** 
 2960              		.loc 1 1206 21 view .LVU947
 2961 0016 1943     		orrs	r1, r1, r3
 2962 0018 C0F80018 		str	r1, [r0, #2048]
1208:Drivers/STM32F7xx_HAL_Driver/Src/stm32f7xx_ll_usb.c **** }
 2963              		.loc 1 1208 3 is_stmt 1 view .LVU948
1209:Drivers/STM32F7xx_HAL_Driver/Src/stm32f7xx_ll_usb.c **** 
 2964              		.loc 1 1209 1 is_stmt 0 view .LVU949
 2965 001c 0020     		movs	r0, #0
 2966              	.LVL239:
1209:Drivers/STM32F7xx_HAL_Driver/Src/stm32f7xx_ll_usb.c **** 
 2967              		.loc 1 1209 1 view .LVU950
 2968 001e 7047     		bx	lr
 2969              		.cfi_endproc
 2970              	.LFE162:
 2972              		.section	.text.USB_DevConnect,"ax",%progbits
 2973              		.align	1
 2974              		.global	USB_DevConnect
 2975              		.syntax unified
 2976              		.thumb
 2977              		.thumb_func
ARM GAS  /tmp/ccrvI8Gd.s 			page 94


 2978              		.fpu fpv5-d16
 2980              	USB_DevConnect:
 2981              	.LVL240:
 2982              	.LFB163:
1217:Drivers/STM32F7xx_HAL_Driver/Src/stm32f7xx_ll_usb.c ****   uint32_t USBx_BASE = (uint32_t)USBx;
 2983              		.loc 1 1217 1 is_stmt 1 view -0
 2984              		.cfi_startproc
 2985              		@ args = 0, pretend = 0, frame = 0
 2986              		@ frame_needed = 0, uses_anonymous_args = 0
 2987              		@ link register save eliminated.
1218:Drivers/STM32F7xx_HAL_Driver/Src/stm32f7xx_ll_usb.c **** 
 2988              		.loc 1 1218 3 view .LVU952
1221:Drivers/STM32F7xx_HAL_Driver/Src/stm32f7xx_ll_usb.c **** 
 2989              		.loc 1 1221 3 view .LVU953
1221:Drivers/STM32F7xx_HAL_Driver/Src/stm32f7xx_ll_usb.c **** 
 2990              		.loc 1 1221 16 is_stmt 0 view .LVU954
 2991 0000 D0F8003E 		ldr	r3, [r0, #3584]
 2992 0004 23F00303 		bic	r3, r3, #3
 2993 0008 C0F8003E 		str	r3, [r0, #3584]
1223:Drivers/STM32F7xx_HAL_Driver/Src/stm32f7xx_ll_usb.c **** 
 2994              		.loc 1 1223 3 is_stmt 1 view .LVU955
1223:Drivers/STM32F7xx_HAL_Driver/Src/stm32f7xx_ll_usb.c **** 
 2995              		.loc 1 1223 21 is_stmt 0 view .LVU956
 2996 000c D0F80438 		ldr	r3, [r0, #2052]
 2997 0010 23F00203 		bic	r3, r3, #2
 2998 0014 C0F80438 		str	r3, [r0, #2052]
1225:Drivers/STM32F7xx_HAL_Driver/Src/stm32f7xx_ll_usb.c **** }
 2999              		.loc 1 1225 3 is_stmt 1 view .LVU957
1226:Drivers/STM32F7xx_HAL_Driver/Src/stm32f7xx_ll_usb.c **** 
 3000              		.loc 1 1226 1 is_stmt 0 view .LVU958
 3001 0018 0020     		movs	r0, #0
 3002              	.LVL241:
1226:Drivers/STM32F7xx_HAL_Driver/Src/stm32f7xx_ll_usb.c **** 
 3003              		.loc 1 1226 1 view .LVU959
 3004 001a 7047     		bx	lr
 3005              		.cfi_endproc
 3006              	.LFE163:
 3008              		.section	.text.USB_DevDisconnect,"ax",%progbits
 3009              		.align	1
 3010              		.global	USB_DevDisconnect
 3011              		.syntax unified
 3012              		.thumb
 3013              		.thumb_func
 3014              		.fpu fpv5-d16
 3016              	USB_DevDisconnect:
 3017              	.LVL242:
 3018              	.LFB164:
1234:Drivers/STM32F7xx_HAL_Driver/Src/stm32f7xx_ll_usb.c ****   uint32_t USBx_BASE = (uint32_t)USBx;
 3019              		.loc 1 1234 1 is_stmt 1 view -0
 3020              		.cfi_startproc
 3021              		@ args = 0, pretend = 0, frame = 0
 3022              		@ frame_needed = 0, uses_anonymous_args = 0
 3023              		@ link register save eliminated.
1235:Drivers/STM32F7xx_HAL_Driver/Src/stm32f7xx_ll_usb.c **** 
 3024              		.loc 1 1235 3 view .LVU961
1238:Drivers/STM32F7xx_HAL_Driver/Src/stm32f7xx_ll_usb.c **** 
 3025              		.loc 1 1238 3 view .LVU962
ARM GAS  /tmp/ccrvI8Gd.s 			page 95


1238:Drivers/STM32F7xx_HAL_Driver/Src/stm32f7xx_ll_usb.c **** 
 3026              		.loc 1 1238 16 is_stmt 0 view .LVU963
 3027 0000 D0F8003E 		ldr	r3, [r0, #3584]
 3028 0004 23F00303 		bic	r3, r3, #3
 3029 0008 C0F8003E 		str	r3, [r0, #3584]
1240:Drivers/STM32F7xx_HAL_Driver/Src/stm32f7xx_ll_usb.c **** 
 3030              		.loc 1 1240 3 is_stmt 1 view .LVU964
1240:Drivers/STM32F7xx_HAL_Driver/Src/stm32f7xx_ll_usb.c **** 
 3031              		.loc 1 1240 21 is_stmt 0 view .LVU965
 3032 000c D0F80438 		ldr	r3, [r0, #2052]
 3033 0010 43F00203 		orr	r3, r3, #2
 3034 0014 C0F80438 		str	r3, [r0, #2052]
1242:Drivers/STM32F7xx_HAL_Driver/Src/stm32f7xx_ll_usb.c **** }
 3035              		.loc 1 1242 3 is_stmt 1 view .LVU966
1243:Drivers/STM32F7xx_HAL_Driver/Src/stm32f7xx_ll_usb.c **** 
 3036              		.loc 1 1243 1 is_stmt 0 view .LVU967
 3037 0018 0020     		movs	r0, #0
 3038              	.LVL243:
1243:Drivers/STM32F7xx_HAL_Driver/Src/stm32f7xx_ll_usb.c **** 
 3039              		.loc 1 1243 1 view .LVU968
 3040 001a 7047     		bx	lr
 3041              		.cfi_endproc
 3042              	.LFE164:
 3044              		.section	.text.USB_ReadInterrupts,"ax",%progbits
 3045              		.align	1
 3046              		.global	USB_ReadInterrupts
 3047              		.syntax unified
 3048              		.thumb
 3049              		.thumb_func
 3050              		.fpu fpv5-d16
 3052              	USB_ReadInterrupts:
 3053              	.LVL244:
 3054              	.LFB165:
1251:Drivers/STM32F7xx_HAL_Driver/Src/stm32f7xx_ll_usb.c ****   uint32_t tmpreg;
 3055              		.loc 1 1251 1 is_stmt 1 view -0
 3056              		.cfi_startproc
 3057              		@ args = 0, pretend = 0, frame = 0
 3058              		@ frame_needed = 0, uses_anonymous_args = 0
 3059              		@ link register save eliminated.
1252:Drivers/STM32F7xx_HAL_Driver/Src/stm32f7xx_ll_usb.c **** 
 3060              		.loc 1 1252 3 view .LVU970
1254:Drivers/STM32F7xx_HAL_Driver/Src/stm32f7xx_ll_usb.c ****   tmpreg &= USBx->GINTMSK;
 3061              		.loc 1 1254 3 view .LVU971
1254:Drivers/STM32F7xx_HAL_Driver/Src/stm32f7xx_ll_usb.c ****   tmpreg &= USBx->GINTMSK;
 3062              		.loc 1 1254 10 is_stmt 0 view .LVU972
 3063 0000 4269     		ldr	r2, [r0, #20]
 3064              	.LVL245:
1255:Drivers/STM32F7xx_HAL_Driver/Src/stm32f7xx_ll_usb.c **** 
 3065              		.loc 1 1255 3 is_stmt 1 view .LVU973
1255:Drivers/STM32F7xx_HAL_Driver/Src/stm32f7xx_ll_usb.c **** 
 3066              		.loc 1 1255 17 is_stmt 0 view .LVU974
 3067 0002 8069     		ldr	r0, [r0, #24]
 3068              	.LVL246:
1257:Drivers/STM32F7xx_HAL_Driver/Src/stm32f7xx_ll_usb.c **** }
 3069              		.loc 1 1257 3 is_stmt 1 view .LVU975
1258:Drivers/STM32F7xx_HAL_Driver/Src/stm32f7xx_ll_usb.c **** 
 3070              		.loc 1 1258 1 is_stmt 0 view .LVU976
ARM GAS  /tmp/ccrvI8Gd.s 			page 96


 3071 0004 1040     		ands	r0, r0, r2
 3072              	.LVL247:
1258:Drivers/STM32F7xx_HAL_Driver/Src/stm32f7xx_ll_usb.c **** 
 3073              		.loc 1 1258 1 view .LVU977
 3074 0006 7047     		bx	lr
 3075              		.cfi_endproc
 3076              	.LFE165:
 3078              		.section	.text.USB_ReadDevAllOutEpInterrupt,"ax",%progbits
 3079              		.align	1
 3080              		.global	USB_ReadDevAllOutEpInterrupt
 3081              		.syntax unified
 3082              		.thumb
 3083              		.thumb_func
 3084              		.fpu fpv5-d16
 3086              	USB_ReadDevAllOutEpInterrupt:
 3087              	.LVL248:
 3088              	.LFB166:
1266:Drivers/STM32F7xx_HAL_Driver/Src/stm32f7xx_ll_usb.c ****   uint32_t USBx_BASE = (uint32_t)USBx;
 3089              		.loc 1 1266 1 is_stmt 1 view -0
 3090              		.cfi_startproc
 3091              		@ args = 0, pretend = 0, frame = 0
 3092              		@ frame_needed = 0, uses_anonymous_args = 0
 3093              		@ link register save eliminated.
1267:Drivers/STM32F7xx_HAL_Driver/Src/stm32f7xx_ll_usb.c ****   uint32_t tmpreg;
 3094              		.loc 1 1267 3 view .LVU979
1268:Drivers/STM32F7xx_HAL_Driver/Src/stm32f7xx_ll_usb.c **** 
 3095              		.loc 1 1268 3 view .LVU980
1270:Drivers/STM32F7xx_HAL_Driver/Src/stm32f7xx_ll_usb.c ****   tmpreg &= USBx_DEVICE->DAINTMSK;
 3096              		.loc 1 1270 3 view .LVU981
1270:Drivers/STM32F7xx_HAL_Driver/Src/stm32f7xx_ll_usb.c ****   tmpreg &= USBx_DEVICE->DAINTMSK;
 3097              		.loc 1 1270 11 is_stmt 0 view .LVU982
 3098 0000 D0F81838 		ldr	r3, [r0, #2072]
1270:Drivers/STM32F7xx_HAL_Driver/Src/stm32f7xx_ll_usb.c ****   tmpreg &= USBx_DEVICE->DAINTMSK;
 3099              		.loc 1 1270 13 view .LVU983
 3100 0004 00F50060 		add	r0, r0, #2048
 3101              	.LVL249:
1271:Drivers/STM32F7xx_HAL_Driver/Src/stm32f7xx_ll_usb.c **** 
 3102              		.loc 1 1271 3 is_stmt 1 view .LVU984
1271:Drivers/STM32F7xx_HAL_Driver/Src/stm32f7xx_ll_usb.c **** 
 3103              		.loc 1 1271 24 is_stmt 0 view .LVU985
 3104 0008 C069     		ldr	r0, [r0, #28]
 3105              	.LVL250:
1271:Drivers/STM32F7xx_HAL_Driver/Src/stm32f7xx_ll_usb.c **** 
 3106              		.loc 1 1271 10 view .LVU986
 3107 000a 1840     		ands	r0, r0, r3
 3108              	.LVL251:
1273:Drivers/STM32F7xx_HAL_Driver/Src/stm32f7xx_ll_usb.c **** }
 3109              		.loc 1 1273 3 is_stmt 1 view .LVU987
1274:Drivers/STM32F7xx_HAL_Driver/Src/stm32f7xx_ll_usb.c **** 
 3110              		.loc 1 1274 1 is_stmt 0 view .LVU988
 3111 000c 000C     		lsrs	r0, r0, #16
 3112              	.LVL252:
1274:Drivers/STM32F7xx_HAL_Driver/Src/stm32f7xx_ll_usb.c **** 
 3113              		.loc 1 1274 1 view .LVU989
 3114 000e 7047     		bx	lr
 3115              		.cfi_endproc
 3116              	.LFE166:
ARM GAS  /tmp/ccrvI8Gd.s 			page 97


 3118              		.section	.text.USB_ReadDevAllInEpInterrupt,"ax",%progbits
 3119              		.align	1
 3120              		.global	USB_ReadDevAllInEpInterrupt
 3121              		.syntax unified
 3122              		.thumb
 3123              		.thumb_func
 3124              		.fpu fpv5-d16
 3126              	USB_ReadDevAllInEpInterrupt:
 3127              	.LVL253:
 3128              	.LFB167:
1282:Drivers/STM32F7xx_HAL_Driver/Src/stm32f7xx_ll_usb.c ****   uint32_t USBx_BASE = (uint32_t)USBx;
 3129              		.loc 1 1282 1 is_stmt 1 view -0
 3130              		.cfi_startproc
 3131              		@ args = 0, pretend = 0, frame = 0
 3132              		@ frame_needed = 0, uses_anonymous_args = 0
 3133              		@ link register save eliminated.
1283:Drivers/STM32F7xx_HAL_Driver/Src/stm32f7xx_ll_usb.c ****   uint32_t tmpreg;
 3134              		.loc 1 1283 3 view .LVU991
1284:Drivers/STM32F7xx_HAL_Driver/Src/stm32f7xx_ll_usb.c **** 
 3135              		.loc 1 1284 3 view .LVU992
1286:Drivers/STM32F7xx_HAL_Driver/Src/stm32f7xx_ll_usb.c ****   tmpreg &= USBx_DEVICE->DAINTMSK;
 3136              		.loc 1 1286 3 view .LVU993
1286:Drivers/STM32F7xx_HAL_Driver/Src/stm32f7xx_ll_usb.c ****   tmpreg &= USBx_DEVICE->DAINTMSK;
 3137              		.loc 1 1286 11 is_stmt 0 view .LVU994
 3138 0000 D0F81838 		ldr	r3, [r0, #2072]
1286:Drivers/STM32F7xx_HAL_Driver/Src/stm32f7xx_ll_usb.c ****   tmpreg &= USBx_DEVICE->DAINTMSK;
 3139              		.loc 1 1286 13 view .LVU995
 3140 0004 00F50060 		add	r0, r0, #2048
 3141              	.LVL254:
1287:Drivers/STM32F7xx_HAL_Driver/Src/stm32f7xx_ll_usb.c **** 
 3142              		.loc 1 1287 3 is_stmt 1 view .LVU996
1287:Drivers/STM32F7xx_HAL_Driver/Src/stm32f7xx_ll_usb.c **** 
 3143              		.loc 1 1287 24 is_stmt 0 view .LVU997
 3144 0008 C069     		ldr	r0, [r0, #28]
 3145              	.LVL255:
1287:Drivers/STM32F7xx_HAL_Driver/Src/stm32f7xx_ll_usb.c **** 
 3146              		.loc 1 1287 10 view .LVU998
 3147 000a 1840     		ands	r0, r0, r3
 3148              	.LVL256:
1289:Drivers/STM32F7xx_HAL_Driver/Src/stm32f7xx_ll_usb.c **** }
 3149              		.loc 1 1289 3 is_stmt 1 view .LVU999
1290:Drivers/STM32F7xx_HAL_Driver/Src/stm32f7xx_ll_usb.c **** 
 3150              		.loc 1 1290 1 is_stmt 0 view .LVU1000
 3151 000c 80B2     		uxth	r0, r0
 3152              	.LVL257:
1290:Drivers/STM32F7xx_HAL_Driver/Src/stm32f7xx_ll_usb.c **** 
 3153              		.loc 1 1290 1 view .LVU1001
 3154 000e 7047     		bx	lr
 3155              		.cfi_endproc
 3156              	.LFE167:
 3158              		.section	.text.USB_ReadDevOutEPInterrupt,"ax",%progbits
 3159              		.align	1
 3160              		.global	USB_ReadDevOutEPInterrupt
 3161              		.syntax unified
 3162              		.thumb
 3163              		.thumb_func
 3164              		.fpu fpv5-d16
ARM GAS  /tmp/ccrvI8Gd.s 			page 98


 3166              	USB_ReadDevOutEPInterrupt:
 3167              	.LVL258:
 3168              	.LFB168:
1300:Drivers/STM32F7xx_HAL_Driver/Src/stm32f7xx_ll_usb.c ****   uint32_t USBx_BASE = (uint32_t)USBx;
 3169              		.loc 1 1300 1 is_stmt 1 view -0
 3170              		.cfi_startproc
 3171              		@ args = 0, pretend = 0, frame = 0
 3172              		@ frame_needed = 0, uses_anonymous_args = 0
 3173              		@ link register save eliminated.
1301:Drivers/STM32F7xx_HAL_Driver/Src/stm32f7xx_ll_usb.c ****   uint32_t tmpreg;
 3174              		.loc 1 1301 3 view .LVU1003
1302:Drivers/STM32F7xx_HAL_Driver/Src/stm32f7xx_ll_usb.c **** 
 3175              		.loc 1 1302 3 view .LVU1004
1304:Drivers/STM32F7xx_HAL_Driver/Src/stm32f7xx_ll_usb.c ****   tmpreg &= USBx_DEVICE->DOEPMSK;
 3176              		.loc 1 1304 3 view .LVU1005
1304:Drivers/STM32F7xx_HAL_Driver/Src/stm32f7xx_ll_usb.c ****   tmpreg &= USBx_DEVICE->DOEPMSK;
 3177              		.loc 1 1304 13 is_stmt 0 view .LVU1006
 3178 0000 00EB4111 		add	r1, r0, r1, lsl #5
 3179              	.LVL259:
1304:Drivers/STM32F7xx_HAL_Driver/Src/stm32f7xx_ll_usb.c ****   tmpreg &= USBx_DEVICE->DOEPMSK;
 3180              		.loc 1 1304 11 view .LVU1007
 3181 0004 D1F8082B 		ldr	r2, [r1, #2824]
 3182              	.LVL260:
1305:Drivers/STM32F7xx_HAL_Driver/Src/stm32f7xx_ll_usb.c **** 
 3183              		.loc 1 1305 3 is_stmt 1 view .LVU1008
1305:Drivers/STM32F7xx_HAL_Driver/Src/stm32f7xx_ll_usb.c **** 
 3184              		.loc 1 1305 13 is_stmt 0 view .LVU1009
 3185 0008 00F50060 		add	r0, r0, #2048
 3186              	.LVL261:
1305:Drivers/STM32F7xx_HAL_Driver/Src/stm32f7xx_ll_usb.c **** 
 3187              		.loc 1 1305 24 view .LVU1010
 3188 000c 4069     		ldr	r0, [r0, #20]
 3189              	.LVL262:
1307:Drivers/STM32F7xx_HAL_Driver/Src/stm32f7xx_ll_usb.c **** }
 3190              		.loc 1 1307 3 is_stmt 1 view .LVU1011
1308:Drivers/STM32F7xx_HAL_Driver/Src/stm32f7xx_ll_usb.c **** 
 3191              		.loc 1 1308 1 is_stmt 0 view .LVU1012
 3192 000e 1040     		ands	r0, r0, r2
 3193              	.LVL263:
1308:Drivers/STM32F7xx_HAL_Driver/Src/stm32f7xx_ll_usb.c **** 
 3194              		.loc 1 1308 1 view .LVU1013
 3195 0010 7047     		bx	lr
 3196              		.cfi_endproc
 3197              	.LFE168:
 3199              		.section	.text.USB_ReadDevInEPInterrupt,"ax",%progbits
 3200              		.align	1
 3201              		.global	USB_ReadDevInEPInterrupt
 3202              		.syntax unified
 3203              		.thumb
 3204              		.thumb_func
 3205              		.fpu fpv5-d16
 3207              	USB_ReadDevInEPInterrupt:
 3208              	.LVL264:
 3209              	.LFB169:
1318:Drivers/STM32F7xx_HAL_Driver/Src/stm32f7xx_ll_usb.c ****   uint32_t USBx_BASE = (uint32_t)USBx;
 3210              		.loc 1 1318 1 is_stmt 1 view -0
 3211              		.cfi_startproc
ARM GAS  /tmp/ccrvI8Gd.s 			page 99


 3212              		@ args = 0, pretend = 0, frame = 0
 3213              		@ frame_needed = 0, uses_anonymous_args = 0
 3214              		@ link register save eliminated.
1318:Drivers/STM32F7xx_HAL_Driver/Src/stm32f7xx_ll_usb.c ****   uint32_t USBx_BASE = (uint32_t)USBx;
 3215              		.loc 1 1318 1 is_stmt 0 view .LVU1015
 3216 0000 10B4     		push	{r4}
 3217              	.LCFI42:
 3218              		.cfi_def_cfa_offset 4
 3219              		.cfi_offset 4, -4
1319:Drivers/STM32F7xx_HAL_Driver/Src/stm32f7xx_ll_usb.c ****   uint32_t tmpreg;
 3220              		.loc 1 1319 3 is_stmt 1 view .LVU1016
 3221              	.LVL265:
1320:Drivers/STM32F7xx_HAL_Driver/Src/stm32f7xx_ll_usb.c ****   uint32_t msk;
 3222              		.loc 1 1320 3 view .LVU1017
1321:Drivers/STM32F7xx_HAL_Driver/Src/stm32f7xx_ll_usb.c ****   uint32_t emp;
 3223              		.loc 1 1321 3 view .LVU1018
1322:Drivers/STM32F7xx_HAL_Driver/Src/stm32f7xx_ll_usb.c **** 
 3224              		.loc 1 1322 3 view .LVU1019
1324:Drivers/STM32F7xx_HAL_Driver/Src/stm32f7xx_ll_usb.c ****   emp = USBx_DEVICE->DIEPEMPMSK;
 3225              		.loc 1 1324 3 view .LVU1020
1324:Drivers/STM32F7xx_HAL_Driver/Src/stm32f7xx_ll_usb.c ****   emp = USBx_DEVICE->DIEPEMPMSK;
 3226              		.loc 1 1324 7 is_stmt 0 view .LVU1021
 3227 0002 D0F81048 		ldr	r4, [r0, #2064]
 3228              	.LVL266:
1325:Drivers/STM32F7xx_HAL_Driver/Src/stm32f7xx_ll_usb.c ****   msk |= ((emp >> (epnum & EP_ADDR_MSK)) & 0x1U) << 7;
 3229              		.loc 1 1325 3 is_stmt 1 view .LVU1022
1325:Drivers/STM32F7xx_HAL_Driver/Src/stm32f7xx_ll_usb.c ****   msk |= ((emp >> (epnum & EP_ADDR_MSK)) & 0x1U) << 7;
 3230              		.loc 1 1325 7 is_stmt 0 view .LVU1023
 3231 0006 D0F83438 		ldr	r3, [r0, #2100]
 3232              	.LVL267:
1326:Drivers/STM32F7xx_HAL_Driver/Src/stm32f7xx_ll_usb.c ****   tmpreg = USBx_INEP((uint32_t)epnum)->DIEPINT & msk;
 3233              		.loc 1 1326 3 is_stmt 1 view .LVU1024
1326:Drivers/STM32F7xx_HAL_Driver/Src/stm32f7xx_ll_usb.c ****   tmpreg = USBx_INEP((uint32_t)epnum)->DIEPINT & msk;
 3234              		.loc 1 1326 26 is_stmt 0 view .LVU1025
 3235 000a 01F00F02 		and	r2, r1, #15
1326:Drivers/STM32F7xx_HAL_Driver/Src/stm32f7xx_ll_usb.c ****   tmpreg = USBx_INEP((uint32_t)epnum)->DIEPINT & msk;
 3236              		.loc 1 1326 16 view .LVU1026
 3237 000e D340     		lsrs	r3, r3, r2
 3238              	.LVL268:
1326:Drivers/STM32F7xx_HAL_Driver/Src/stm32f7xx_ll_usb.c ****   tmpreg = USBx_INEP((uint32_t)epnum)->DIEPINT & msk;
 3239              		.loc 1 1326 50 view .LVU1027
 3240 0010 DB01     		lsls	r3, r3, #7
 3241 0012 DBB2     		uxtb	r3, r3
1326:Drivers/STM32F7xx_HAL_Driver/Src/stm32f7xx_ll_usb.c ****   tmpreg = USBx_INEP((uint32_t)epnum)->DIEPINT & msk;
 3242              		.loc 1 1326 7 view .LVU1028
 3243 0014 2343     		orrs	r3, r3, r4
 3244              	.LVL269:
1327:Drivers/STM32F7xx_HAL_Driver/Src/stm32f7xx_ll_usb.c **** 
 3245              		.loc 1 1327 3 is_stmt 1 view .LVU1029
1327:Drivers/STM32F7xx_HAL_Driver/Src/stm32f7xx_ll_usb.c **** 
 3246              		.loc 1 1327 12 is_stmt 0 view .LVU1030
 3247 0016 00EB4110 		add	r0, r0, r1, lsl #5
 3248              	.LVL270:
1327:Drivers/STM32F7xx_HAL_Driver/Src/stm32f7xx_ll_usb.c **** 
 3249              		.loc 1 1327 12 view .LVU1031
 3250 001a 00F51060 		add	r0, r0, #2304
1327:Drivers/STM32F7xx_HAL_Driver/Src/stm32f7xx_ll_usb.c **** 
ARM GAS  /tmp/ccrvI8Gd.s 			page 100


 3251              		.loc 1 1327 38 view .LVU1032
 3252 001e 8068     		ldr	r0, [r0, #8]
 3253              	.LVL271:
1329:Drivers/STM32F7xx_HAL_Driver/Src/stm32f7xx_ll_usb.c **** }
 3254              		.loc 1 1329 3 is_stmt 1 view .LVU1033
1330:Drivers/STM32F7xx_HAL_Driver/Src/stm32f7xx_ll_usb.c **** 
 3255              		.loc 1 1330 1 is_stmt 0 view .LVU1034
 3256 0020 1840     		ands	r0, r0, r3
 3257              	.LVL272:
1330:Drivers/STM32F7xx_HAL_Driver/Src/stm32f7xx_ll_usb.c **** 
 3258              		.loc 1 1330 1 view .LVU1035
 3259 0022 5DF8044B 		ldr	r4, [sp], #4
 3260              	.LCFI43:
 3261              		.cfi_restore 4
 3262              		.cfi_def_cfa_offset 0
 3263 0026 7047     		bx	lr
 3264              		.cfi_endproc
 3265              	.LFE169:
 3267              		.section	.text.USB_ClearInterrupts,"ax",%progbits
 3268              		.align	1
 3269              		.global	USB_ClearInterrupts
 3270              		.syntax unified
 3271              		.thumb
 3272              		.thumb_func
 3273              		.fpu fpv5-d16
 3275              	USB_ClearInterrupts:
 3276              	.LVL273:
 3277              	.LFB170:
1339:Drivers/STM32F7xx_HAL_Driver/Src/stm32f7xx_ll_usb.c ****   USBx->GINTSTS |= interrupt;
 3278              		.loc 1 1339 1 is_stmt 1 view -0
 3279              		.cfi_startproc
 3280              		@ args = 0, pretend = 0, frame = 0
 3281              		@ frame_needed = 0, uses_anonymous_args = 0
 3282              		@ link register save eliminated.
1340:Drivers/STM32F7xx_HAL_Driver/Src/stm32f7xx_ll_usb.c **** }
 3283              		.loc 1 1340 3 view .LVU1037
1340:Drivers/STM32F7xx_HAL_Driver/Src/stm32f7xx_ll_usb.c **** }
 3284              		.loc 1 1340 17 is_stmt 0 view .LVU1038
 3285 0000 4369     		ldr	r3, [r0, #20]
 3286 0002 0B43     		orrs	r3, r3, r1
 3287 0004 4361     		str	r3, [r0, #20]
1341:Drivers/STM32F7xx_HAL_Driver/Src/stm32f7xx_ll_usb.c **** 
 3288              		.loc 1 1341 1 view .LVU1039
 3289 0006 7047     		bx	lr
 3290              		.cfi_endproc
 3291              	.LFE170:
 3293              		.section	.text.USB_GetMode,"ax",%progbits
 3294              		.align	1
 3295              		.global	USB_GetMode
 3296              		.syntax unified
 3297              		.thumb
 3298              		.thumb_func
 3299              		.fpu fpv5-d16
 3301              	USB_GetMode:
 3302              	.LVL274:
 3303              	.LFB171:
1352:Drivers/STM32F7xx_HAL_Driver/Src/stm32f7xx_ll_usb.c ****   return ((USBx->GINTSTS) & 0x1U);
ARM GAS  /tmp/ccrvI8Gd.s 			page 101


 3304              		.loc 1 1352 1 is_stmt 1 view -0
 3305              		.cfi_startproc
 3306              		@ args = 0, pretend = 0, frame = 0
 3307              		@ frame_needed = 0, uses_anonymous_args = 0
 3308              		@ link register save eliminated.
1353:Drivers/STM32F7xx_HAL_Driver/Src/stm32f7xx_ll_usb.c **** }
 3309              		.loc 1 1353 3 view .LVU1041
1353:Drivers/STM32F7xx_HAL_Driver/Src/stm32f7xx_ll_usb.c **** }
 3310              		.loc 1 1353 16 is_stmt 0 view .LVU1042
 3311 0000 4069     		ldr	r0, [r0, #20]
 3312              	.LVL275:
1354:Drivers/STM32F7xx_HAL_Driver/Src/stm32f7xx_ll_usb.c **** 
 3313              		.loc 1 1354 1 view .LVU1043
 3314 0002 00F00100 		and	r0, r0, #1
 3315 0006 7047     		bx	lr
 3316              		.cfi_endproc
 3317              	.LFE171:
 3319              		.section	.text.USB_SetCurrentMode,"ax",%progbits
 3320              		.align	1
 3321              		.global	USB_SetCurrentMode
 3322              		.syntax unified
 3323              		.thumb
 3324              		.thumb_func
 3325              		.fpu fpv5-d16
 3327              	USB_SetCurrentMode:
 3328              	.LVL276:
 3329              	.LFB145:
 284:Drivers/STM32F7xx_HAL_Driver/Src/stm32f7xx_ll_usb.c ****   uint32_t ms = 0U;
 3330              		.loc 1 284 1 is_stmt 1 view -0
 3331              		.cfi_startproc
 3332              		@ args = 0, pretend = 0, frame = 0
 3333              		@ frame_needed = 0, uses_anonymous_args = 0
 284:Drivers/STM32F7xx_HAL_Driver/Src/stm32f7xx_ll_usb.c ****   uint32_t ms = 0U;
 3334              		.loc 1 284 1 is_stmt 0 view .LVU1045
 3335 0000 38B5     		push	{r3, r4, r5, lr}
 3336              	.LCFI44:
 3337              		.cfi_def_cfa_offset 16
 3338              		.cfi_offset 3, -16
 3339              		.cfi_offset 4, -12
 3340              		.cfi_offset 5, -8
 3341              		.cfi_offset 14, -4
 3342 0002 0546     		mov	r5, r0
 285:Drivers/STM32F7xx_HAL_Driver/Src/stm32f7xx_ll_usb.c **** 
 3343              		.loc 1 285 3 is_stmt 1 view .LVU1046
 3344              	.LVL277:
 287:Drivers/STM32F7xx_HAL_Driver/Src/stm32f7xx_ll_usb.c **** 
 3345              		.loc 1 287 3 view .LVU1047
 287:Drivers/STM32F7xx_HAL_Driver/Src/stm32f7xx_ll_usb.c **** 
 3346              		.loc 1 287 17 is_stmt 0 view .LVU1048
 3347 0004 C368     		ldr	r3, [r0, #12]
 3348 0006 23F0C043 		bic	r3, r3, #1610612736
 3349 000a C360     		str	r3, [r0, #12]
 289:Drivers/STM32F7xx_HAL_Driver/Src/stm32f7xx_ll_usb.c ****   {
 3350              		.loc 1 289 3 is_stmt 1 view .LVU1049
 289:Drivers/STM32F7xx_HAL_Driver/Src/stm32f7xx_ll_usb.c ****   {
 3351              		.loc 1 289 6 is_stmt 0 view .LVU1050
 3352 000c 0129     		cmp	r1, #1
ARM GAS  /tmp/ccrvI8Gd.s 			page 102


 3353 000e 13D0     		beq	.L219
 299:Drivers/STM32F7xx_HAL_Driver/Src/stm32f7xx_ll_usb.c ****   {
 3354              		.loc 1 299 8 is_stmt 1 view .LVU1051
 299:Drivers/STM32F7xx_HAL_Driver/Src/stm32f7xx_ll_usb.c ****   {
 3355              		.loc 1 299 11 is_stmt 0 view .LVU1052
 3356 0010 19BB     		cbnz	r1, .L216
 301:Drivers/STM32F7xx_HAL_Driver/Src/stm32f7xx_ll_usb.c **** 
 3357              		.loc 1 301 5 is_stmt 1 view .LVU1053
 301:Drivers/STM32F7xx_HAL_Driver/Src/stm32f7xx_ll_usb.c **** 
 3358              		.loc 1 301 19 is_stmt 0 view .LVU1054
 3359 0012 C368     		ldr	r3, [r0, #12]
 3360 0014 43F08043 		orr	r3, r3, #1073741824
 3361 0018 C360     		str	r3, [r0, #12]
 285:Drivers/STM32F7xx_HAL_Driver/Src/stm32f7xx_ll_usb.c **** 
 3362              		.loc 1 285 12 view .LVU1055
 3363 001a 0024     		movs	r4, #0
 3364              	.LVL278:
 3365              	.L215:
 303:Drivers/STM32F7xx_HAL_Driver/Src/stm32f7xx_ll_usb.c ****     {
 3366              		.loc 1 303 5 is_stmt 1 discriminator 2 view .LVU1056
 305:Drivers/STM32F7xx_HAL_Driver/Src/stm32f7xx_ll_usb.c ****       ms++;
 3367              		.loc 1 305 7 discriminator 2 view .LVU1057
 3368 001c 0120     		movs	r0, #1
 3369 001e FFF7FEFF 		bl	HAL_Delay
 3370              	.LVL279:
 306:Drivers/STM32F7xx_HAL_Driver/Src/stm32f7xx_ll_usb.c ****     } while ((USB_GetMode(USBx) != (uint32_t)USB_DEVICE_MODE) && (ms < 50U));
 3371              		.loc 1 306 7 discriminator 2 view .LVU1058
 306:Drivers/STM32F7xx_HAL_Driver/Src/stm32f7xx_ll_usb.c ****     } while ((USB_GetMode(USBx) != (uint32_t)USB_DEVICE_MODE) && (ms < 50U));
 3372              		.loc 1 306 9 is_stmt 0 discriminator 2 view .LVU1059
 3373 0022 0134     		adds	r4, r4, #1
 3374              	.LVL280:
 307:Drivers/STM32F7xx_HAL_Driver/Src/stm32f7xx_ll_usb.c ****   }
 3375              		.loc 1 307 13 is_stmt 1 discriminator 2 view .LVU1060
 307:Drivers/STM32F7xx_HAL_Driver/Src/stm32f7xx_ll_usb.c ****   }
 3376              		.loc 1 307 15 is_stmt 0 discriminator 2 view .LVU1061
 3377 0024 2846     		mov	r0, r5
 3378 0026 FFF7FEFF 		bl	USB_GetMode
 3379              	.LVL281:
 307:Drivers/STM32F7xx_HAL_Driver/Src/stm32f7xx_ll_usb.c ****   }
 3380              		.loc 1 307 5 discriminator 2 view .LVU1062
 3381 002a 08B1     		cbz	r0, .L212
 307:Drivers/STM32F7xx_HAL_Driver/Src/stm32f7xx_ll_usb.c ****   }
 3382              		.loc 1 307 63 discriminator 1 view .LVU1063
 3383 002c 312C     		cmp	r4, #49
 3384 002e F5D9     		bls	.L215
 3385              	.L212:
 314:Drivers/STM32F7xx_HAL_Driver/Src/stm32f7xx_ll_usb.c ****   {
 3386              		.loc 1 314 3 is_stmt 1 view .LVU1064
 314:Drivers/STM32F7xx_HAL_Driver/Src/stm32f7xx_ll_usb.c ****   {
 3387              		.loc 1 314 6 is_stmt 0 view .LVU1065
 3388 0030 322C     		cmp	r4, #50
 3389 0032 14D0     		beq	.L217
 319:Drivers/STM32F7xx_HAL_Driver/Src/stm32f7xx_ll_usb.c **** }
 3390              		.loc 1 319 10 view .LVU1066
 3391 0034 0020     		movs	r0, #0
 3392              	.LVL282:
 3393              	.L214:
ARM GAS  /tmp/ccrvI8Gd.s 			page 103


 320:Drivers/STM32F7xx_HAL_Driver/Src/stm32f7xx_ll_usb.c **** 
 3394              		.loc 1 320 1 view .LVU1067
 3395 0036 38BD     		pop	{r3, r4, r5, pc}
 3396              	.LVL283:
 3397              	.L219:
 291:Drivers/STM32F7xx_HAL_Driver/Src/stm32f7xx_ll_usb.c **** 
 3398              		.loc 1 291 5 is_stmt 1 view .LVU1068
 291:Drivers/STM32F7xx_HAL_Driver/Src/stm32f7xx_ll_usb.c **** 
 3399              		.loc 1 291 19 is_stmt 0 view .LVU1069
 3400 0038 C368     		ldr	r3, [r0, #12]
 3401 003a 43F00053 		orr	r3, r3, #536870912
 3402 003e C360     		str	r3, [r0, #12]
 285:Drivers/STM32F7xx_HAL_Driver/Src/stm32f7xx_ll_usb.c **** 
 3403              		.loc 1 285 12 view .LVU1070
 3404 0040 0024     		movs	r4, #0
 3405              	.LVL284:
 3406              	.L213:
 293:Drivers/STM32F7xx_HAL_Driver/Src/stm32f7xx_ll_usb.c ****     {
 3407              		.loc 1 293 5 is_stmt 1 discriminator 2 view .LVU1071
 295:Drivers/STM32F7xx_HAL_Driver/Src/stm32f7xx_ll_usb.c ****       ms++;
 3408              		.loc 1 295 7 discriminator 2 view .LVU1072
 3409 0042 0120     		movs	r0, #1
 3410 0044 FFF7FEFF 		bl	HAL_Delay
 3411              	.LVL285:
 296:Drivers/STM32F7xx_HAL_Driver/Src/stm32f7xx_ll_usb.c ****     } while ((USB_GetMode(USBx) != (uint32_t)USB_HOST_MODE) && (ms < 50U));
 3412              		.loc 1 296 7 discriminator 2 view .LVU1073
 296:Drivers/STM32F7xx_HAL_Driver/Src/stm32f7xx_ll_usb.c ****     } while ((USB_GetMode(USBx) != (uint32_t)USB_HOST_MODE) && (ms < 50U));
 3413              		.loc 1 296 9 is_stmt 0 discriminator 2 view .LVU1074
 3414 0048 0134     		adds	r4, r4, #1
 3415              	.LVL286:
 297:Drivers/STM32F7xx_HAL_Driver/Src/stm32f7xx_ll_usb.c ****   }
 3416              		.loc 1 297 13 is_stmt 1 discriminator 2 view .LVU1075
 297:Drivers/STM32F7xx_HAL_Driver/Src/stm32f7xx_ll_usb.c ****   }
 3417              		.loc 1 297 15 is_stmt 0 discriminator 2 view .LVU1076
 3418 004a 2846     		mov	r0, r5
 3419 004c FFF7FEFF 		bl	USB_GetMode
 3420              	.LVL287:
 297:Drivers/STM32F7xx_HAL_Driver/Src/stm32f7xx_ll_usb.c ****   }
 3421              		.loc 1 297 5 discriminator 2 view .LVU1077
 3422 0050 0128     		cmp	r0, #1
 3423 0052 EDD0     		beq	.L212
 297:Drivers/STM32F7xx_HAL_Driver/Src/stm32f7xx_ll_usb.c ****   }
 3424              		.loc 1 297 61 discriminator 1 view .LVU1078
 3425 0054 312C     		cmp	r4, #49
 3426 0056 F4D9     		bls	.L213
 3427 0058 EAE7     		b	.L212
 3428              	.LVL288:
 3429              	.L216:
 311:Drivers/STM32F7xx_HAL_Driver/Src/stm32f7xx_ll_usb.c ****   }
 3430              		.loc 1 311 12 view .LVU1079
 3431 005a 0120     		movs	r0, #1
 3432              	.LVL289:
 311:Drivers/STM32F7xx_HAL_Driver/Src/stm32f7xx_ll_usb.c ****   }
 3433              		.loc 1 311 12 view .LVU1080
 3434 005c EBE7     		b	.L214
 3435              	.LVL290:
 3436              	.L217:
ARM GAS  /tmp/ccrvI8Gd.s 			page 104


 316:Drivers/STM32F7xx_HAL_Driver/Src/stm32f7xx_ll_usb.c ****   }
 3437              		.loc 1 316 12 view .LVU1081
 3438 005e 0120     		movs	r0, #1
 3439 0060 E9E7     		b	.L214
 3440              		.cfi_endproc
 3441              	.LFE145:
 3443              		.section	.text.USB_ActivateSetup,"ax",%progbits
 3444              		.align	1
 3445              		.global	USB_ActivateSetup
 3446              		.syntax unified
 3447              		.thumb
 3448              		.thumb_func
 3449              		.fpu fpv5-d16
 3451              	USB_ActivateSetup:
 3452              	.LVL291:
 3453              	.LFB172:
1362:Drivers/STM32F7xx_HAL_Driver/Src/stm32f7xx_ll_usb.c ****   uint32_t USBx_BASE = (uint32_t)USBx;
 3454              		.loc 1 1362 1 is_stmt 1 view -0
 3455              		.cfi_startproc
 3456              		@ args = 0, pretend = 0, frame = 0
 3457              		@ frame_needed = 0, uses_anonymous_args = 0
 3458              		@ link register save eliminated.
1363:Drivers/STM32F7xx_HAL_Driver/Src/stm32f7xx_ll_usb.c **** 
 3459              		.loc 1 1363 3 view .LVU1083
1366:Drivers/STM32F7xx_HAL_Driver/Src/stm32f7xx_ll_usb.c **** 
 3460              		.loc 1 1366 3 view .LVU1084
1366:Drivers/STM32F7xx_HAL_Driver/Src/stm32f7xx_ll_usb.c **** 
 3461              		.loc 1 1366 26 is_stmt 0 view .LVU1085
 3462 0000 D0F80029 		ldr	r2, [r0, #2304]
 3463 0004 054B     		ldr	r3, .L221
 3464 0006 1340     		ands	r3, r3, r2
 3465 0008 C0F80039 		str	r3, [r0, #2304]
1368:Drivers/STM32F7xx_HAL_Driver/Src/stm32f7xx_ll_usb.c **** 
 3466              		.loc 1 1368 3 is_stmt 1 view .LVU1086
1368:Drivers/STM32F7xx_HAL_Driver/Src/stm32f7xx_ll_usb.c **** 
 3467              		.loc 1 1368 21 is_stmt 0 view .LVU1087
 3468 000c D0F80438 		ldr	r3, [r0, #2052]
 3469 0010 43F48073 		orr	r3, r3, #256
 3470 0014 C0F80438 		str	r3, [r0, #2052]
1370:Drivers/STM32F7xx_HAL_Driver/Src/stm32f7xx_ll_usb.c **** }
 3471              		.loc 1 1370 3 is_stmt 1 view .LVU1088
1371:Drivers/STM32F7xx_HAL_Driver/Src/stm32f7xx_ll_usb.c **** 
 3472              		.loc 1 1371 1 is_stmt 0 view .LVU1089
 3473 0018 0020     		movs	r0, #0
 3474              	.LVL292:
1371:Drivers/STM32F7xx_HAL_Driver/Src/stm32f7xx_ll_usb.c **** 
 3475              		.loc 1 1371 1 view .LVU1090
 3476 001a 7047     		bx	lr
 3477              	.L222:
 3478              		.align	2
 3479              	.L221:
 3480 001c 00F8FFFF 		.word	-2048
 3481              		.cfi_endproc
 3482              	.LFE172:
 3484              		.section	.text.USB_EP0_OutStart,"ax",%progbits
 3485              		.align	1
 3486              		.global	USB_EP0_OutStart
ARM GAS  /tmp/ccrvI8Gd.s 			page 105


 3487              		.syntax unified
 3488              		.thumb
 3489              		.thumb_func
 3490              		.fpu fpv5-d16
 3492              	USB_EP0_OutStart:
 3493              	.LVL293:
 3494              	.LFB173:
1384:Drivers/STM32F7xx_HAL_Driver/Src/stm32f7xx_ll_usb.c ****   uint32_t USBx_BASE = (uint32_t)USBx;
 3495              		.loc 1 1384 1 is_stmt 1 view -0
 3496              		.cfi_startproc
 3497              		@ args = 0, pretend = 0, frame = 0
 3498              		@ frame_needed = 0, uses_anonymous_args = 0
 3499              		@ link register save eliminated.
1384:Drivers/STM32F7xx_HAL_Driver/Src/stm32f7xx_ll_usb.c ****   uint32_t USBx_BASE = (uint32_t)USBx;
 3500              		.loc 1 1384 1 is_stmt 0 view .LVU1092
 3501 0000 10B4     		push	{r4}
 3502              	.LCFI45:
 3503              		.cfi_def_cfa_offset 4
 3504              		.cfi_offset 4, -4
1385:Drivers/STM32F7xx_HAL_Driver/Src/stm32f7xx_ll_usb.c ****   uint32_t gSNPSiD = *(__IO uint32_t *)(&USBx->CID + 0x1U);
 3505              		.loc 1 1385 3 is_stmt 1 view .LVU1093
 3506              	.LVL294:
1386:Drivers/STM32F7xx_HAL_Driver/Src/stm32f7xx_ll_usb.c **** 
 3507              		.loc 1 1386 3 view .LVU1094
1386:Drivers/STM32F7xx_HAL_Driver/Src/stm32f7xx_ll_usb.c **** 
 3508              		.loc 1 1386 12 is_stmt 0 view .LVU1095
 3509 0002 046C     		ldr	r4, [r0, #64]
 3510              	.LVL295:
1388:Drivers/STM32F7xx_HAL_Driver/Src/stm32f7xx_ll_usb.c ****   {
 3511              		.loc 1 1388 3 is_stmt 1 view .LVU1096
1388:Drivers/STM32F7xx_HAL_Driver/Src/stm32f7xx_ll_usb.c ****   {
 3512              		.loc 1 1388 6 is_stmt 0 view .LVU1097
 3513 0004 154B     		ldr	r3, .L228
 3514 0006 9C42     		cmp	r4, r3
 3515 0008 03D9     		bls	.L224
1390:Drivers/STM32F7xx_HAL_Driver/Src/stm32f7xx_ll_usb.c ****     {
 3516              		.loc 1 1390 5 is_stmt 1 view .LVU1098
1390:Drivers/STM32F7xx_HAL_Driver/Src/stm32f7xx_ll_usb.c ****     {
 3517              		.loc 1 1390 24 is_stmt 0 view .LVU1099
 3518 000a D0F8003B 		ldr	r3, [r0, #2816]
1390:Drivers/STM32F7xx_HAL_Driver/Src/stm32f7xx_ll_usb.c ****     {
 3519              		.loc 1 1390 8 view .LVU1100
 3520 000e 002B     		cmp	r3, #0
 3521 0010 16DB     		blt	.L225
 3522              	.L224:
1396:Drivers/STM32F7xx_HAL_Driver/Src/stm32f7xx_ll_usb.c ****   USBx_OUTEP(0U)->DOEPTSIZ |= (USB_OTG_DOEPTSIZ_PKTCNT & (1U << 19));
 3523              		.loc 1 1396 3 is_stmt 1 view .LVU1101
1396:Drivers/STM32F7xx_HAL_Driver/Src/stm32f7xx_ll_usb.c ****   USBx_OUTEP(0U)->DOEPTSIZ |= (USB_OTG_DOEPTSIZ_PKTCNT & (1U << 19));
 3524              		.loc 1 1396 28 is_stmt 0 view .LVU1102
 3525 0012 0024     		movs	r4, #0
 3526              	.LVL296:
1396:Drivers/STM32F7xx_HAL_Driver/Src/stm32f7xx_ll_usb.c ****   USBx_OUTEP(0U)->DOEPTSIZ |= (USB_OTG_DOEPTSIZ_PKTCNT & (1U << 19));
 3527              		.loc 1 1396 28 view .LVU1103
 3528 0014 C0F8104B 		str	r4, [r0, #2832]
1397:Drivers/STM32F7xx_HAL_Driver/Src/stm32f7xx_ll_usb.c ****   USBx_OUTEP(0U)->DOEPTSIZ |= (3U * 8U);
 3529              		.loc 1 1397 3 is_stmt 1 view .LVU1104
1397:Drivers/STM32F7xx_HAL_Driver/Src/stm32f7xx_ll_usb.c ****   USBx_OUTEP(0U)->DOEPTSIZ |= (3U * 8U);
ARM GAS  /tmp/ccrvI8Gd.s 			page 106


 3530              		.loc 1 1397 28 is_stmt 0 view .LVU1105
 3531 0018 D0F8104B 		ldr	r4, [r0, #2832]
 3532 001c 44F40024 		orr	r4, r4, #524288
 3533 0020 C0F8104B 		str	r4, [r0, #2832]
1398:Drivers/STM32F7xx_HAL_Driver/Src/stm32f7xx_ll_usb.c ****   USBx_OUTEP(0U)->DOEPTSIZ |=  USB_OTG_DOEPTSIZ_STUPCNT;
 3534              		.loc 1 1398 3 is_stmt 1 view .LVU1106
1398:Drivers/STM32F7xx_HAL_Driver/Src/stm32f7xx_ll_usb.c ****   USBx_OUTEP(0U)->DOEPTSIZ |=  USB_OTG_DOEPTSIZ_STUPCNT;
 3535              		.loc 1 1398 28 is_stmt 0 view .LVU1107
 3536 0024 D0F8104B 		ldr	r4, [r0, #2832]
 3537 0028 44F01804 		orr	r4, r4, #24
 3538 002c C0F8104B 		str	r4, [r0, #2832]
1399:Drivers/STM32F7xx_HAL_Driver/Src/stm32f7xx_ll_usb.c **** 
 3539              		.loc 1 1399 3 is_stmt 1 view .LVU1108
1399:Drivers/STM32F7xx_HAL_Driver/Src/stm32f7xx_ll_usb.c **** 
 3540              		.loc 1 1399 28 is_stmt 0 view .LVU1109
 3541 0030 D0F8104B 		ldr	r4, [r0, #2832]
 3542 0034 44F0C044 		orr	r4, r4, #1610612736
 3543 0038 C0F8104B 		str	r4, [r0, #2832]
1401:Drivers/STM32F7xx_HAL_Driver/Src/stm32f7xx_ll_usb.c ****   {
 3544              		.loc 1 1401 3 is_stmt 1 view .LVU1110
1401:Drivers/STM32F7xx_HAL_Driver/Src/stm32f7xx_ll_usb.c ****   {
 3545              		.loc 1 1401 6 is_stmt 0 view .LVU1111
 3546 003c 0129     		cmp	r1, #1
 3547 003e 03D0     		beq	.L227
 3548              	.L225:
1409:Drivers/STM32F7xx_HAL_Driver/Src/stm32f7xx_ll_usb.c **** 
 3549              		.loc 1 1409 1 view .LVU1112
 3550 0040 0020     		movs	r0, #0
 3551              	.LVL297:
1409:Drivers/STM32F7xx_HAL_Driver/Src/stm32f7xx_ll_usb.c **** 
 3552              		.loc 1 1409 1 view .LVU1113
 3553 0042 5DF8044B 		ldr	r4, [sp], #4
 3554              	.LCFI46:
 3555              		.cfi_remember_state
 3556              		.cfi_restore 4
 3557              		.cfi_def_cfa_offset 0
 3558 0046 7047     		bx	lr
 3559              	.LVL298:
 3560              	.L227:
 3561              	.LCFI47:
 3562              		.cfi_restore_state
1403:Drivers/STM32F7xx_HAL_Driver/Src/stm32f7xx_ll_usb.c ****     /* EP enable */
 3563              		.loc 1 1403 5 is_stmt 1 view .LVU1114
1403:Drivers/STM32F7xx_HAL_Driver/Src/stm32f7xx_ll_usb.c ****     /* EP enable */
 3564              		.loc 1 1403 29 is_stmt 0 view .LVU1115
 3565 0048 C0F8142B 		str	r2, [r0, #2836]
1405:Drivers/STM32F7xx_HAL_Driver/Src/stm32f7xx_ll_usb.c ****   }
 3566              		.loc 1 1405 5 is_stmt 1 view .LVU1116
1405:Drivers/STM32F7xx_HAL_Driver/Src/stm32f7xx_ll_usb.c ****   }
 3567              		.loc 1 1405 29 is_stmt 0 view .LVU1117
 3568 004c D0F8003B 		ldr	r3, [r0, #2816]
 3569 0050 43F08023 		orr	r3, r3, #-2147450880
 3570 0054 C0F8003B 		str	r3, [r0, #2816]
 3571 0058 F2E7     		b	.L225
 3572              	.L229:
 3573 005a 00BF     		.align	2
 3574              	.L228:
ARM GAS  /tmp/ccrvI8Gd.s 			page 107


 3575 005c 0A30544F 		.word	1330917386
 3576              		.cfi_endproc
 3577              	.LFE173:
 3579              		.section	.text.USB_HostInit,"ax",%progbits
 3580              		.align	1
 3581              		.global	USB_HostInit
 3582              		.syntax unified
 3583              		.thumb
 3584              		.thumb_func
 3585              		.fpu fpv5-d16
 3587              	USB_HostInit:
 3588              	.LVL299:
 3589              	.LFB175:
1443:Drivers/STM32F7xx_HAL_Driver/Src/stm32f7xx_ll_usb.c **** 
1444:Drivers/STM32F7xx_HAL_Driver/Src/stm32f7xx_ll_usb.c **** #ifdef USBPHYC
1445:Drivers/STM32F7xx_HAL_Driver/Src/stm32f7xx_ll_usb.c **** /**
1446:Drivers/STM32F7xx_HAL_Driver/Src/stm32f7xx_ll_usb.c ****   * @brief  Enables control of a High Speed USB PHY
1447:Drivers/STM32F7xx_HAL_Driver/Src/stm32f7xx_ll_usb.c ****   *         Init the low level hardware : GPIO, CLOCK, NVIC...
1448:Drivers/STM32F7xx_HAL_Driver/Src/stm32f7xx_ll_usb.c ****   * @param  USBx  Selected device
1449:Drivers/STM32F7xx_HAL_Driver/Src/stm32f7xx_ll_usb.c ****   * @retval HAL status
1450:Drivers/STM32F7xx_HAL_Driver/Src/stm32f7xx_ll_usb.c ****   */
1451:Drivers/STM32F7xx_HAL_Driver/Src/stm32f7xx_ll_usb.c **** static HAL_StatusTypeDef USB_HS_PHYCInit(USB_OTG_GlobalTypeDef *USBx)
1452:Drivers/STM32F7xx_HAL_Driver/Src/stm32f7xx_ll_usb.c **** {
1453:Drivers/STM32F7xx_HAL_Driver/Src/stm32f7xx_ll_usb.c ****   UNUSED(USBx);
1454:Drivers/STM32F7xx_HAL_Driver/Src/stm32f7xx_ll_usb.c ****   __IO uint32_t count = 0U;
1455:Drivers/STM32F7xx_HAL_Driver/Src/stm32f7xx_ll_usb.c **** 
1456:Drivers/STM32F7xx_HAL_Driver/Src/stm32f7xx_ll_usb.c ****   /* Enable LDO */
1457:Drivers/STM32F7xx_HAL_Driver/Src/stm32f7xx_ll_usb.c ****   USB_HS_PHYC->USB_HS_PHYC_LDO |= USB_HS_PHYC_LDO_ENABLE;
1458:Drivers/STM32F7xx_HAL_Driver/Src/stm32f7xx_ll_usb.c **** 
1459:Drivers/STM32F7xx_HAL_Driver/Src/stm32f7xx_ll_usb.c ****   /* wait for LDO Ready */
1460:Drivers/STM32F7xx_HAL_Driver/Src/stm32f7xx_ll_usb.c ****   while ((USB_HS_PHYC->USB_HS_PHYC_LDO & USB_HS_PHYC_LDO_STATUS) == 0U)
1461:Drivers/STM32F7xx_HAL_Driver/Src/stm32f7xx_ll_usb.c ****   {
1462:Drivers/STM32F7xx_HAL_Driver/Src/stm32f7xx_ll_usb.c ****     if (++count > 200000U)
1463:Drivers/STM32F7xx_HAL_Driver/Src/stm32f7xx_ll_usb.c ****     {
1464:Drivers/STM32F7xx_HAL_Driver/Src/stm32f7xx_ll_usb.c ****       return HAL_TIMEOUT;
1465:Drivers/STM32F7xx_HAL_Driver/Src/stm32f7xx_ll_usb.c ****     }
1466:Drivers/STM32F7xx_HAL_Driver/Src/stm32f7xx_ll_usb.c ****   }
1467:Drivers/STM32F7xx_HAL_Driver/Src/stm32f7xx_ll_usb.c **** 
1468:Drivers/STM32F7xx_HAL_Driver/Src/stm32f7xx_ll_usb.c ****   /* Controls PHY frequency operation selection */
1469:Drivers/STM32F7xx_HAL_Driver/Src/stm32f7xx_ll_usb.c ****   if (HSE_VALUE == 12000000U) /* HSE = 12MHz */
1470:Drivers/STM32F7xx_HAL_Driver/Src/stm32f7xx_ll_usb.c ****   {
1471:Drivers/STM32F7xx_HAL_Driver/Src/stm32f7xx_ll_usb.c ****     USB_HS_PHYC->USB_HS_PHYC_PLL = (0x0U << 1);
1472:Drivers/STM32F7xx_HAL_Driver/Src/stm32f7xx_ll_usb.c ****   }
1473:Drivers/STM32F7xx_HAL_Driver/Src/stm32f7xx_ll_usb.c ****   else if (HSE_VALUE == 12500000U) /* HSE = 12.5MHz */
1474:Drivers/STM32F7xx_HAL_Driver/Src/stm32f7xx_ll_usb.c ****   {
1475:Drivers/STM32F7xx_HAL_Driver/Src/stm32f7xx_ll_usb.c ****     USB_HS_PHYC->USB_HS_PHYC_PLL = (0x2U << 1);
1476:Drivers/STM32F7xx_HAL_Driver/Src/stm32f7xx_ll_usb.c ****   }
1477:Drivers/STM32F7xx_HAL_Driver/Src/stm32f7xx_ll_usb.c ****   else if (HSE_VALUE == 16000000U) /* HSE = 16MHz */
1478:Drivers/STM32F7xx_HAL_Driver/Src/stm32f7xx_ll_usb.c ****   {
1479:Drivers/STM32F7xx_HAL_Driver/Src/stm32f7xx_ll_usb.c ****     USB_HS_PHYC->USB_HS_PHYC_PLL = (0x3U << 1);
1480:Drivers/STM32F7xx_HAL_Driver/Src/stm32f7xx_ll_usb.c ****   }
1481:Drivers/STM32F7xx_HAL_Driver/Src/stm32f7xx_ll_usb.c ****   else if (HSE_VALUE == 24000000U) /* HSE = 24MHz */
1482:Drivers/STM32F7xx_HAL_Driver/Src/stm32f7xx_ll_usb.c ****   {
1483:Drivers/STM32F7xx_HAL_Driver/Src/stm32f7xx_ll_usb.c ****     USB_HS_PHYC->USB_HS_PHYC_PLL = (0x4U << 1);
1484:Drivers/STM32F7xx_HAL_Driver/Src/stm32f7xx_ll_usb.c ****   }
1485:Drivers/STM32F7xx_HAL_Driver/Src/stm32f7xx_ll_usb.c ****   else if (HSE_VALUE == 25000000U) /* HSE = 25MHz */
1486:Drivers/STM32F7xx_HAL_Driver/Src/stm32f7xx_ll_usb.c ****   {
ARM GAS  /tmp/ccrvI8Gd.s 			page 108


1487:Drivers/STM32F7xx_HAL_Driver/Src/stm32f7xx_ll_usb.c ****     USB_HS_PHYC->USB_HS_PHYC_PLL = (0x5U << 1);
1488:Drivers/STM32F7xx_HAL_Driver/Src/stm32f7xx_ll_usb.c ****   }
1489:Drivers/STM32F7xx_HAL_Driver/Src/stm32f7xx_ll_usb.c ****   else if (HSE_VALUE == 32000000U) /* HSE = 32MHz */
1490:Drivers/STM32F7xx_HAL_Driver/Src/stm32f7xx_ll_usb.c ****   {
1491:Drivers/STM32F7xx_HAL_Driver/Src/stm32f7xx_ll_usb.c ****     USB_HS_PHYC->USB_HS_PHYC_PLL = (0x7U << 1);
1492:Drivers/STM32F7xx_HAL_Driver/Src/stm32f7xx_ll_usb.c ****   }
1493:Drivers/STM32F7xx_HAL_Driver/Src/stm32f7xx_ll_usb.c ****   else
1494:Drivers/STM32F7xx_HAL_Driver/Src/stm32f7xx_ll_usb.c ****   {
1495:Drivers/STM32F7xx_HAL_Driver/Src/stm32f7xx_ll_usb.c ****     /* ... */
1496:Drivers/STM32F7xx_HAL_Driver/Src/stm32f7xx_ll_usb.c ****   }
1497:Drivers/STM32F7xx_HAL_Driver/Src/stm32f7xx_ll_usb.c **** 
1498:Drivers/STM32F7xx_HAL_Driver/Src/stm32f7xx_ll_usb.c ****   /* Control the tuning interface of the High Speed PHY */
1499:Drivers/STM32F7xx_HAL_Driver/Src/stm32f7xx_ll_usb.c ****   USB_HS_PHYC->USB_HS_PHYC_TUNE |= USB_HS_PHYC_TUNE_VALUE;
1500:Drivers/STM32F7xx_HAL_Driver/Src/stm32f7xx_ll_usb.c **** 
1501:Drivers/STM32F7xx_HAL_Driver/Src/stm32f7xx_ll_usb.c ****   /* Enable PLL internal PHY */
1502:Drivers/STM32F7xx_HAL_Driver/Src/stm32f7xx_ll_usb.c ****   USB_HS_PHYC->USB_HS_PHYC_PLL |= USB_HS_PHYC_PLL_PLLEN;
1503:Drivers/STM32F7xx_HAL_Driver/Src/stm32f7xx_ll_usb.c **** 
1504:Drivers/STM32F7xx_HAL_Driver/Src/stm32f7xx_ll_usb.c **** 
1505:Drivers/STM32F7xx_HAL_Driver/Src/stm32f7xx_ll_usb.c ****   /* 2ms Delay required to get internal phy clock stable */
1506:Drivers/STM32F7xx_HAL_Driver/Src/stm32f7xx_ll_usb.c ****   HAL_Delay(2U);
1507:Drivers/STM32F7xx_HAL_Driver/Src/stm32f7xx_ll_usb.c **** 
1508:Drivers/STM32F7xx_HAL_Driver/Src/stm32f7xx_ll_usb.c ****   return HAL_OK;
1509:Drivers/STM32F7xx_HAL_Driver/Src/stm32f7xx_ll_usb.c **** }
1510:Drivers/STM32F7xx_HAL_Driver/Src/stm32f7xx_ll_usb.c **** 
1511:Drivers/STM32F7xx_HAL_Driver/Src/stm32f7xx_ll_usb.c **** #endif /* USBPHYC */
1512:Drivers/STM32F7xx_HAL_Driver/Src/stm32f7xx_ll_usb.c **** /**
1513:Drivers/STM32F7xx_HAL_Driver/Src/stm32f7xx_ll_usb.c ****   * @brief  USB_HostInit : Initializes the USB OTG controller registers
1514:Drivers/STM32F7xx_HAL_Driver/Src/stm32f7xx_ll_usb.c ****   *         for Host mode
1515:Drivers/STM32F7xx_HAL_Driver/Src/stm32f7xx_ll_usb.c ****   * @param  USBx  Selected device
1516:Drivers/STM32F7xx_HAL_Driver/Src/stm32f7xx_ll_usb.c ****   * @param  cfg   pointer to a USB_OTG_CfgTypeDef structure that contains
1517:Drivers/STM32F7xx_HAL_Driver/Src/stm32f7xx_ll_usb.c ****   *         the configuration information for the specified USBx peripheral.
1518:Drivers/STM32F7xx_HAL_Driver/Src/stm32f7xx_ll_usb.c ****   * @retval HAL status
1519:Drivers/STM32F7xx_HAL_Driver/Src/stm32f7xx_ll_usb.c ****   */
1520:Drivers/STM32F7xx_HAL_Driver/Src/stm32f7xx_ll_usb.c **** HAL_StatusTypeDef USB_HostInit(USB_OTG_GlobalTypeDef *USBx, USB_OTG_CfgTypeDef cfg)
1521:Drivers/STM32F7xx_HAL_Driver/Src/stm32f7xx_ll_usb.c **** {
 3590              		.loc 1 1521 1 is_stmt 1 view -0
 3591              		.cfi_startproc
 3592              		@ args = 56, pretend = 16, frame = 0
 3593              		@ frame_needed = 0, uses_anonymous_args = 0
 3594              		.loc 1 1521 1 is_stmt 0 view .LVU1119
 3595 0000 84B0     		sub	sp, sp, #16
 3596              	.LCFI48:
 3597              		.cfi_def_cfa_offset 16
 3598 0002 70B5     		push	{r4, r5, r6, lr}
 3599              	.LCFI49:
 3600              		.cfi_def_cfa_offset 32
 3601              		.cfi_offset 4, -32
 3602              		.cfi_offset 5, -28
 3603              		.cfi_offset 6, -24
 3604              		.cfi_offset 14, -20
 3605 0004 0446     		mov	r4, r0
 3606 0006 05A8     		add	r0, sp, #20
 3607              	.LVL300:
 3608              		.loc 1 1521 1 view .LVU1120
 3609 0008 80E80E00 		stm	r0, {r1, r2, r3}
1522:Drivers/STM32F7xx_HAL_Driver/Src/stm32f7xx_ll_usb.c ****   HAL_StatusTypeDef ret = HAL_OK;
 3610              		.loc 1 1522 3 is_stmt 1 view .LVU1121
ARM GAS  /tmp/ccrvI8Gd.s 			page 109


 3611              	.LVL301:
1523:Drivers/STM32F7xx_HAL_Driver/Src/stm32f7xx_ll_usb.c ****   uint32_t USBx_BASE = (uint32_t)USBx;
 3612              		.loc 1 1523 3 view .LVU1122
 3613              		.loc 1 1523 12 is_stmt 0 view .LVU1123
 3614 000c 2546     		mov	r5, r4
 3615              	.LVL302:
1524:Drivers/STM32F7xx_HAL_Driver/Src/stm32f7xx_ll_usb.c ****   uint32_t i;
 3616              		.loc 1 1524 3 is_stmt 1 view .LVU1124
1525:Drivers/STM32F7xx_HAL_Driver/Src/stm32f7xx_ll_usb.c **** 
1526:Drivers/STM32F7xx_HAL_Driver/Src/stm32f7xx_ll_usb.c ****   /* Restart the Phy Clock */
1527:Drivers/STM32F7xx_HAL_Driver/Src/stm32f7xx_ll_usb.c ****   USBx_PCGCCTL = 0U;
 3617              		.loc 1 1527 3 view .LVU1125
 3618              		.loc 1 1527 16 is_stmt 0 view .LVU1126
 3619 000e 0023     		movs	r3, #0
 3620 0010 C4F8003E 		str	r3, [r4, #3584]
1528:Drivers/STM32F7xx_HAL_Driver/Src/stm32f7xx_ll_usb.c **** 
1529:Drivers/STM32F7xx_HAL_Driver/Src/stm32f7xx_ll_usb.c ****   /* Disable VBUS sensing */
1530:Drivers/STM32F7xx_HAL_Driver/Src/stm32f7xx_ll_usb.c ****   USBx->GCCFG &= ~(USB_OTG_GCCFG_VBDEN);
 3621              		.loc 1 1530 3 is_stmt 1 view .LVU1127
 3622              		.loc 1 1530 15 is_stmt 0 view .LVU1128
 3623 0014 A36B     		ldr	r3, [r4, #56]
 3624 0016 23F40013 		bic	r3, r3, #2097152
 3625 001a A363     		str	r3, [r4, #56]
1531:Drivers/STM32F7xx_HAL_Driver/Src/stm32f7xx_ll_usb.c **** 
1532:Drivers/STM32F7xx_HAL_Driver/Src/stm32f7xx_ll_usb.c ****   if ((USBx->CID & (0x1U << 8)) != 0U)
 3626              		.loc 1 1532 3 is_stmt 1 view .LVU1129
 3627              		.loc 1 1532 12 is_stmt 0 view .LVU1130
 3628 001c E36B     		ldr	r3, [r4, #60]
 3629              		.loc 1 1532 6 view .LVU1131
 3630 001e 13F4807F 		tst	r3, #256
 3631 0022 10D0     		beq	.L231
1533:Drivers/STM32F7xx_HAL_Driver/Src/stm32f7xx_ll_usb.c ****   {
1534:Drivers/STM32F7xx_HAL_Driver/Src/stm32f7xx_ll_usb.c ****     if (cfg.speed == USBH_FSLS_SPEED)
 3632              		.loc 1 1534 5 is_stmt 1 view .LVU1132
 3633              		.loc 1 1534 12 is_stmt 0 view .LVU1133
 3634 0024 079B     		ldr	r3, [sp, #28]
 3635              		.loc 1 1534 8 view .LVU1134
 3636 0026 012B     		cmp	r3, #1
 3637 0028 06D0     		beq	.L244
1535:Drivers/STM32F7xx_HAL_Driver/Src/stm32f7xx_ll_usb.c ****     {
1536:Drivers/STM32F7xx_HAL_Driver/Src/stm32f7xx_ll_usb.c ****       /* Force Device Enumeration to FS/LS mode only */
1537:Drivers/STM32F7xx_HAL_Driver/Src/stm32f7xx_ll_usb.c ****       USBx_HOST->HCFG |= USB_OTG_HCFG_FSLSS;
1538:Drivers/STM32F7xx_HAL_Driver/Src/stm32f7xx_ll_usb.c ****     }
1539:Drivers/STM32F7xx_HAL_Driver/Src/stm32f7xx_ll_usb.c ****     else
1540:Drivers/STM32F7xx_HAL_Driver/Src/stm32f7xx_ll_usb.c ****     {
1541:Drivers/STM32F7xx_HAL_Driver/Src/stm32f7xx_ll_usb.c ****       /* Set default Max speed support */
1542:Drivers/STM32F7xx_HAL_Driver/Src/stm32f7xx_ll_usb.c ****       USBx_HOST->HCFG &= ~(USB_OTG_HCFG_FSLSS);
 3638              		.loc 1 1542 7 is_stmt 1 view .LVU1135
 3639              		.loc 1 1542 23 is_stmt 0 view .LVU1136
 3640 002a D4F80034 		ldr	r3, [r4, #1024]
 3641 002e 23F00403 		bic	r3, r3, #4
 3642 0032 C4F80034 		str	r3, [r4, #1024]
 3643 0036 0CE0     		b	.L233
 3644              	.L244:
1537:Drivers/STM32F7xx_HAL_Driver/Src/stm32f7xx_ll_usb.c ****     }
 3645              		.loc 1 1537 7 is_stmt 1 view .LVU1137
1537:Drivers/STM32F7xx_HAL_Driver/Src/stm32f7xx_ll_usb.c ****     }
ARM GAS  /tmp/ccrvI8Gd.s 			page 110


 3646              		.loc 1 1537 23 is_stmt 0 view .LVU1138
 3647 0038 D4F80034 		ldr	r3, [r4, #1024]
 3648 003c 43F00403 		orr	r3, r3, #4
 3649 0040 C4F80034 		str	r3, [r4, #1024]
 3650 0044 05E0     		b	.L233
 3651              	.L231:
1543:Drivers/STM32F7xx_HAL_Driver/Src/stm32f7xx_ll_usb.c ****     }
1544:Drivers/STM32F7xx_HAL_Driver/Src/stm32f7xx_ll_usb.c ****   }
1545:Drivers/STM32F7xx_HAL_Driver/Src/stm32f7xx_ll_usb.c ****   else
1546:Drivers/STM32F7xx_HAL_Driver/Src/stm32f7xx_ll_usb.c ****   {
1547:Drivers/STM32F7xx_HAL_Driver/Src/stm32f7xx_ll_usb.c ****     /* Set default Max speed support */
1548:Drivers/STM32F7xx_HAL_Driver/Src/stm32f7xx_ll_usb.c ****     USBx_HOST->HCFG &= ~(USB_OTG_HCFG_FSLSS);
 3652              		.loc 1 1548 5 is_stmt 1 view .LVU1139
 3653              		.loc 1 1548 21 is_stmt 0 view .LVU1140
 3654 0046 D4F80034 		ldr	r3, [r4, #1024]
 3655 004a 23F00403 		bic	r3, r3, #4
 3656 004e C4F80034 		str	r3, [r4, #1024]
 3657              	.L233:
1549:Drivers/STM32F7xx_HAL_Driver/Src/stm32f7xx_ll_usb.c ****   }
1550:Drivers/STM32F7xx_HAL_Driver/Src/stm32f7xx_ll_usb.c **** 
1551:Drivers/STM32F7xx_HAL_Driver/Src/stm32f7xx_ll_usb.c ****   /* Make sure the FIFOs are flushed. */
1552:Drivers/STM32F7xx_HAL_Driver/Src/stm32f7xx_ll_usb.c ****   if (USB_FlushTxFifo(USBx, 0x10U) != HAL_OK) /* all Tx FIFOs */
 3658              		.loc 1 1552 3 is_stmt 1 view .LVU1141
 3659              		.loc 1 1552 7 is_stmt 0 view .LVU1142
 3660 0052 1021     		movs	r1, #16
 3661 0054 2046     		mov	r0, r4
 3662 0056 FFF7FEFF 		bl	USB_FlushTxFifo
 3663              	.LVL303:
 3664              		.loc 1 1552 6 view .LVU1143
 3665 005a 0646     		mov	r6, r0
 3666 005c 00B1     		cbz	r0, .L234
1553:Drivers/STM32F7xx_HAL_Driver/Src/stm32f7xx_ll_usb.c ****   {
1554:Drivers/STM32F7xx_HAL_Driver/Src/stm32f7xx_ll_usb.c ****     ret = HAL_ERROR;
 3667              		.loc 1 1554 9 view .LVU1144
 3668 005e 0126     		movs	r6, #1
 3669              	.L234:
 3670              	.LVL304:
1555:Drivers/STM32F7xx_HAL_Driver/Src/stm32f7xx_ll_usb.c ****   }
1556:Drivers/STM32F7xx_HAL_Driver/Src/stm32f7xx_ll_usb.c **** 
1557:Drivers/STM32F7xx_HAL_Driver/Src/stm32f7xx_ll_usb.c ****   if (USB_FlushRxFifo(USBx) != HAL_OK)
 3671              		.loc 1 1557 3 is_stmt 1 view .LVU1145
 3672              		.loc 1 1557 7 is_stmt 0 view .LVU1146
 3673 0060 2046     		mov	r0, r4
 3674 0062 FFF7FEFF 		bl	USB_FlushRxFifo
 3675              	.LVL305:
 3676              		.loc 1 1557 6 view .LVU1147
 3677 0066 00B1     		cbz	r0, .L235
1558:Drivers/STM32F7xx_HAL_Driver/Src/stm32f7xx_ll_usb.c ****   {
1559:Drivers/STM32F7xx_HAL_Driver/Src/stm32f7xx_ll_usb.c ****     ret = HAL_ERROR;
 3678              		.loc 1 1559 9 view .LVU1148
 3679 0068 0126     		movs	r6, #1
 3680              	.LVL306:
 3681              	.L235:
1560:Drivers/STM32F7xx_HAL_Driver/Src/stm32f7xx_ll_usb.c ****   }
1561:Drivers/STM32F7xx_HAL_Driver/Src/stm32f7xx_ll_usb.c **** 
1562:Drivers/STM32F7xx_HAL_Driver/Src/stm32f7xx_ll_usb.c ****   /* Clear all pending HC Interrupts */
1563:Drivers/STM32F7xx_HAL_Driver/Src/stm32f7xx_ll_usb.c ****   for (i = 0U; i < cfg.Host_channels; i++)
ARM GAS  /tmp/ccrvI8Gd.s 			page 111


 3682              		.loc 1 1563 3 is_stmt 1 view .LVU1149
 3683              		.loc 1 1563 10 is_stmt 0 view .LVU1150
 3684 006a 0022     		movs	r2, #0
 3685              	.LVL307:
 3686              	.L236:
 3687              		.loc 1 1563 16 is_stmt 1 discriminator 1 view .LVU1151
 3688              		.loc 1 1563 23 is_stmt 0 discriminator 1 view .LVU1152
 3689 006c 069B     		ldr	r3, [sp, #24]
 3690              		.loc 1 1563 3 discriminator 1 view .LVU1153
 3691 006e 9342     		cmp	r3, r2
 3692 0070 0AD9     		bls	.L245
1564:Drivers/STM32F7xx_HAL_Driver/Src/stm32f7xx_ll_usb.c ****   {
1565:Drivers/STM32F7xx_HAL_Driver/Src/stm32f7xx_ll_usb.c ****     USBx_HC(i)->HCINT = 0xFFFFFFFFU;
 3693              		.loc 1 1565 5 is_stmt 1 discriminator 3 view .LVU1154
 3694 0072 05EB4213 		add	r3, r5, r2, lsl #5
 3695              		.loc 1 1565 23 is_stmt 0 discriminator 3 view .LVU1155
 3696 0076 4FF0FF31 		mov	r1, #-1
 3697 007a C3F80815 		str	r1, [r3, #1288]
1566:Drivers/STM32F7xx_HAL_Driver/Src/stm32f7xx_ll_usb.c ****     USBx_HC(i)->HCINTMSK = 0U;
 3698              		.loc 1 1566 5 is_stmt 1 discriminator 3 view .LVU1156
 3699              		.loc 1 1566 26 is_stmt 0 discriminator 3 view .LVU1157
 3700 007e 0021     		movs	r1, #0
 3701 0080 C3F80C15 		str	r1, [r3, #1292]
1563:Drivers/STM32F7xx_HAL_Driver/Src/stm32f7xx_ll_usb.c ****   {
 3702              		.loc 1 1563 39 is_stmt 1 discriminator 3 view .LVU1158
1563:Drivers/STM32F7xx_HAL_Driver/Src/stm32f7xx_ll_usb.c ****   {
 3703              		.loc 1 1563 40 is_stmt 0 discriminator 3 view .LVU1159
 3704 0084 0132     		adds	r2, r2, #1
 3705              	.LVL308:
1563:Drivers/STM32F7xx_HAL_Driver/Src/stm32f7xx_ll_usb.c ****   {
 3706              		.loc 1 1563 40 discriminator 3 view .LVU1160
 3707 0086 F1E7     		b	.L236
 3708              	.L245:
1567:Drivers/STM32F7xx_HAL_Driver/Src/stm32f7xx_ll_usb.c ****   }
1568:Drivers/STM32F7xx_HAL_Driver/Src/stm32f7xx_ll_usb.c **** 
1569:Drivers/STM32F7xx_HAL_Driver/Src/stm32f7xx_ll_usb.c ****   /* Disable all interrupts. */
1570:Drivers/STM32F7xx_HAL_Driver/Src/stm32f7xx_ll_usb.c ****   USBx->GINTMSK = 0U;
 3709              		.loc 1 1570 3 is_stmt 1 view .LVU1161
 3710              		.loc 1 1570 17 is_stmt 0 view .LVU1162
 3711 0088 0023     		movs	r3, #0
 3712 008a A361     		str	r3, [r4, #24]
1571:Drivers/STM32F7xx_HAL_Driver/Src/stm32f7xx_ll_usb.c **** 
1572:Drivers/STM32F7xx_HAL_Driver/Src/stm32f7xx_ll_usb.c ****   /* Clear any pending interrupts */
1573:Drivers/STM32F7xx_HAL_Driver/Src/stm32f7xx_ll_usb.c ****   USBx->GINTSTS = 0xFFFFFFFFU;
 3713              		.loc 1 1573 3 is_stmt 1 view .LVU1163
 3714              		.loc 1 1573 17 is_stmt 0 view .LVU1164
 3715 008c 4FF0FF33 		mov	r3, #-1
 3716 0090 6361     		str	r3, [r4, #20]
1574:Drivers/STM32F7xx_HAL_Driver/Src/stm32f7xx_ll_usb.c **** 
1575:Drivers/STM32F7xx_HAL_Driver/Src/stm32f7xx_ll_usb.c ****   if ((USBx->CID & (0x1U << 8)) != 0U)
 3717              		.loc 1 1575 3 is_stmt 1 view .LVU1165
 3718              		.loc 1 1575 12 is_stmt 0 view .LVU1166
 3719 0092 E36B     		ldr	r3, [r4, #60]
 3720              		.loc 1 1575 6 view .LVU1167
 3721 0094 13F4807F 		tst	r3, #256
 3722 0098 17D0     		beq	.L238
1576:Drivers/STM32F7xx_HAL_Driver/Src/stm32f7xx_ll_usb.c ****   {
ARM GAS  /tmp/ccrvI8Gd.s 			page 112


1577:Drivers/STM32F7xx_HAL_Driver/Src/stm32f7xx_ll_usb.c ****     /* set Rx FIFO size */
1578:Drivers/STM32F7xx_HAL_Driver/Src/stm32f7xx_ll_usb.c ****     USBx->GRXFSIZ  = 0x200U;
 3723              		.loc 1 1578 5 is_stmt 1 view .LVU1168
 3724              		.loc 1 1578 20 is_stmt 0 view .LVU1169
 3725 009a 4FF40073 		mov	r3, #512
 3726 009e 6362     		str	r3, [r4, #36]
1579:Drivers/STM32F7xx_HAL_Driver/Src/stm32f7xx_ll_usb.c ****     USBx->DIEPTXF0_HNPTXFSIZ = (uint32_t)(((0x100U << 16) & USB_OTG_NPTXFD) | 0x200U);
 3727              		.loc 1 1579 5 is_stmt 1 view .LVU1170
 3728              		.loc 1 1579 30 is_stmt 0 view .LVU1171
 3729 00a0 03F18073 		add	r3, r3, #16777216
 3730 00a4 A362     		str	r3, [r4, #40]
1580:Drivers/STM32F7xx_HAL_Driver/Src/stm32f7xx_ll_usb.c ****     USBx->HPTXFSIZ = (uint32_t)(((0xE0U << 16) & USB_OTG_HPTXFSIZ_PTXFD) | 0x300U);
 3731              		.loc 1 1580 5 is_stmt 1 view .LVU1172
 3732              		.loc 1 1580 20 is_stmt 0 view .LVU1173
 3733 00a6 0D4B     		ldr	r3, .L246
 3734 00a8 C4F80031 		str	r3, [r4, #256]
 3735              	.L239:
1581:Drivers/STM32F7xx_HAL_Driver/Src/stm32f7xx_ll_usb.c ****   }
1582:Drivers/STM32F7xx_HAL_Driver/Src/stm32f7xx_ll_usb.c ****   else
1583:Drivers/STM32F7xx_HAL_Driver/Src/stm32f7xx_ll_usb.c ****   {
1584:Drivers/STM32F7xx_HAL_Driver/Src/stm32f7xx_ll_usb.c ****     /* set Rx FIFO size */
1585:Drivers/STM32F7xx_HAL_Driver/Src/stm32f7xx_ll_usb.c ****     USBx->GRXFSIZ  = 0x80U;
1586:Drivers/STM32F7xx_HAL_Driver/Src/stm32f7xx_ll_usb.c ****     USBx->DIEPTXF0_HNPTXFSIZ = (uint32_t)(((0x60U << 16) & USB_OTG_NPTXFD) | 0x80U);
1587:Drivers/STM32F7xx_HAL_Driver/Src/stm32f7xx_ll_usb.c ****     USBx->HPTXFSIZ = (uint32_t)(((0x40U << 16)& USB_OTG_HPTXFSIZ_PTXFD) | 0xE0U);
1588:Drivers/STM32F7xx_HAL_Driver/Src/stm32f7xx_ll_usb.c ****   }
1589:Drivers/STM32F7xx_HAL_Driver/Src/stm32f7xx_ll_usb.c **** 
1590:Drivers/STM32F7xx_HAL_Driver/Src/stm32f7xx_ll_usb.c ****   /* Enable the common interrupts */
1591:Drivers/STM32F7xx_HAL_Driver/Src/stm32f7xx_ll_usb.c ****   if (cfg.dma_enable == 0U)
 3736              		.loc 1 1591 3 is_stmt 1 view .LVU1174
 3737              		.loc 1 1591 10 is_stmt 0 view .LVU1175
 3738 00ac 089B     		ldr	r3, [sp, #32]
 3739              		.loc 1 1591 6 view .LVU1176
 3740 00ae 1BB9     		cbnz	r3, .L240
1592:Drivers/STM32F7xx_HAL_Driver/Src/stm32f7xx_ll_usb.c ****   {
1593:Drivers/STM32F7xx_HAL_Driver/Src/stm32f7xx_ll_usb.c ****     USBx->GINTMSK |= USB_OTG_GINTMSK_RXFLVLM;
 3741              		.loc 1 1593 5 is_stmt 1 view .LVU1177
 3742              		.loc 1 1593 19 is_stmt 0 view .LVU1178
 3743 00b0 A369     		ldr	r3, [r4, #24]
 3744 00b2 43F01003 		orr	r3, r3, #16
 3745 00b6 A361     		str	r3, [r4, #24]
 3746              	.L240:
1594:Drivers/STM32F7xx_HAL_Driver/Src/stm32f7xx_ll_usb.c ****   }
1595:Drivers/STM32F7xx_HAL_Driver/Src/stm32f7xx_ll_usb.c **** 
1596:Drivers/STM32F7xx_HAL_Driver/Src/stm32f7xx_ll_usb.c ****   /* Enable interrupts matching to the Host mode ONLY */
1597:Drivers/STM32F7xx_HAL_Driver/Src/stm32f7xx_ll_usb.c ****   USBx->GINTMSK |= (USB_OTG_GINTMSK_PRTIM            | USB_OTG_GINTMSK_HCIM | \
 3747              		.loc 1 1597 3 is_stmt 1 view .LVU1179
 3748              		.loc 1 1597 17 is_stmt 0 view .LVU1180
 3749 00b8 A269     		ldr	r2, [r4, #24]
 3750              	.LVL309:
 3751              		.loc 1 1597 17 view .LVU1181
 3752 00ba 094B     		ldr	r3, .L246+4
 3753 00bc 1343     		orrs	r3, r3, r2
 3754 00be A361     		str	r3, [r4, #24]
1598:Drivers/STM32F7xx_HAL_Driver/Src/stm32f7xx_ll_usb.c ****                     USB_OTG_GINTMSK_SOFM             | USB_OTG_GINTSTS_DISCINT | \
1599:Drivers/STM32F7xx_HAL_Driver/Src/stm32f7xx_ll_usb.c ****                     USB_OTG_GINTMSK_PXFRM_IISOOXFRM  | USB_OTG_GINTMSK_WUIM);
1600:Drivers/STM32F7xx_HAL_Driver/Src/stm32f7xx_ll_usb.c **** 
1601:Drivers/STM32F7xx_HAL_Driver/Src/stm32f7xx_ll_usb.c ****   return ret;
ARM GAS  /tmp/ccrvI8Gd.s 			page 113


 3755              		.loc 1 1601 3 is_stmt 1 view .LVU1182
1602:Drivers/STM32F7xx_HAL_Driver/Src/stm32f7xx_ll_usb.c **** }
 3756              		.loc 1 1602 1 is_stmt 0 view .LVU1183
 3757 00c0 3046     		mov	r0, r6
 3758 00c2 BDE87040 		pop	{r4, r5, r6, lr}
 3759              	.LCFI50:
 3760              		.cfi_remember_state
 3761              		.cfi_restore 14
 3762              		.cfi_restore 6
 3763              		.cfi_restore 5
 3764              		.cfi_restore 4
 3765              		.cfi_def_cfa_offset 16
 3766              	.LVL310:
 3767              		.loc 1 1602 1 view .LVU1184
 3768 00c6 04B0     		add	sp, sp, #16
 3769              	.LCFI51:
 3770              		.cfi_def_cfa_offset 0
 3771 00c8 7047     		bx	lr
 3772              	.LVL311:
 3773              	.L238:
 3774              	.LCFI52:
 3775              		.cfi_restore_state
1585:Drivers/STM32F7xx_HAL_Driver/Src/stm32f7xx_ll_usb.c ****     USBx->DIEPTXF0_HNPTXFSIZ = (uint32_t)(((0x60U << 16) & USB_OTG_NPTXFD) | 0x80U);
 3776              		.loc 1 1585 5 is_stmt 1 view .LVU1185
1585:Drivers/STM32F7xx_HAL_Driver/Src/stm32f7xx_ll_usb.c ****     USBx->DIEPTXF0_HNPTXFSIZ = (uint32_t)(((0x60U << 16) & USB_OTG_NPTXFD) | 0x80U);
 3777              		.loc 1 1585 20 is_stmt 0 view .LVU1186
 3778 00ca 8023     		movs	r3, #128
 3779 00cc 6362     		str	r3, [r4, #36]
1586:Drivers/STM32F7xx_HAL_Driver/Src/stm32f7xx_ll_usb.c ****     USBx->HPTXFSIZ = (uint32_t)(((0x40U << 16)& USB_OTG_HPTXFSIZ_PTXFD) | 0xE0U);
 3780              		.loc 1 1586 5 is_stmt 1 view .LVU1187
1586:Drivers/STM32F7xx_HAL_Driver/Src/stm32f7xx_ll_usb.c ****     USBx->HPTXFSIZ = (uint32_t)(((0x40U << 16)& USB_OTG_HPTXFSIZ_PTXFD) | 0xE0U);
 3781              		.loc 1 1586 30 is_stmt 0 view .LVU1188
 3782 00ce 03F5C003 		add	r3, r3, #6291456
 3783 00d2 A362     		str	r3, [r4, #40]
1587:Drivers/STM32F7xx_HAL_Driver/Src/stm32f7xx_ll_usb.c ****   }
 3784              		.loc 1 1587 5 is_stmt 1 view .LVU1189
1587:Drivers/STM32F7xx_HAL_Driver/Src/stm32f7xx_ll_usb.c ****   }
 3785              		.loc 1 1587 20 is_stmt 0 view .LVU1190
 3786 00d4 034B     		ldr	r3, .L246+8
 3787 00d6 C4F80031 		str	r3, [r4, #256]
 3788 00da E7E7     		b	.L239
 3789              	.L247:
 3790              		.align	2
 3791              	.L246:
 3792 00dc 0003E000 		.word	14680832
 3793 00e0 080020A3 		.word	-1558183928
 3794 00e4 E0004000 		.word	4194528
 3795              		.cfi_endproc
 3796              	.LFE175:
 3798              		.section	.text.USB_InitFSLSPClkSel,"ax",%progbits
 3799              		.align	1
 3800              		.global	USB_InitFSLSPClkSel
 3801              		.syntax unified
 3802              		.thumb
 3803              		.thumb_func
 3804              		.fpu fpv5-d16
 3806              	USB_InitFSLSPClkSel:
ARM GAS  /tmp/ccrvI8Gd.s 			page 114


 3807              	.LVL312:
 3808              	.LFB176:
1603:Drivers/STM32F7xx_HAL_Driver/Src/stm32f7xx_ll_usb.c **** 
1604:Drivers/STM32F7xx_HAL_Driver/Src/stm32f7xx_ll_usb.c **** /**
1605:Drivers/STM32F7xx_HAL_Driver/Src/stm32f7xx_ll_usb.c ****   * @brief  USB_InitFSLSPClkSel : Initializes the FSLSPClkSel field of the
1606:Drivers/STM32F7xx_HAL_Driver/Src/stm32f7xx_ll_usb.c ****   *         HCFG register on the PHY type and set the right frame interval
1607:Drivers/STM32F7xx_HAL_Driver/Src/stm32f7xx_ll_usb.c ****   * @param  USBx  Selected device
1608:Drivers/STM32F7xx_HAL_Driver/Src/stm32f7xx_ll_usb.c ****   * @param  freq  clock frequency
1609:Drivers/STM32F7xx_HAL_Driver/Src/stm32f7xx_ll_usb.c ****   *          This parameter can be one of these values:
1610:Drivers/STM32F7xx_HAL_Driver/Src/stm32f7xx_ll_usb.c ****   *           HCFG_48_MHZ : Full Speed 48 MHz Clock
1611:Drivers/STM32F7xx_HAL_Driver/Src/stm32f7xx_ll_usb.c ****   *           HCFG_6_MHZ : Low Speed 6 MHz Clock
1612:Drivers/STM32F7xx_HAL_Driver/Src/stm32f7xx_ll_usb.c ****   * @retval HAL status
1613:Drivers/STM32F7xx_HAL_Driver/Src/stm32f7xx_ll_usb.c ****   */
1614:Drivers/STM32F7xx_HAL_Driver/Src/stm32f7xx_ll_usb.c **** HAL_StatusTypeDef USB_InitFSLSPClkSel(USB_OTG_GlobalTypeDef *USBx, uint8_t freq)
1615:Drivers/STM32F7xx_HAL_Driver/Src/stm32f7xx_ll_usb.c **** {
 3809              		.loc 1 1615 1 is_stmt 1 view -0
 3810              		.cfi_startproc
 3811              		@ args = 0, pretend = 0, frame = 0
 3812              		@ frame_needed = 0, uses_anonymous_args = 0
 3813              		@ link register save eliminated.
 3814              		.loc 1 1615 1 is_stmt 0 view .LVU1192
 3815 0000 10B4     		push	{r4}
 3816              	.LCFI53:
 3817              		.cfi_def_cfa_offset 4
 3818              		.cfi_offset 4, -4
1616:Drivers/STM32F7xx_HAL_Driver/Src/stm32f7xx_ll_usb.c ****   uint32_t USBx_BASE = (uint32_t)USBx;
 3819              		.loc 1 1616 3 is_stmt 1 view .LVU1193
 3820              	.LVL313:
1617:Drivers/STM32F7xx_HAL_Driver/Src/stm32f7xx_ll_usb.c **** 
1618:Drivers/STM32F7xx_HAL_Driver/Src/stm32f7xx_ll_usb.c ****   USBx_HOST->HCFG &= ~(USB_OTG_HCFG_FSLSPCS);
 3821              		.loc 1 1618 3 view .LVU1194
 3822              		.loc 1 1618 19 is_stmt 0 view .LVU1195
 3823 0002 00F58064 		add	r4, r0, #1024
 3824 0006 D0F80034 		ldr	r3, [r0, #1024]
 3825 000a 23F00303 		bic	r3, r3, #3
 3826 000e C0F80034 		str	r3, [r0, #1024]
1619:Drivers/STM32F7xx_HAL_Driver/Src/stm32f7xx_ll_usb.c ****   USBx_HOST->HCFG |= (uint32_t)freq & USB_OTG_HCFG_FSLSPCS;
 3827              		.loc 1 1619 3 is_stmt 1 view .LVU1196
 3828              		.loc 1 1619 19 is_stmt 0 view .LVU1197
 3829 0012 D0F80034 		ldr	r3, [r0, #1024]
 3830              		.loc 1 1619 37 view .LVU1198
 3831 0016 01F00302 		and	r2, r1, #3
 3832              		.loc 1 1619 19 view .LVU1199
 3833 001a 1343     		orrs	r3, r3, r2
 3834 001c C0F80034 		str	r3, [r0, #1024]
1620:Drivers/STM32F7xx_HAL_Driver/Src/stm32f7xx_ll_usb.c **** 
1621:Drivers/STM32F7xx_HAL_Driver/Src/stm32f7xx_ll_usb.c ****   if (freq == HCFG_48_MHZ)
 3835              		.loc 1 1621 3 is_stmt 1 view .LVU1200
 3836              		.loc 1 1621 6 is_stmt 0 view .LVU1201
 3837 0020 0129     		cmp	r1, #1
 3838 0022 05D0     		beq	.L252
1622:Drivers/STM32F7xx_HAL_Driver/Src/stm32f7xx_ll_usb.c ****   {
1623:Drivers/STM32F7xx_HAL_Driver/Src/stm32f7xx_ll_usb.c ****     USBx_HOST->HFIR = 48000U;
1624:Drivers/STM32F7xx_HAL_Driver/Src/stm32f7xx_ll_usb.c ****   }
1625:Drivers/STM32F7xx_HAL_Driver/Src/stm32f7xx_ll_usb.c ****   else if (freq == HCFG_6_MHZ)
 3839              		.loc 1 1625 8 is_stmt 1 view .LVU1202
 3840              		.loc 1 1625 11 is_stmt 0 view .LVU1203
ARM GAS  /tmp/ccrvI8Gd.s 			page 115


 3841 0024 0229     		cmp	r1, #2
 3842 0026 07D0     		beq	.L253
 3843              	.L250:
1626:Drivers/STM32F7xx_HAL_Driver/Src/stm32f7xx_ll_usb.c ****   {
1627:Drivers/STM32F7xx_HAL_Driver/Src/stm32f7xx_ll_usb.c ****     USBx_HOST->HFIR = 6000U;
1628:Drivers/STM32F7xx_HAL_Driver/Src/stm32f7xx_ll_usb.c ****   }
1629:Drivers/STM32F7xx_HAL_Driver/Src/stm32f7xx_ll_usb.c ****   else
1630:Drivers/STM32F7xx_HAL_Driver/Src/stm32f7xx_ll_usb.c ****   {
1631:Drivers/STM32F7xx_HAL_Driver/Src/stm32f7xx_ll_usb.c ****     /* ... */
1632:Drivers/STM32F7xx_HAL_Driver/Src/stm32f7xx_ll_usb.c ****   }
 3844              		.loc 1 1632 3 is_stmt 1 view .LVU1204
1633:Drivers/STM32F7xx_HAL_Driver/Src/stm32f7xx_ll_usb.c **** 
1634:Drivers/STM32F7xx_HAL_Driver/Src/stm32f7xx_ll_usb.c ****   return HAL_OK;
 3845              		.loc 1 1634 3 view .LVU1205
1635:Drivers/STM32F7xx_HAL_Driver/Src/stm32f7xx_ll_usb.c **** }
 3846              		.loc 1 1635 1 is_stmt 0 view .LVU1206
 3847 0028 0020     		movs	r0, #0
 3848              	.LVL314:
 3849              		.loc 1 1635 1 view .LVU1207
 3850 002a 5DF8044B 		ldr	r4, [sp], #4
 3851              	.LCFI54:
 3852              		.cfi_remember_state
 3853              		.cfi_restore 4
 3854              		.cfi_def_cfa_offset 0
 3855              	.LVL315:
 3856              		.loc 1 1635 1 view .LVU1208
 3857 002e 7047     		bx	lr
 3858              	.LVL316:
 3859              	.L252:
 3860              	.LCFI55:
 3861              		.cfi_restore_state
1623:Drivers/STM32F7xx_HAL_Driver/Src/stm32f7xx_ll_usb.c ****   }
 3862              		.loc 1 1623 5 is_stmt 1 view .LVU1209
1623:Drivers/STM32F7xx_HAL_Driver/Src/stm32f7xx_ll_usb.c ****   }
 3863              		.loc 1 1623 21 is_stmt 0 view .LVU1210
 3864 0030 4BF68033 		movw	r3, #48000
 3865 0034 6360     		str	r3, [r4, #4]
 3866 0036 F7E7     		b	.L250
 3867              	.L253:
1627:Drivers/STM32F7xx_HAL_Driver/Src/stm32f7xx_ll_usb.c ****   }
 3868              		.loc 1 1627 5 is_stmt 1 view .LVU1211
1627:Drivers/STM32F7xx_HAL_Driver/Src/stm32f7xx_ll_usb.c ****   }
 3869              		.loc 1 1627 21 is_stmt 0 view .LVU1212
 3870 0038 41F27073 		movw	r3, #6000
 3871 003c 6360     		str	r3, [r4, #4]
 3872 003e F3E7     		b	.L250
 3873              		.cfi_endproc
 3874              	.LFE176:
 3876              		.section	.text.USB_ResetPort,"ax",%progbits
 3877              		.align	1
 3878              		.global	USB_ResetPort
 3879              		.syntax unified
 3880              		.thumb
 3881              		.thumb_func
 3882              		.fpu fpv5-d16
 3884              	USB_ResetPort:
 3885              	.LVL317:
ARM GAS  /tmp/ccrvI8Gd.s 			page 116


 3886              	.LFB177:
1636:Drivers/STM32F7xx_HAL_Driver/Src/stm32f7xx_ll_usb.c **** 
1637:Drivers/STM32F7xx_HAL_Driver/Src/stm32f7xx_ll_usb.c **** /**
1638:Drivers/STM32F7xx_HAL_Driver/Src/stm32f7xx_ll_usb.c ****   * @brief  USB_OTG_ResetPort : Reset Host Port
1639:Drivers/STM32F7xx_HAL_Driver/Src/stm32f7xx_ll_usb.c ****   * @param  USBx  Selected device
1640:Drivers/STM32F7xx_HAL_Driver/Src/stm32f7xx_ll_usb.c ****   * @retval HAL status
1641:Drivers/STM32F7xx_HAL_Driver/Src/stm32f7xx_ll_usb.c ****   * @note (1)The application must wait at least 10 ms
1642:Drivers/STM32F7xx_HAL_Driver/Src/stm32f7xx_ll_usb.c ****   *   before clearing the reset bit.
1643:Drivers/STM32F7xx_HAL_Driver/Src/stm32f7xx_ll_usb.c ****   */
1644:Drivers/STM32F7xx_HAL_Driver/Src/stm32f7xx_ll_usb.c **** HAL_StatusTypeDef USB_ResetPort(USB_OTG_GlobalTypeDef *USBx)
1645:Drivers/STM32F7xx_HAL_Driver/Src/stm32f7xx_ll_usb.c **** {
 3887              		.loc 1 1645 1 is_stmt 1 view -0
 3888              		.cfi_startproc
 3889              		@ args = 0, pretend = 0, frame = 8
 3890              		@ frame_needed = 0, uses_anonymous_args = 0
 3891              		.loc 1 1645 1 is_stmt 0 view .LVU1214
 3892 0000 30B5     		push	{r4, r5, lr}
 3893              	.LCFI56:
 3894              		.cfi_def_cfa_offset 12
 3895              		.cfi_offset 4, -12
 3896              		.cfi_offset 5, -8
 3897              		.cfi_offset 14, -4
 3898 0002 83B0     		sub	sp, sp, #12
 3899              	.LCFI57:
 3900              		.cfi_def_cfa_offset 24
 3901 0004 0446     		mov	r4, r0
1646:Drivers/STM32F7xx_HAL_Driver/Src/stm32f7xx_ll_usb.c ****   uint32_t USBx_BASE = (uint32_t)USBx;
 3902              		.loc 1 1646 3 is_stmt 1 view .LVU1215
 3903              	.LVL318:
1647:Drivers/STM32F7xx_HAL_Driver/Src/stm32f7xx_ll_usb.c **** 
1648:Drivers/STM32F7xx_HAL_Driver/Src/stm32f7xx_ll_usb.c ****   __IO uint32_t hprt0 = 0U;
 3904              		.loc 1 1648 3 view .LVU1216
 3905              		.loc 1 1648 17 is_stmt 0 view .LVU1217
 3906 0006 0025     		movs	r5, #0
 3907 0008 0195     		str	r5, [sp, #4]
1649:Drivers/STM32F7xx_HAL_Driver/Src/stm32f7xx_ll_usb.c **** 
1650:Drivers/STM32F7xx_HAL_Driver/Src/stm32f7xx_ll_usb.c ****   hprt0 = USBx_HPRT0;
 3908              		.loc 1 1650 3 is_stmt 1 view .LVU1218
 3909              		.loc 1 1650 11 is_stmt 0 view .LVU1219
 3910 000a D0F84034 		ldr	r3, [r0, #1088]
 3911              		.loc 1 1650 9 view .LVU1220
 3912 000e 0193     		str	r3, [sp, #4]
1651:Drivers/STM32F7xx_HAL_Driver/Src/stm32f7xx_ll_usb.c **** 
1652:Drivers/STM32F7xx_HAL_Driver/Src/stm32f7xx_ll_usb.c ****   hprt0 &= ~(USB_OTG_HPRT_PENA | USB_OTG_HPRT_PCDET |
 3913              		.loc 1 1652 3 is_stmt 1 view .LVU1221
 3914              		.loc 1 1652 9 is_stmt 0 view .LVU1222
 3915 0010 019B     		ldr	r3, [sp, #4]
 3916 0012 23F02E03 		bic	r3, r3, #46
 3917 0016 0193     		str	r3, [sp, #4]
1653:Drivers/STM32F7xx_HAL_Driver/Src/stm32f7xx_ll_usb.c ****              USB_OTG_HPRT_PENCHNG | USB_OTG_HPRT_POCCHNG);
1654:Drivers/STM32F7xx_HAL_Driver/Src/stm32f7xx_ll_usb.c **** 
1655:Drivers/STM32F7xx_HAL_Driver/Src/stm32f7xx_ll_usb.c ****   USBx_HPRT0 = (USB_OTG_HPRT_PRST | hprt0);
 3918              		.loc 1 1655 3 is_stmt 1 view .LVU1223
 3919              		.loc 1 1655 35 is_stmt 0 view .LVU1224
 3920 0018 019B     		ldr	r3, [sp, #4]
 3921 001a 43F48073 		orr	r3, r3, #256
 3922              		.loc 1 1655 14 view .LVU1225
ARM GAS  /tmp/ccrvI8Gd.s 			page 117


 3923 001e C0F84034 		str	r3, [r0, #1088]
1656:Drivers/STM32F7xx_HAL_Driver/Src/stm32f7xx_ll_usb.c ****   HAL_Delay(100U);                                 /* See Note #1 */
 3924              		.loc 1 1656 3 is_stmt 1 view .LVU1226
 3925 0022 6420     		movs	r0, #100
 3926              	.LVL319:
 3927              		.loc 1 1656 3 is_stmt 0 view .LVU1227
 3928 0024 FFF7FEFF 		bl	HAL_Delay
 3929              	.LVL320:
1657:Drivers/STM32F7xx_HAL_Driver/Src/stm32f7xx_ll_usb.c ****   USBx_HPRT0 = ((~USB_OTG_HPRT_PRST) & hprt0);
 3930              		.loc 1 1657 3 is_stmt 1 view .LVU1228
 3931              		.loc 1 1657 38 is_stmt 0 view .LVU1229
 3932 0028 019B     		ldr	r3, [sp, #4]
 3933 002a 23F48073 		bic	r3, r3, #256
 3934              		.loc 1 1657 14 view .LVU1230
 3935 002e C4F84034 		str	r3, [r4, #1088]
1658:Drivers/STM32F7xx_HAL_Driver/Src/stm32f7xx_ll_usb.c ****   HAL_Delay(10U);
 3936              		.loc 1 1658 3 is_stmt 1 view .LVU1231
 3937 0032 0A20     		movs	r0, #10
 3938 0034 FFF7FEFF 		bl	HAL_Delay
 3939              	.LVL321:
1659:Drivers/STM32F7xx_HAL_Driver/Src/stm32f7xx_ll_usb.c **** 
1660:Drivers/STM32F7xx_HAL_Driver/Src/stm32f7xx_ll_usb.c ****   return HAL_OK;
 3940              		.loc 1 1660 3 view .LVU1232
1661:Drivers/STM32F7xx_HAL_Driver/Src/stm32f7xx_ll_usb.c **** }
 3941              		.loc 1 1661 1 is_stmt 0 view .LVU1233
 3942 0038 2846     		mov	r0, r5
 3943 003a 03B0     		add	sp, sp, #12
 3944              	.LCFI58:
 3945              		.cfi_def_cfa_offset 12
 3946              		@ sp needed
 3947 003c 30BD     		pop	{r4, r5, pc}
 3948              		.loc 1 1661 1 view .LVU1234
 3949              		.cfi_endproc
 3950              	.LFE177:
 3952              		.section	.text.USB_DriveVbus,"ax",%progbits
 3953              		.align	1
 3954              		.global	USB_DriveVbus
 3955              		.syntax unified
 3956              		.thumb
 3957              		.thumb_func
 3958              		.fpu fpv5-d16
 3960              	USB_DriveVbus:
 3961              	.LVL322:
 3962              	.LFB178:
1662:Drivers/STM32F7xx_HAL_Driver/Src/stm32f7xx_ll_usb.c **** 
1663:Drivers/STM32F7xx_HAL_Driver/Src/stm32f7xx_ll_usb.c **** /**
1664:Drivers/STM32F7xx_HAL_Driver/Src/stm32f7xx_ll_usb.c ****   * @brief  USB_DriveVbus : activate or de-activate vbus
1665:Drivers/STM32F7xx_HAL_Driver/Src/stm32f7xx_ll_usb.c ****   * @param  state  VBUS state
1666:Drivers/STM32F7xx_HAL_Driver/Src/stm32f7xx_ll_usb.c ****   *          This parameter can be one of these values:
1667:Drivers/STM32F7xx_HAL_Driver/Src/stm32f7xx_ll_usb.c ****   *           0 : Deactivate VBUS
1668:Drivers/STM32F7xx_HAL_Driver/Src/stm32f7xx_ll_usb.c ****   *           1 : Activate VBUS
1669:Drivers/STM32F7xx_HAL_Driver/Src/stm32f7xx_ll_usb.c ****   * @retval HAL status
1670:Drivers/STM32F7xx_HAL_Driver/Src/stm32f7xx_ll_usb.c ****   */
1671:Drivers/STM32F7xx_HAL_Driver/Src/stm32f7xx_ll_usb.c **** HAL_StatusTypeDef USB_DriveVbus(USB_OTG_GlobalTypeDef *USBx, uint8_t state)
1672:Drivers/STM32F7xx_HAL_Driver/Src/stm32f7xx_ll_usb.c **** {
 3963              		.loc 1 1672 1 is_stmt 1 view -0
 3964              		.cfi_startproc
ARM GAS  /tmp/ccrvI8Gd.s 			page 118


 3965              		@ args = 0, pretend = 0, frame = 8
 3966              		@ frame_needed = 0, uses_anonymous_args = 0
 3967              		@ link register save eliminated.
 3968              		.loc 1 1672 1 is_stmt 0 view .LVU1236
 3969 0000 82B0     		sub	sp, sp, #8
 3970              	.LCFI59:
 3971              		.cfi_def_cfa_offset 8
1673:Drivers/STM32F7xx_HAL_Driver/Src/stm32f7xx_ll_usb.c ****   uint32_t USBx_BASE = (uint32_t)USBx;
 3972              		.loc 1 1673 3 is_stmt 1 view .LVU1237
 3973              	.LVL323:
1674:Drivers/STM32F7xx_HAL_Driver/Src/stm32f7xx_ll_usb.c ****   __IO uint32_t hprt0 = 0U;
 3974              		.loc 1 1674 3 view .LVU1238
 3975              		.loc 1 1674 17 is_stmt 0 view .LVU1239
 3976 0002 0023     		movs	r3, #0
 3977 0004 0193     		str	r3, [sp, #4]
1675:Drivers/STM32F7xx_HAL_Driver/Src/stm32f7xx_ll_usb.c **** 
1676:Drivers/STM32F7xx_HAL_Driver/Src/stm32f7xx_ll_usb.c ****   hprt0 = USBx_HPRT0;
 3978              		.loc 1 1676 3 is_stmt 1 view .LVU1240
 3979              		.loc 1 1676 11 is_stmt 0 view .LVU1241
 3980 0006 D0F84034 		ldr	r3, [r0, #1088]
 3981              		.loc 1 1676 9 view .LVU1242
 3982 000a 0193     		str	r3, [sp, #4]
1677:Drivers/STM32F7xx_HAL_Driver/Src/stm32f7xx_ll_usb.c **** 
1678:Drivers/STM32F7xx_HAL_Driver/Src/stm32f7xx_ll_usb.c ****   hprt0 &= ~(USB_OTG_HPRT_PENA | USB_OTG_HPRT_PCDET |
 3983              		.loc 1 1678 3 is_stmt 1 view .LVU1243
 3984              		.loc 1 1678 9 is_stmt 0 view .LVU1244
 3985 000c 019B     		ldr	r3, [sp, #4]
 3986 000e 23F02E03 		bic	r3, r3, #46
 3987 0012 0193     		str	r3, [sp, #4]
1679:Drivers/STM32F7xx_HAL_Driver/Src/stm32f7xx_ll_usb.c ****              USB_OTG_HPRT_PENCHNG | USB_OTG_HPRT_POCCHNG);
1680:Drivers/STM32F7xx_HAL_Driver/Src/stm32f7xx_ll_usb.c **** 
1681:Drivers/STM32F7xx_HAL_Driver/Src/stm32f7xx_ll_usb.c ****   if (((hprt0 & USB_OTG_HPRT_PPWR) == 0U) && (state == 1U))
 3988              		.loc 1 1681 3 is_stmt 1 view .LVU1245
 3989              		.loc 1 1681 15 is_stmt 0 view .LVU1246
 3990 0014 019B     		ldr	r3, [sp, #4]
 3991              		.loc 1 1681 6 view .LVU1247
 3992 0016 13F4805F 		tst	r3, #4096
 3993 001a 01D1     		bne	.L257
 3994              		.loc 1 1681 43 discriminator 1 view .LVU1248
 3995 001c 0129     		cmp	r1, #1
 3996 001e 0CD0     		beq	.L260
 3997              	.L257:
1682:Drivers/STM32F7xx_HAL_Driver/Src/stm32f7xx_ll_usb.c ****   {
1683:Drivers/STM32F7xx_HAL_Driver/Src/stm32f7xx_ll_usb.c ****     USBx_HPRT0 = (USB_OTG_HPRT_PPWR | hprt0);
1684:Drivers/STM32F7xx_HAL_Driver/Src/stm32f7xx_ll_usb.c ****   }
1685:Drivers/STM32F7xx_HAL_Driver/Src/stm32f7xx_ll_usb.c ****   if (((hprt0 & USB_OTG_HPRT_PPWR) == USB_OTG_HPRT_PPWR) && (state == 0U))
 3998              		.loc 1 1685 3 is_stmt 1 view .LVU1249
 3999              		.loc 1 1685 15 is_stmt 0 view .LVU1250
 4000 0020 019B     		ldr	r3, [sp, #4]
 4001              		.loc 1 1685 6 view .LVU1251
 4002 0022 13F4805F 		tst	r3, #4096
 4003 0026 05D0     		beq	.L258
 4004              		.loc 1 1685 58 discriminator 1 view .LVU1252
 4005 0028 21B9     		cbnz	r1, .L258
1686:Drivers/STM32F7xx_HAL_Driver/Src/stm32f7xx_ll_usb.c ****   {
1687:Drivers/STM32F7xx_HAL_Driver/Src/stm32f7xx_ll_usb.c ****     USBx_HPRT0 = ((~USB_OTG_HPRT_PPWR) & hprt0);
 4006              		.loc 1 1687 5 is_stmt 1 view .LVU1253
ARM GAS  /tmp/ccrvI8Gd.s 			page 119


 4007              		.loc 1 1687 40 is_stmt 0 view .LVU1254
 4008 002a 019B     		ldr	r3, [sp, #4]
 4009 002c 23F48053 		bic	r3, r3, #4096
 4010              		.loc 1 1687 16 view .LVU1255
 4011 0030 C0F84034 		str	r3, [r0, #1088]
 4012              	.L258:
1688:Drivers/STM32F7xx_HAL_Driver/Src/stm32f7xx_ll_usb.c ****   }
1689:Drivers/STM32F7xx_HAL_Driver/Src/stm32f7xx_ll_usb.c ****   return HAL_OK;
 4013              		.loc 1 1689 3 is_stmt 1 view .LVU1256
1690:Drivers/STM32F7xx_HAL_Driver/Src/stm32f7xx_ll_usb.c **** }
 4014              		.loc 1 1690 1 is_stmt 0 view .LVU1257
 4015 0034 0020     		movs	r0, #0
 4016              	.LVL324:
 4017              		.loc 1 1690 1 view .LVU1258
 4018 0036 02B0     		add	sp, sp, #8
 4019              	.LCFI60:
 4020              		.cfi_remember_state
 4021              		.cfi_def_cfa_offset 0
 4022              		@ sp needed
 4023 0038 7047     		bx	lr
 4024              	.LVL325:
 4025              	.L260:
 4026              	.LCFI61:
 4027              		.cfi_restore_state
1683:Drivers/STM32F7xx_HAL_Driver/Src/stm32f7xx_ll_usb.c ****   }
 4028              		.loc 1 1683 5 is_stmt 1 view .LVU1259
1683:Drivers/STM32F7xx_HAL_Driver/Src/stm32f7xx_ll_usb.c ****   }
 4029              		.loc 1 1683 37 is_stmt 0 view .LVU1260
 4030 003a 019B     		ldr	r3, [sp, #4]
 4031 003c 43F48053 		orr	r3, r3, #4096
1683:Drivers/STM32F7xx_HAL_Driver/Src/stm32f7xx_ll_usb.c ****   }
 4032              		.loc 1 1683 16 view .LVU1261
 4033 0040 C0F84034 		str	r3, [r0, #1088]
 4034 0044 ECE7     		b	.L257
 4035              		.cfi_endproc
 4036              	.LFE178:
 4038              		.section	.text.USB_GetHostSpeed,"ax",%progbits
 4039              		.align	1
 4040              		.global	USB_GetHostSpeed
 4041              		.syntax unified
 4042              		.thumb
 4043              		.thumb_func
 4044              		.fpu fpv5-d16
 4046              	USB_GetHostSpeed:
 4047              	.LVL326:
 4048              	.LFB179:
1691:Drivers/STM32F7xx_HAL_Driver/Src/stm32f7xx_ll_usb.c **** 
1692:Drivers/STM32F7xx_HAL_Driver/Src/stm32f7xx_ll_usb.c **** /**
1693:Drivers/STM32F7xx_HAL_Driver/Src/stm32f7xx_ll_usb.c ****   * @brief  Return Host Core speed
1694:Drivers/STM32F7xx_HAL_Driver/Src/stm32f7xx_ll_usb.c ****   * @param  USBx  Selected device
1695:Drivers/STM32F7xx_HAL_Driver/Src/stm32f7xx_ll_usb.c ****   * @retval speed : Host speed
1696:Drivers/STM32F7xx_HAL_Driver/Src/stm32f7xx_ll_usb.c ****   *          This parameter can be one of these values:
1697:Drivers/STM32F7xx_HAL_Driver/Src/stm32f7xx_ll_usb.c ****   *            @arg HCD_SPEED_HIGH: High speed mode
1698:Drivers/STM32F7xx_HAL_Driver/Src/stm32f7xx_ll_usb.c ****   *            @arg HCD_SPEED_FULL: Full speed mode
1699:Drivers/STM32F7xx_HAL_Driver/Src/stm32f7xx_ll_usb.c ****   *            @arg HCD_SPEED_LOW: Low speed mode
1700:Drivers/STM32F7xx_HAL_Driver/Src/stm32f7xx_ll_usb.c ****   */
1701:Drivers/STM32F7xx_HAL_Driver/Src/stm32f7xx_ll_usb.c **** uint32_t USB_GetHostSpeed(USB_OTG_GlobalTypeDef *USBx)
ARM GAS  /tmp/ccrvI8Gd.s 			page 120


1702:Drivers/STM32F7xx_HAL_Driver/Src/stm32f7xx_ll_usb.c **** {
 4049              		.loc 1 1702 1 is_stmt 1 view -0
 4050              		.cfi_startproc
 4051              		@ args = 0, pretend = 0, frame = 8
 4052              		@ frame_needed = 0, uses_anonymous_args = 0
 4053              		@ link register save eliminated.
 4054              		.loc 1 1702 1 is_stmt 0 view .LVU1263
 4055 0000 82B0     		sub	sp, sp, #8
 4056              	.LCFI62:
 4057              		.cfi_def_cfa_offset 8
1703:Drivers/STM32F7xx_HAL_Driver/Src/stm32f7xx_ll_usb.c ****   uint32_t USBx_BASE = (uint32_t)USBx;
 4058              		.loc 1 1703 3 is_stmt 1 view .LVU1264
 4059              	.LVL327:
1704:Drivers/STM32F7xx_HAL_Driver/Src/stm32f7xx_ll_usb.c ****   __IO uint32_t hprt0 = 0U;
 4060              		.loc 1 1704 3 view .LVU1265
 4061              		.loc 1 1704 17 is_stmt 0 view .LVU1266
 4062 0002 0023     		movs	r3, #0
 4063 0004 0193     		str	r3, [sp, #4]
1705:Drivers/STM32F7xx_HAL_Driver/Src/stm32f7xx_ll_usb.c **** 
1706:Drivers/STM32F7xx_HAL_Driver/Src/stm32f7xx_ll_usb.c ****   hprt0 = USBx_HPRT0;
 4064              		.loc 1 1706 3 is_stmt 1 view .LVU1267
 4065              		.loc 1 1706 11 is_stmt 0 view .LVU1268
 4066 0006 D0F84034 		ldr	r3, [r0, #1088]
 4067              		.loc 1 1706 9 view .LVU1269
 4068 000a 0193     		str	r3, [sp, #4]
1707:Drivers/STM32F7xx_HAL_Driver/Src/stm32f7xx_ll_usb.c ****   return ((hprt0 & USB_OTG_HPRT_PSPD) >> 17);
 4069              		.loc 1 1707 3 is_stmt 1 view .LVU1270
 4070              		.loc 1 1707 39 is_stmt 0 view .LVU1271
 4071 000c 0198     		ldr	r0, [sp, #4]
 4072              	.LVL328:
1708:Drivers/STM32F7xx_HAL_Driver/Src/stm32f7xx_ll_usb.c **** }
 4073              		.loc 1 1708 1 view .LVU1272
 4074 000e C0F34140 		ubfx	r0, r0, #17, #2
 4075 0012 02B0     		add	sp, sp, #8
 4076              	.LCFI63:
 4077              		.cfi_def_cfa_offset 0
 4078              		@ sp needed
 4079 0014 7047     		bx	lr
 4080              		.cfi_endproc
 4081              	.LFE179:
 4083              		.section	.text.USB_GetCurrentFrame,"ax",%progbits
 4084              		.align	1
 4085              		.global	USB_GetCurrentFrame
 4086              		.syntax unified
 4087              		.thumb
 4088              		.thumb_func
 4089              		.fpu fpv5-d16
 4091              	USB_GetCurrentFrame:
 4092              	.LVL329:
 4093              	.LFB180:
1709:Drivers/STM32F7xx_HAL_Driver/Src/stm32f7xx_ll_usb.c **** 
1710:Drivers/STM32F7xx_HAL_Driver/Src/stm32f7xx_ll_usb.c **** /**
1711:Drivers/STM32F7xx_HAL_Driver/Src/stm32f7xx_ll_usb.c ****   * @brief  Return Host Current Frame number
1712:Drivers/STM32F7xx_HAL_Driver/Src/stm32f7xx_ll_usb.c ****   * @param  USBx  Selected device
1713:Drivers/STM32F7xx_HAL_Driver/Src/stm32f7xx_ll_usb.c ****   * @retval current frame number
1714:Drivers/STM32F7xx_HAL_Driver/Src/stm32f7xx_ll_usb.c ****   */
1715:Drivers/STM32F7xx_HAL_Driver/Src/stm32f7xx_ll_usb.c **** uint32_t USB_GetCurrentFrame(USB_OTG_GlobalTypeDef *USBx)
ARM GAS  /tmp/ccrvI8Gd.s 			page 121


1716:Drivers/STM32F7xx_HAL_Driver/Src/stm32f7xx_ll_usb.c **** {
 4094              		.loc 1 1716 1 is_stmt 1 view -0
 4095              		.cfi_startproc
 4096              		@ args = 0, pretend = 0, frame = 0
 4097              		@ frame_needed = 0, uses_anonymous_args = 0
 4098              		@ link register save eliminated.
1717:Drivers/STM32F7xx_HAL_Driver/Src/stm32f7xx_ll_usb.c ****   uint32_t USBx_BASE = (uint32_t)USBx;
 4099              		.loc 1 1717 3 view .LVU1274
1718:Drivers/STM32F7xx_HAL_Driver/Src/stm32f7xx_ll_usb.c **** 
1719:Drivers/STM32F7xx_HAL_Driver/Src/stm32f7xx_ll_usb.c ****   return (USBx_HOST->HFNUM & USB_OTG_HFNUM_FRNUM);
 4100              		.loc 1 1719 3 view .LVU1275
 4101              		.loc 1 1719 11 is_stmt 0 view .LVU1276
 4102 0000 00F58060 		add	r0, r0, #1024
 4103              	.LVL330:
 4104              		.loc 1 1719 20 view .LVU1277
 4105 0004 8068     		ldr	r0, [r0, #8]
 4106              	.LVL331:
1720:Drivers/STM32F7xx_HAL_Driver/Src/stm32f7xx_ll_usb.c **** }
 4107              		.loc 1 1720 1 view .LVU1278
 4108 0006 80B2     		uxth	r0, r0
 4109 0008 7047     		bx	lr
 4110              		.cfi_endproc
 4111              	.LFE180:
 4113              		.section	.text.USB_HC_Init,"ax",%progbits
 4114              		.align	1
 4115              		.global	USB_HC_Init
 4116              		.syntax unified
 4117              		.thumb
 4118              		.thumb_func
 4119              		.fpu fpv5-d16
 4121              	USB_HC_Init:
 4122              	.LVL332:
 4123              	.LFB181:
1721:Drivers/STM32F7xx_HAL_Driver/Src/stm32f7xx_ll_usb.c **** 
1722:Drivers/STM32F7xx_HAL_Driver/Src/stm32f7xx_ll_usb.c **** /**
1723:Drivers/STM32F7xx_HAL_Driver/Src/stm32f7xx_ll_usb.c ****   * @brief  Initialize a host channel
1724:Drivers/STM32F7xx_HAL_Driver/Src/stm32f7xx_ll_usb.c ****   * @param  USBx  Selected device
1725:Drivers/STM32F7xx_HAL_Driver/Src/stm32f7xx_ll_usb.c ****   * @param  ch_num  Channel number
1726:Drivers/STM32F7xx_HAL_Driver/Src/stm32f7xx_ll_usb.c ****   *         This parameter can be a value from 1 to 15
1727:Drivers/STM32F7xx_HAL_Driver/Src/stm32f7xx_ll_usb.c ****   * @param  epnum  Endpoint number
1728:Drivers/STM32F7xx_HAL_Driver/Src/stm32f7xx_ll_usb.c ****   *          This parameter can be a value from 1 to 15
1729:Drivers/STM32F7xx_HAL_Driver/Src/stm32f7xx_ll_usb.c ****   * @param  dev_address  Current device address
1730:Drivers/STM32F7xx_HAL_Driver/Src/stm32f7xx_ll_usb.c ****   *          This parameter can be a value from 0 to 255
1731:Drivers/STM32F7xx_HAL_Driver/Src/stm32f7xx_ll_usb.c ****   * @param  speed  Current device speed
1732:Drivers/STM32F7xx_HAL_Driver/Src/stm32f7xx_ll_usb.c ****   *          This parameter can be one of these values:
1733:Drivers/STM32F7xx_HAL_Driver/Src/stm32f7xx_ll_usb.c ****   *            @arg USB_OTG_SPEED_HIGH: High speed mode
1734:Drivers/STM32F7xx_HAL_Driver/Src/stm32f7xx_ll_usb.c ****   *            @arg USB_OTG_SPEED_FULL: Full speed mode
1735:Drivers/STM32F7xx_HAL_Driver/Src/stm32f7xx_ll_usb.c ****   *            @arg USB_OTG_SPEED_LOW: Low speed mode
1736:Drivers/STM32F7xx_HAL_Driver/Src/stm32f7xx_ll_usb.c ****   * @param  ep_type  Endpoint Type
1737:Drivers/STM32F7xx_HAL_Driver/Src/stm32f7xx_ll_usb.c ****   *          This parameter can be one of these values:
1738:Drivers/STM32F7xx_HAL_Driver/Src/stm32f7xx_ll_usb.c ****   *            @arg EP_TYPE_CTRL: Control type
1739:Drivers/STM32F7xx_HAL_Driver/Src/stm32f7xx_ll_usb.c ****   *            @arg EP_TYPE_ISOC: Isochronous type
1740:Drivers/STM32F7xx_HAL_Driver/Src/stm32f7xx_ll_usb.c ****   *            @arg EP_TYPE_BULK: Bulk type
1741:Drivers/STM32F7xx_HAL_Driver/Src/stm32f7xx_ll_usb.c ****   *            @arg EP_TYPE_INTR: Interrupt type
1742:Drivers/STM32F7xx_HAL_Driver/Src/stm32f7xx_ll_usb.c ****   * @param  mps  Max Packet Size
1743:Drivers/STM32F7xx_HAL_Driver/Src/stm32f7xx_ll_usb.c ****   *          This parameter can be a value from 0 to 32K
1744:Drivers/STM32F7xx_HAL_Driver/Src/stm32f7xx_ll_usb.c ****   * @retval HAL state
ARM GAS  /tmp/ccrvI8Gd.s 			page 122


1745:Drivers/STM32F7xx_HAL_Driver/Src/stm32f7xx_ll_usb.c ****   */
1746:Drivers/STM32F7xx_HAL_Driver/Src/stm32f7xx_ll_usb.c **** HAL_StatusTypeDef USB_HC_Init(USB_OTG_GlobalTypeDef *USBx, uint8_t ch_num,
1747:Drivers/STM32F7xx_HAL_Driver/Src/stm32f7xx_ll_usb.c ****                               uint8_t epnum, uint8_t dev_address, uint8_t speed,
1748:Drivers/STM32F7xx_HAL_Driver/Src/stm32f7xx_ll_usb.c ****                               uint8_t ep_type, uint16_t mps)
1749:Drivers/STM32F7xx_HAL_Driver/Src/stm32f7xx_ll_usb.c **** {
 4124              		.loc 1 1749 1 is_stmt 1 view -0
 4125              		.cfi_startproc
 4126              		@ args = 12, pretend = 0, frame = 0
 4127              		@ frame_needed = 0, uses_anonymous_args = 0
 4128              		.loc 1 1749 1 is_stmt 0 view .LVU1280
 4129 0000 2DE9F843 		push	{r3, r4, r5, r6, r7, r8, r9, lr}
 4130              	.LCFI64:
 4131              		.cfi_def_cfa_offset 32
 4132              		.cfi_offset 3, -32
 4133              		.cfi_offset 4, -28
 4134              		.cfi_offset 5, -24
 4135              		.cfi_offset 6, -20
 4136              		.cfi_offset 7, -16
 4137              		.cfi_offset 8, -12
 4138              		.cfi_offset 9, -8
 4139              		.cfi_offset 14, -4
 4140 0004 9146     		mov	r9, r2
 4141 0006 1C46     		mov	r4, r3
 4142 0008 9DF82450 		ldrb	r5, [sp, #36]	@ zero_extendqisi2
1750:Drivers/STM32F7xx_HAL_Driver/Src/stm32f7xx_ll_usb.c ****   HAL_StatusTypeDef ret = HAL_OK;
 4143              		.loc 1 1750 3 is_stmt 1 view .LVU1281
 4144              	.LVL333:
1751:Drivers/STM32F7xx_HAL_Driver/Src/stm32f7xx_ll_usb.c ****   uint32_t USBx_BASE = (uint32_t)USBx;
 4145              		.loc 1 1751 3 view .LVU1282
1752:Drivers/STM32F7xx_HAL_Driver/Src/stm32f7xx_ll_usb.c ****   uint32_t HCcharEpDir;
 4146              		.loc 1 1752 3 view .LVU1283
1753:Drivers/STM32F7xx_HAL_Driver/Src/stm32f7xx_ll_usb.c ****   uint32_t HCcharLowSpeed;
 4147              		.loc 1 1753 3 view .LVU1284
1754:Drivers/STM32F7xx_HAL_Driver/Src/stm32f7xx_ll_usb.c ****   uint32_t HostCoreSpeed;
 4148              		.loc 1 1754 3 view .LVU1285
1755:Drivers/STM32F7xx_HAL_Driver/Src/stm32f7xx_ll_usb.c **** 
1756:Drivers/STM32F7xx_HAL_Driver/Src/stm32f7xx_ll_usb.c ****   /* Clear old interrupt conditions for this host channel. */
1757:Drivers/STM32F7xx_HAL_Driver/Src/stm32f7xx_ll_usb.c ****   USBx_HC((uint32_t)ch_num)->HCINT = 0xFFFFFFFFU;
 4149              		.loc 1 1757 3 view .LVU1286
 4150 000c 00EB4116 		add	r6, r0, r1, lsl #5
 4151 0010 06F5A063 		add	r3, r6, #1280
 4152              	.LVL334:
 4153              		.loc 1 1757 36 is_stmt 0 view .LVU1287
 4154 0014 4FF0FF32 		mov	r2, #-1
 4155              	.LVL335:
 4156              		.loc 1 1757 36 view .LVU1288
 4157 0018 9A60     		str	r2, [r3, #8]
1758:Drivers/STM32F7xx_HAL_Driver/Src/stm32f7xx_ll_usb.c **** 
1759:Drivers/STM32F7xx_HAL_Driver/Src/stm32f7xx_ll_usb.c ****   /* Enable channel interrupts required for this transfer. */
1760:Drivers/STM32F7xx_HAL_Driver/Src/stm32f7xx_ll_usb.c ****   switch (ep_type)
 4158              		.loc 1 1760 3 is_stmt 1 view .LVU1289
 4159 001a 032D     		cmp	r5, #3
 4160 001c 75D8     		bhi	.L274
 4161 001e DFE805F0 		tbb	[pc, r5]
 4162              	.L267:
 4163 0022 02       		.byte	(.L268-.L267)/2
 4164 0023 66       		.byte	(.L269-.L267)/2
ARM GAS  /tmp/ccrvI8Gd.s 			page 123


 4165 0024 02       		.byte	(.L268-.L267)/2
 4166 0025 18       		.byte	(.L266-.L267)/2
 4167              		.p2align 1
 4168              	.L268:
1761:Drivers/STM32F7xx_HAL_Driver/Src/stm32f7xx_ll_usb.c ****   {
1762:Drivers/STM32F7xx_HAL_Driver/Src/stm32f7xx_ll_usb.c ****     case EP_TYPE_CTRL:
1763:Drivers/STM32F7xx_HAL_Driver/Src/stm32f7xx_ll_usb.c ****     case EP_TYPE_BULK:
1764:Drivers/STM32F7xx_HAL_Driver/Src/stm32f7xx_ll_usb.c ****       USBx_HC((uint32_t)ch_num)->HCINTMSK = USB_OTG_HCINTMSK_XFRCM  |
 4169              		.loc 1 1764 7 view .LVU1290
 4170              		.loc 1 1764 43 is_stmt 0 view .LVU1291
 4171 0026 40F29D42 		movw	r2, #1181
 4172 002a DA60     		str	r2, [r3, #12]
1765:Drivers/STM32F7xx_HAL_Driver/Src/stm32f7xx_ll_usb.c ****                                             USB_OTG_HCINTMSK_STALLM |
1766:Drivers/STM32F7xx_HAL_Driver/Src/stm32f7xx_ll_usb.c ****                                             USB_OTG_HCINTMSK_TXERRM |
1767:Drivers/STM32F7xx_HAL_Driver/Src/stm32f7xx_ll_usb.c ****                                             USB_OTG_HCINTMSK_DTERRM |
1768:Drivers/STM32F7xx_HAL_Driver/Src/stm32f7xx_ll_usb.c ****                                             USB_OTG_HCINTMSK_AHBERR |
1769:Drivers/STM32F7xx_HAL_Driver/Src/stm32f7xx_ll_usb.c ****                                             USB_OTG_HCINTMSK_NAKM;
1770:Drivers/STM32F7xx_HAL_Driver/Src/stm32f7xx_ll_usb.c **** 
1771:Drivers/STM32F7xx_HAL_Driver/Src/stm32f7xx_ll_usb.c ****       if ((epnum & 0x80U) == 0x80U)
 4173              		.loc 1 1771 7 is_stmt 1 view .LVU1292
 4174              		.loc 1 1771 10 is_stmt 0 view .LVU1293
 4175 002c 19F0800F 		tst	r9, #128
 4176 0030 09D1     		bne	.L281
1772:Drivers/STM32F7xx_HAL_Driver/Src/stm32f7xx_ll_usb.c ****       {
1773:Drivers/STM32F7xx_HAL_Driver/Src/stm32f7xx_ll_usb.c ****         USBx_HC((uint32_t)ch_num)->HCINTMSK |= USB_OTG_HCINTMSK_BBERRM;
1774:Drivers/STM32F7xx_HAL_Driver/Src/stm32f7xx_ll_usb.c ****       }
1775:Drivers/STM32F7xx_HAL_Driver/Src/stm32f7xx_ll_usb.c ****       else
1776:Drivers/STM32F7xx_HAL_Driver/Src/stm32f7xx_ll_usb.c ****       {
1777:Drivers/STM32F7xx_HAL_Driver/Src/stm32f7xx_ll_usb.c ****         if ((USBx->CID & (0x1U << 8)) != 0U)
 4177              		.loc 1 1777 9 is_stmt 1 view .LVU1294
 4178              		.loc 1 1777 18 is_stmt 0 view .LVU1295
 4179 0032 C26B     		ldr	r2, [r0, #60]
 4180              		.loc 1 1777 12 view .LVU1296
 4181 0034 12F4807F 		tst	r2, #256
 4182 0038 69D0     		beq	.L275
1778:Drivers/STM32F7xx_HAL_Driver/Src/stm32f7xx_ll_usb.c ****         {
1779:Drivers/STM32F7xx_HAL_Driver/Src/stm32f7xx_ll_usb.c ****           USBx_HC((uint32_t)ch_num)->HCINTMSK |= USB_OTG_HCINTMSK_NYET |
 4183              		.loc 1 1779 11 is_stmt 1 view .LVU1297
 4184              		.loc 1 1779 47 is_stmt 0 view .LVU1298
 4185 003a DA68     		ldr	r2, [r3, #12]
 4186 003c 42F06002 		orr	r2, r2, #96
 4187 0040 DA60     		str	r2, [r3, #12]
1750:Drivers/STM32F7xx_HAL_Driver/Src/stm32f7xx_ll_usb.c ****   uint32_t USBx_BASE = (uint32_t)USBx;
 4188              		.loc 1 1750 21 view .LVU1299
 4189 0042 0027     		movs	r7, #0
 4190 0044 0CE0     		b	.L265
 4191              	.L281:
1773:Drivers/STM32F7xx_HAL_Driver/Src/stm32f7xx_ll_usb.c ****       }
 4192              		.loc 1 1773 9 is_stmt 1 view .LVU1300
1773:Drivers/STM32F7xx_HAL_Driver/Src/stm32f7xx_ll_usb.c ****       }
 4193              		.loc 1 1773 45 is_stmt 0 view .LVU1301
 4194 0046 DA68     		ldr	r2, [r3, #12]
 4195 0048 42F48072 		orr	r2, r2, #256
 4196 004c DA60     		str	r2, [r3, #12]
1750:Drivers/STM32F7xx_HAL_Driver/Src/stm32f7xx_ll_usb.c ****   uint32_t USBx_BASE = (uint32_t)USBx;
 4197              		.loc 1 1750 21 view .LVU1302
 4198 004e 0027     		movs	r7, #0
ARM GAS  /tmp/ccrvI8Gd.s 			page 124


 4199 0050 06E0     		b	.L265
 4200              	.L266:
1780:Drivers/STM32F7xx_HAL_Driver/Src/stm32f7xx_ll_usb.c ****                                                  USB_OTG_HCINTMSK_ACKM;
1781:Drivers/STM32F7xx_HAL_Driver/Src/stm32f7xx_ll_usb.c ****         }
1782:Drivers/STM32F7xx_HAL_Driver/Src/stm32f7xx_ll_usb.c ****       }
1783:Drivers/STM32F7xx_HAL_Driver/Src/stm32f7xx_ll_usb.c ****       break;
1784:Drivers/STM32F7xx_HAL_Driver/Src/stm32f7xx_ll_usb.c **** 
1785:Drivers/STM32F7xx_HAL_Driver/Src/stm32f7xx_ll_usb.c ****     case EP_TYPE_INTR:
1786:Drivers/STM32F7xx_HAL_Driver/Src/stm32f7xx_ll_usb.c ****       USBx_HC((uint32_t)ch_num)->HCINTMSK = USB_OTG_HCINTMSK_XFRCM  |
 4201              		.loc 1 1786 7 is_stmt 1 view .LVU1303
 4202              		.loc 1 1786 43 is_stmt 0 view .LVU1304
 4203 0052 40F29D62 		movw	r2, #1693
 4204 0056 DA60     		str	r2, [r3, #12]
1787:Drivers/STM32F7xx_HAL_Driver/Src/stm32f7xx_ll_usb.c ****                                             USB_OTG_HCINTMSK_STALLM |
1788:Drivers/STM32F7xx_HAL_Driver/Src/stm32f7xx_ll_usb.c ****                                             USB_OTG_HCINTMSK_TXERRM |
1789:Drivers/STM32F7xx_HAL_Driver/Src/stm32f7xx_ll_usb.c ****                                             USB_OTG_HCINTMSK_DTERRM |
1790:Drivers/STM32F7xx_HAL_Driver/Src/stm32f7xx_ll_usb.c ****                                             USB_OTG_HCINTMSK_NAKM   |
1791:Drivers/STM32F7xx_HAL_Driver/Src/stm32f7xx_ll_usb.c ****                                             USB_OTG_HCINTMSK_AHBERR |
1792:Drivers/STM32F7xx_HAL_Driver/Src/stm32f7xx_ll_usb.c ****                                             USB_OTG_HCINTMSK_FRMORM;
1793:Drivers/STM32F7xx_HAL_Driver/Src/stm32f7xx_ll_usb.c **** 
1794:Drivers/STM32F7xx_HAL_Driver/Src/stm32f7xx_ll_usb.c ****       if ((epnum & 0x80U) == 0x80U)
 4205              		.loc 1 1794 7 is_stmt 1 view .LVU1305
 4206              		.loc 1 1794 10 is_stmt 0 view .LVU1306
 4207 0058 19F0800F 		tst	r9, #128
 4208 005c 41D1     		bne	.L282
1750:Drivers/STM32F7xx_HAL_Driver/Src/stm32f7xx_ll_usb.c ****   uint32_t USBx_BASE = (uint32_t)USBx;
 4209              		.loc 1 1750 21 view .LVU1307
 4210 005e 0027     		movs	r7, #0
 4211              	.L265:
 4212              	.LVL336:
1795:Drivers/STM32F7xx_HAL_Driver/Src/stm32f7xx_ll_usb.c ****       {
1796:Drivers/STM32F7xx_HAL_Driver/Src/stm32f7xx_ll_usb.c ****         USBx_HC((uint32_t)ch_num)->HCINTMSK |= USB_OTG_HCINTMSK_BBERRM;
1797:Drivers/STM32F7xx_HAL_Driver/Src/stm32f7xx_ll_usb.c ****       }
1798:Drivers/STM32F7xx_HAL_Driver/Src/stm32f7xx_ll_usb.c **** 
1799:Drivers/STM32F7xx_HAL_Driver/Src/stm32f7xx_ll_usb.c ****       break;
1800:Drivers/STM32F7xx_HAL_Driver/Src/stm32f7xx_ll_usb.c **** 
1801:Drivers/STM32F7xx_HAL_Driver/Src/stm32f7xx_ll_usb.c ****     case EP_TYPE_ISOC:
1802:Drivers/STM32F7xx_HAL_Driver/Src/stm32f7xx_ll_usb.c ****       USBx_HC((uint32_t)ch_num)->HCINTMSK = USB_OTG_HCINTMSK_XFRCM  |
1803:Drivers/STM32F7xx_HAL_Driver/Src/stm32f7xx_ll_usb.c ****                                             USB_OTG_HCINTMSK_ACKM   |
1804:Drivers/STM32F7xx_HAL_Driver/Src/stm32f7xx_ll_usb.c ****                                             USB_OTG_HCINTMSK_AHBERR |
1805:Drivers/STM32F7xx_HAL_Driver/Src/stm32f7xx_ll_usb.c ****                                             USB_OTG_HCINTMSK_FRMORM;
1806:Drivers/STM32F7xx_HAL_Driver/Src/stm32f7xx_ll_usb.c **** 
1807:Drivers/STM32F7xx_HAL_Driver/Src/stm32f7xx_ll_usb.c ****       if ((epnum & 0x80U) == 0x80U)
1808:Drivers/STM32F7xx_HAL_Driver/Src/stm32f7xx_ll_usb.c ****       {
1809:Drivers/STM32F7xx_HAL_Driver/Src/stm32f7xx_ll_usb.c ****         USBx_HC((uint32_t)ch_num)->HCINTMSK |= (USB_OTG_HCINTMSK_TXERRM | USB_OTG_HCINTMSK_BBERRM);
1810:Drivers/STM32F7xx_HAL_Driver/Src/stm32f7xx_ll_usb.c ****       }
1811:Drivers/STM32F7xx_HAL_Driver/Src/stm32f7xx_ll_usb.c ****       break;
1812:Drivers/STM32F7xx_HAL_Driver/Src/stm32f7xx_ll_usb.c **** 
1813:Drivers/STM32F7xx_HAL_Driver/Src/stm32f7xx_ll_usb.c ****     default:
1814:Drivers/STM32F7xx_HAL_Driver/Src/stm32f7xx_ll_usb.c ****       ret = HAL_ERROR;
1815:Drivers/STM32F7xx_HAL_Driver/Src/stm32f7xx_ll_usb.c ****       break;
1816:Drivers/STM32F7xx_HAL_Driver/Src/stm32f7xx_ll_usb.c ****   }
1817:Drivers/STM32F7xx_HAL_Driver/Src/stm32f7xx_ll_usb.c **** 
1818:Drivers/STM32F7xx_HAL_Driver/Src/stm32f7xx_ll_usb.c ****   /* Enable host channel Halt interrupt */
1819:Drivers/STM32F7xx_HAL_Driver/Src/stm32f7xx_ll_usb.c ****   USBx_HC((uint32_t)ch_num)->HCINTMSK |= USB_OTG_HCINTMSK_CHHM;
 4213              		.loc 1 1819 3 is_stmt 1 view .LVU1308
 4214              		.loc 1 1819 39 is_stmt 0 view .LVU1309
ARM GAS  /tmp/ccrvI8Gd.s 			page 125


 4215 0060 DA68     		ldr	r2, [r3, #12]
 4216 0062 42F00202 		orr	r2, r2, #2
 4217 0066 DA60     		str	r2, [r3, #12]
1820:Drivers/STM32F7xx_HAL_Driver/Src/stm32f7xx_ll_usb.c **** 
1821:Drivers/STM32F7xx_HAL_Driver/Src/stm32f7xx_ll_usb.c ****   /* Enable the top level host channel interrupt. */
1822:Drivers/STM32F7xx_HAL_Driver/Src/stm32f7xx_ll_usb.c ****   USBx_HOST->HAINTMSK |= 1UL << (ch_num & 0xFU);
 4218              		.loc 1 1822 3 is_stmt 1 view .LVU1310
 4219              		.loc 1 1822 23 is_stmt 0 view .LVU1311
 4220 0068 D0F81834 		ldr	r3, [r0, #1048]
 4221              		.loc 1 1822 41 view .LVU1312
 4222 006c 01F00F01 		and	r1, r1, #15
 4223              	.LVL337:
 4224              		.loc 1 1822 30 view .LVU1313
 4225 0070 0122     		movs	r2, #1
 4226 0072 02FA01F1 		lsl	r1, r2, r1
 4227              		.loc 1 1822 23 view .LVU1314
 4228 0076 1943     		orrs	r1, r1, r3
 4229 0078 C0F81814 		str	r1, [r0, #1048]
1823:Drivers/STM32F7xx_HAL_Driver/Src/stm32f7xx_ll_usb.c **** 
1824:Drivers/STM32F7xx_HAL_Driver/Src/stm32f7xx_ll_usb.c ****   /* Make sure host channel interrupts are enabled. */
1825:Drivers/STM32F7xx_HAL_Driver/Src/stm32f7xx_ll_usb.c ****   USBx->GINTMSK |= USB_OTG_GINTMSK_HCIM;
 4230              		.loc 1 1825 3 is_stmt 1 view .LVU1315
 4231              		.loc 1 1825 17 is_stmt 0 view .LVU1316
 4232 007c 8369     		ldr	r3, [r0, #24]
 4233 007e 43F00073 		orr	r3, r3, #33554432
 4234 0082 8361     		str	r3, [r0, #24]
1826:Drivers/STM32F7xx_HAL_Driver/Src/stm32f7xx_ll_usb.c **** 
1827:Drivers/STM32F7xx_HAL_Driver/Src/stm32f7xx_ll_usb.c ****   /* Program the HCCHAR register */
1828:Drivers/STM32F7xx_HAL_Driver/Src/stm32f7xx_ll_usb.c ****   if ((epnum & 0x80U) == 0x80U)
 4235              		.loc 1 1828 3 is_stmt 1 view .LVU1317
 4236              		.loc 1 1828 6 is_stmt 0 view .LVU1318
 4237 0084 19F0800F 		tst	r9, #128
 4238 0088 43D1     		bne	.L283
1829:Drivers/STM32F7xx_HAL_Driver/Src/stm32f7xx_ll_usb.c ****   {
1830:Drivers/STM32F7xx_HAL_Driver/Src/stm32f7xx_ll_usb.c ****     HCcharEpDir = (0x1U << 15) & USB_OTG_HCCHAR_EPDIR;
1831:Drivers/STM32F7xx_HAL_Driver/Src/stm32f7xx_ll_usb.c ****   }
1832:Drivers/STM32F7xx_HAL_Driver/Src/stm32f7xx_ll_usb.c ****   else
1833:Drivers/STM32F7xx_HAL_Driver/Src/stm32f7xx_ll_usb.c ****   {
1834:Drivers/STM32F7xx_HAL_Driver/Src/stm32f7xx_ll_usb.c ****     HCcharEpDir = 0U;
 4239              		.loc 1 1834 17 view .LVU1319
 4240 008a 4FF00008 		mov	r8, #0
 4241              	.L271:
 4242              	.LVL338:
1835:Drivers/STM32F7xx_HAL_Driver/Src/stm32f7xx_ll_usb.c ****   }
1836:Drivers/STM32F7xx_HAL_Driver/Src/stm32f7xx_ll_usb.c **** 
1837:Drivers/STM32F7xx_HAL_Driver/Src/stm32f7xx_ll_usb.c ****   HostCoreSpeed = USB_GetHostSpeed(USBx);
 4243              		.loc 1 1837 3 is_stmt 1 view .LVU1320
 4244              		.loc 1 1837 19 is_stmt 0 view .LVU1321
 4245 008e FFF7FEFF 		bl	USB_GetHostSpeed
 4246              	.LVL339:
1838:Drivers/STM32F7xx_HAL_Driver/Src/stm32f7xx_ll_usb.c **** 
1839:Drivers/STM32F7xx_HAL_Driver/Src/stm32f7xx_ll_usb.c ****   /* LS device plugged to HUB */
1840:Drivers/STM32F7xx_HAL_Driver/Src/stm32f7xx_ll_usb.c ****   if ((speed == HPRT0_PRTSPD_LOW_SPEED) && (HostCoreSpeed != HPRT0_PRTSPD_LOW_SPEED))
 4247              		.loc 1 1840 3 is_stmt 1 view .LVU1322
 4248              		.loc 1 1840 41 is_stmt 0 view .LVU1323
 4249 0092 9DF82030 		ldrb	r3, [sp, #32]	@ zero_extendqisi2
 4250 0096 022B     		cmp	r3, #2
ARM GAS  /tmp/ccrvI8Gd.s 			page 126


 4251 0098 14BF     		ite	ne
 4252 009a 0023     		movne	r3, #0
 4253 009c 0123     		moveq	r3, #1
 4254 009e 0228     		cmp	r0, #2
 4255 00a0 08BF     		it	eq
 4256 00a2 0023     		moveq	r3, #0
 4257              		.loc 1 1840 6 view .LVU1324
 4258 00a4 C3B3     		cbz	r3, .L279
1841:Drivers/STM32F7xx_HAL_Driver/Src/stm32f7xx_ll_usb.c ****   {
1842:Drivers/STM32F7xx_HAL_Driver/Src/stm32f7xx_ll_usb.c ****     HCcharLowSpeed = (0x1U << 17) & USB_OTG_HCCHAR_LSDEV;
 4259              		.loc 1 1842 20 view .LVU1325
 4260 00a6 4FF40031 		mov	r1, #131072
 4261              	.L272:
 4262              	.LVL340:
1843:Drivers/STM32F7xx_HAL_Driver/Src/stm32f7xx_ll_usb.c ****   }
1844:Drivers/STM32F7xx_HAL_Driver/Src/stm32f7xx_ll_usb.c ****   else
1845:Drivers/STM32F7xx_HAL_Driver/Src/stm32f7xx_ll_usb.c ****   {
1846:Drivers/STM32F7xx_HAL_Driver/Src/stm32f7xx_ll_usb.c ****     HCcharLowSpeed = 0U;
1847:Drivers/STM32F7xx_HAL_Driver/Src/stm32f7xx_ll_usb.c ****   }
1848:Drivers/STM32F7xx_HAL_Driver/Src/stm32f7xx_ll_usb.c **** 
1849:Drivers/STM32F7xx_HAL_Driver/Src/stm32f7xx_ll_usb.c ****   USBx_HC((uint32_t)ch_num)->HCCHAR = (((uint32_t)dev_address << 22) & USB_OTG_HCCHAR_DAD) |
 4263              		.loc 1 1849 3 is_stmt 1 view .LVU1326
 4264              		.loc 1 1849 63 is_stmt 0 view .LVU1327
 4265 00aa A305     		lsls	r3, r4, #22
 4266              		.loc 1 1849 70 view .LVU1328
 4267 00ac 03F0FE53 		and	r3, r3, #532676608
1850:Drivers/STM32F7xx_HAL_Driver/Src/stm32f7xx_ll_usb.c ****                                       ((((uint32_t)epnum & 0x7FU) << 11) & USB_OTG_HCCHAR_EPNUM) |
 4268              		.loc 1 1850 67 view .LVU1329
 4269 00b0 4FEAC929 		lsl	r9, r9, #11
 4270              		.loc 1 1850 74 view .LVU1330
 4271 00b4 09F4F049 		and	r9, r9, #30720
1849:Drivers/STM32F7xx_HAL_Driver/Src/stm32f7xx_ll_usb.c ****                                       ((((uint32_t)epnum & 0x7FU) << 11) & USB_OTG_HCCHAR_EPNUM) |
 4272              		.loc 1 1849 92 view .LVU1331
 4273 00b8 43EA0903 		orr	r3, r3, r9
1851:Drivers/STM32F7xx_HAL_Driver/Src/stm32f7xx_ll_usb.c ****                                       (((uint32_t)ep_type << 18) & USB_OTG_HCCHAR_EPTYP) |
 4274              		.loc 1 1851 59 view .LVU1332
 4275 00bc AC04     		lsls	r4, r5, #18
 4276              		.loc 1 1851 66 view .LVU1333
 4277 00be 04F44024 		and	r4, r4, #786432
1850:Drivers/STM32F7xx_HAL_Driver/Src/stm32f7xx_ll_usb.c ****                                       ((((uint32_t)epnum & 0x7FU) << 11) & USB_OTG_HCCHAR_EPNUM) |
 4278              		.loc 1 1850 98 view .LVU1334
 4279 00c2 2343     		orrs	r3, r3, r4
1852:Drivers/STM32F7xx_HAL_Driver/Src/stm32f7xx_ll_usb.c ****                                       ((uint32_t)mps & USB_OTG_HCCHAR_MPSIZ) | HCcharEpDir | HCchar
 4280              		.loc 1 1852 54 view .LVU1335
 4281 00c4 BDF82820 		ldrh	r2, [sp, #40]
 4282 00c8 C2F30A02 		ubfx	r2, r2, #0, #11
1851:Drivers/STM32F7xx_HAL_Driver/Src/stm32f7xx_ll_usb.c ****                                       (((uint32_t)ep_type << 18) & USB_OTG_HCCHAR_EPTYP) |
 4283              		.loc 1 1851 90 view .LVU1336
 4284 00cc 1343     		orrs	r3, r3, r2
 4285              		.loc 1 1852 78 view .LVU1337
 4286 00ce 43EA0803 		orr	r3, r3, r8
 4287              		.loc 1 1852 92 view .LVU1338
 4288 00d2 0B43     		orrs	r3, r3, r1
1849:Drivers/STM32F7xx_HAL_Driver/Src/stm32f7xx_ll_usb.c ****                                       ((((uint32_t)epnum & 0x7FU) << 11) & USB_OTG_HCCHAR_EPNUM) |
 4289              		.loc 1 1849 37 view .LVU1339
 4290 00d4 C6F80035 		str	r3, [r6, #1280]
1853:Drivers/STM32F7xx_HAL_Driver/Src/stm32f7xx_ll_usb.c **** 
ARM GAS  /tmp/ccrvI8Gd.s 			page 127


1854:Drivers/STM32F7xx_HAL_Driver/Src/stm32f7xx_ll_usb.c ****   if (ep_type == EP_TYPE_INTR)
 4291              		.loc 1 1854 3 is_stmt 1 view .LVU1340
 4292              		.loc 1 1854 6 is_stmt 0 view .LVU1341
 4293 00d8 032D     		cmp	r5, #3
 4294 00da 1FD0     		beq	.L284
 4295              	.L273:
1855:Drivers/STM32F7xx_HAL_Driver/Src/stm32f7xx_ll_usb.c ****   {
1856:Drivers/STM32F7xx_HAL_Driver/Src/stm32f7xx_ll_usb.c ****     USBx_HC((uint32_t)ch_num)->HCCHAR |= USB_OTG_HCCHAR_ODDFRM ;
1857:Drivers/STM32F7xx_HAL_Driver/Src/stm32f7xx_ll_usb.c ****   }
1858:Drivers/STM32F7xx_HAL_Driver/Src/stm32f7xx_ll_usb.c **** 
1859:Drivers/STM32F7xx_HAL_Driver/Src/stm32f7xx_ll_usb.c ****   return ret;
 4296              		.loc 1 1859 3 is_stmt 1 view .LVU1342
1860:Drivers/STM32F7xx_HAL_Driver/Src/stm32f7xx_ll_usb.c **** }
 4297              		.loc 1 1860 1 is_stmt 0 view .LVU1343
 4298 00dc 3846     		mov	r0, r7
 4299              	.LVL341:
 4300              		.loc 1 1860 1 view .LVU1344
 4301 00de BDE8F883 		pop	{r3, r4, r5, r6, r7, r8, r9, pc}
 4302              	.LVL342:
 4303              	.L282:
1796:Drivers/STM32F7xx_HAL_Driver/Src/stm32f7xx_ll_usb.c ****       }
 4304              		.loc 1 1796 9 is_stmt 1 view .LVU1345
1796:Drivers/STM32F7xx_HAL_Driver/Src/stm32f7xx_ll_usb.c ****       }
 4305              		.loc 1 1796 45 is_stmt 0 view .LVU1346
 4306 00e2 DA68     		ldr	r2, [r3, #12]
 4307 00e4 42F48072 		orr	r2, r2, #256
 4308 00e8 DA60     		str	r2, [r3, #12]
1750:Drivers/STM32F7xx_HAL_Driver/Src/stm32f7xx_ll_usb.c ****   uint32_t USBx_BASE = (uint32_t)USBx;
 4309              		.loc 1 1750 21 view .LVU1347
 4310 00ea 0027     		movs	r7, #0
 4311 00ec B8E7     		b	.L265
 4312              	.L269:
1802:Drivers/STM32F7xx_HAL_Driver/Src/stm32f7xx_ll_usb.c ****                                             USB_OTG_HCINTMSK_ACKM   |
 4313              		.loc 1 1802 7 is_stmt 1 view .LVU1348
1802:Drivers/STM32F7xx_HAL_Driver/Src/stm32f7xx_ll_usb.c ****                                             USB_OTG_HCINTMSK_ACKM   |
 4314              		.loc 1 1802 43 is_stmt 0 view .LVU1349
 4315 00ee 40F22522 		movw	r2, #549
 4316 00f2 DA60     		str	r2, [r3, #12]
1807:Drivers/STM32F7xx_HAL_Driver/Src/stm32f7xx_ll_usb.c ****       {
 4317              		.loc 1 1807 7 is_stmt 1 view .LVU1350
1807:Drivers/STM32F7xx_HAL_Driver/Src/stm32f7xx_ll_usb.c ****       {
 4318              		.loc 1 1807 10 is_stmt 0 view .LVU1351
 4319 00f4 19F0800F 		tst	r9, #128
 4320 00f8 01D1     		bne	.L285
1750:Drivers/STM32F7xx_HAL_Driver/Src/stm32f7xx_ll_usb.c ****   uint32_t USBx_BASE = (uint32_t)USBx;
 4321              		.loc 1 1750 21 view .LVU1352
 4322 00fa 0027     		movs	r7, #0
 4323 00fc B0E7     		b	.L265
 4324              	.L285:
1809:Drivers/STM32F7xx_HAL_Driver/Src/stm32f7xx_ll_usb.c ****       }
 4325              		.loc 1 1809 9 is_stmt 1 view .LVU1353
1809:Drivers/STM32F7xx_HAL_Driver/Src/stm32f7xx_ll_usb.c ****       }
 4326              		.loc 1 1809 45 is_stmt 0 view .LVU1354
 4327 00fe DA68     		ldr	r2, [r3, #12]
 4328 0100 42F4C072 		orr	r2, r2, #384
 4329 0104 DA60     		str	r2, [r3, #12]
1750:Drivers/STM32F7xx_HAL_Driver/Src/stm32f7xx_ll_usb.c ****   uint32_t USBx_BASE = (uint32_t)USBx;
ARM GAS  /tmp/ccrvI8Gd.s 			page 128


 4330              		.loc 1 1750 21 view .LVU1355
 4331 0106 0027     		movs	r7, #0
 4332 0108 AAE7     		b	.L265
 4333              	.L274:
1757:Drivers/STM32F7xx_HAL_Driver/Src/stm32f7xx_ll_usb.c **** 
 4334              		.loc 1 1757 36 view .LVU1356
 4335 010a 0127     		movs	r7, #1
 4336 010c A8E7     		b	.L265
 4337              	.L275:
1750:Drivers/STM32F7xx_HAL_Driver/Src/stm32f7xx_ll_usb.c ****   uint32_t USBx_BASE = (uint32_t)USBx;
 4338              		.loc 1 1750 21 view .LVU1357
 4339 010e 0027     		movs	r7, #0
 4340 0110 A6E7     		b	.L265
 4341              	.LVL343:
 4342              	.L283:
1830:Drivers/STM32F7xx_HAL_Driver/Src/stm32f7xx_ll_usb.c ****   }
 4343              		.loc 1 1830 17 view .LVU1358
 4344 0112 4FF40048 		mov	r8, #32768
 4345 0116 BAE7     		b	.L271
 4346              	.LVL344:
 4347              	.L279:
1846:Drivers/STM32F7xx_HAL_Driver/Src/stm32f7xx_ll_usb.c ****   }
 4348              		.loc 1 1846 20 view .LVU1359
 4349 0118 0021     		movs	r1, #0
 4350 011a C6E7     		b	.L272
 4351              	.LVL345:
 4352              	.L284:
1856:Drivers/STM32F7xx_HAL_Driver/Src/stm32f7xx_ll_usb.c ****   }
 4353              		.loc 1 1856 5 is_stmt 1 view .LVU1360
1856:Drivers/STM32F7xx_HAL_Driver/Src/stm32f7xx_ll_usb.c ****   }
 4354              		.loc 1 1856 39 is_stmt 0 view .LVU1361
 4355 011c D6F80035 		ldr	r3, [r6, #1280]
 4356 0120 43F00053 		orr	r3, r3, #536870912
 4357 0124 C6F80035 		str	r3, [r6, #1280]
 4358 0128 D8E7     		b	.L273
 4359              		.cfi_endproc
 4360              	.LFE181:
 4362              		.section	.text.USB_HC_ReadInterrupt,"ax",%progbits
 4363              		.align	1
 4364              		.global	USB_HC_ReadInterrupt
 4365              		.syntax unified
 4366              		.thumb
 4367              		.thumb_func
 4368              		.fpu fpv5-d16
 4370              	USB_HC_ReadInterrupt:
 4371              	.LVL346:
 4372              	.LFB183:
1861:Drivers/STM32F7xx_HAL_Driver/Src/stm32f7xx_ll_usb.c **** 
1862:Drivers/STM32F7xx_HAL_Driver/Src/stm32f7xx_ll_usb.c **** /**
1863:Drivers/STM32F7xx_HAL_Driver/Src/stm32f7xx_ll_usb.c ****   * @brief  Start a transfer over a host channel
1864:Drivers/STM32F7xx_HAL_Driver/Src/stm32f7xx_ll_usb.c ****   * @param  USBx  Selected device
1865:Drivers/STM32F7xx_HAL_Driver/Src/stm32f7xx_ll_usb.c ****   * @param  hc  pointer to host channel structure
1866:Drivers/STM32F7xx_HAL_Driver/Src/stm32f7xx_ll_usb.c ****   * @param  dma USB dma enabled or disabled
1867:Drivers/STM32F7xx_HAL_Driver/Src/stm32f7xx_ll_usb.c ****   *          This parameter can be one of these values:
1868:Drivers/STM32F7xx_HAL_Driver/Src/stm32f7xx_ll_usb.c ****   *           0 : DMA feature not used
1869:Drivers/STM32F7xx_HAL_Driver/Src/stm32f7xx_ll_usb.c ****   *           1 : DMA feature used
1870:Drivers/STM32F7xx_HAL_Driver/Src/stm32f7xx_ll_usb.c ****   * @retval HAL state
ARM GAS  /tmp/ccrvI8Gd.s 			page 129


1871:Drivers/STM32F7xx_HAL_Driver/Src/stm32f7xx_ll_usb.c ****   */
1872:Drivers/STM32F7xx_HAL_Driver/Src/stm32f7xx_ll_usb.c **** HAL_StatusTypeDef USB_HC_StartXfer(USB_OTG_GlobalTypeDef *USBx, USB_OTG_HCTypeDef *hc, uint8_t dma)
1873:Drivers/STM32F7xx_HAL_Driver/Src/stm32f7xx_ll_usb.c **** {
1874:Drivers/STM32F7xx_HAL_Driver/Src/stm32f7xx_ll_usb.c ****   uint32_t USBx_BASE = (uint32_t)USBx;
1875:Drivers/STM32F7xx_HAL_Driver/Src/stm32f7xx_ll_usb.c ****   uint32_t ch_num = (uint32_t)hc->ch_num;
1876:Drivers/STM32F7xx_HAL_Driver/Src/stm32f7xx_ll_usb.c ****   __IO uint32_t tmpreg;
1877:Drivers/STM32F7xx_HAL_Driver/Src/stm32f7xx_ll_usb.c ****   uint8_t  is_oddframe;
1878:Drivers/STM32F7xx_HAL_Driver/Src/stm32f7xx_ll_usb.c ****   uint16_t len_words;
1879:Drivers/STM32F7xx_HAL_Driver/Src/stm32f7xx_ll_usb.c ****   uint16_t num_packets;
1880:Drivers/STM32F7xx_HAL_Driver/Src/stm32f7xx_ll_usb.c ****   uint16_t max_hc_pkt_count = 256U;
1881:Drivers/STM32F7xx_HAL_Driver/Src/stm32f7xx_ll_usb.c **** 
1882:Drivers/STM32F7xx_HAL_Driver/Src/stm32f7xx_ll_usb.c ****   if (((USBx->CID & (0x1U << 8)) != 0U) && (hc->speed == USBH_HS_SPEED))
1883:Drivers/STM32F7xx_HAL_Driver/Src/stm32f7xx_ll_usb.c ****   {
1884:Drivers/STM32F7xx_HAL_Driver/Src/stm32f7xx_ll_usb.c ****     /* in DMA mode host Core automatically issues ping  in case of NYET/NAK */
1885:Drivers/STM32F7xx_HAL_Driver/Src/stm32f7xx_ll_usb.c ****     if ((dma == 1U) && ((hc->ep_type == EP_TYPE_CTRL) || (hc->ep_type == EP_TYPE_BULK)))
1886:Drivers/STM32F7xx_HAL_Driver/Src/stm32f7xx_ll_usb.c ****     {
1887:Drivers/STM32F7xx_HAL_Driver/Src/stm32f7xx_ll_usb.c ****       USBx_HC((uint32_t)ch_num)->HCINTMSK &= ~(USB_OTG_HCINTMSK_NYET |
1888:Drivers/STM32F7xx_HAL_Driver/Src/stm32f7xx_ll_usb.c ****                                                USB_OTG_HCINTMSK_ACKM |
1889:Drivers/STM32F7xx_HAL_Driver/Src/stm32f7xx_ll_usb.c ****                                                USB_OTG_HCINTMSK_NAKM);
1890:Drivers/STM32F7xx_HAL_Driver/Src/stm32f7xx_ll_usb.c ****     }
1891:Drivers/STM32F7xx_HAL_Driver/Src/stm32f7xx_ll_usb.c **** 
1892:Drivers/STM32F7xx_HAL_Driver/Src/stm32f7xx_ll_usb.c ****     if ((dma == 0U) && (hc->do_ping == 1U))
1893:Drivers/STM32F7xx_HAL_Driver/Src/stm32f7xx_ll_usb.c ****     {
1894:Drivers/STM32F7xx_HAL_Driver/Src/stm32f7xx_ll_usb.c ****       (void)USB_DoPing(USBx, hc->ch_num);
1895:Drivers/STM32F7xx_HAL_Driver/Src/stm32f7xx_ll_usb.c ****       return HAL_OK;
1896:Drivers/STM32F7xx_HAL_Driver/Src/stm32f7xx_ll_usb.c ****     }
1897:Drivers/STM32F7xx_HAL_Driver/Src/stm32f7xx_ll_usb.c **** 
1898:Drivers/STM32F7xx_HAL_Driver/Src/stm32f7xx_ll_usb.c ****   }
1899:Drivers/STM32F7xx_HAL_Driver/Src/stm32f7xx_ll_usb.c **** 
1900:Drivers/STM32F7xx_HAL_Driver/Src/stm32f7xx_ll_usb.c ****   /* Compute the expected number of packets associated to the transfer */
1901:Drivers/STM32F7xx_HAL_Driver/Src/stm32f7xx_ll_usb.c ****   if (hc->xfer_len > 0U)
1902:Drivers/STM32F7xx_HAL_Driver/Src/stm32f7xx_ll_usb.c ****   {
1903:Drivers/STM32F7xx_HAL_Driver/Src/stm32f7xx_ll_usb.c ****     num_packets = (uint16_t)((hc->xfer_len + hc->max_packet - 1U) / hc->max_packet);
1904:Drivers/STM32F7xx_HAL_Driver/Src/stm32f7xx_ll_usb.c **** 
1905:Drivers/STM32F7xx_HAL_Driver/Src/stm32f7xx_ll_usb.c ****     if (num_packets > max_hc_pkt_count)
1906:Drivers/STM32F7xx_HAL_Driver/Src/stm32f7xx_ll_usb.c ****     {
1907:Drivers/STM32F7xx_HAL_Driver/Src/stm32f7xx_ll_usb.c ****       num_packets = max_hc_pkt_count;
1908:Drivers/STM32F7xx_HAL_Driver/Src/stm32f7xx_ll_usb.c ****       hc->XferSize = (uint32_t)num_packets * hc->max_packet;
1909:Drivers/STM32F7xx_HAL_Driver/Src/stm32f7xx_ll_usb.c ****     }
1910:Drivers/STM32F7xx_HAL_Driver/Src/stm32f7xx_ll_usb.c ****   }
1911:Drivers/STM32F7xx_HAL_Driver/Src/stm32f7xx_ll_usb.c ****   else
1912:Drivers/STM32F7xx_HAL_Driver/Src/stm32f7xx_ll_usb.c ****   {
1913:Drivers/STM32F7xx_HAL_Driver/Src/stm32f7xx_ll_usb.c ****     num_packets = 1U;
1914:Drivers/STM32F7xx_HAL_Driver/Src/stm32f7xx_ll_usb.c ****   }
1915:Drivers/STM32F7xx_HAL_Driver/Src/stm32f7xx_ll_usb.c **** 
1916:Drivers/STM32F7xx_HAL_Driver/Src/stm32f7xx_ll_usb.c ****   /*
1917:Drivers/STM32F7xx_HAL_Driver/Src/stm32f7xx_ll_usb.c ****    * For IN channel HCTSIZ.XferSize is expected to be an integer multiple of
1918:Drivers/STM32F7xx_HAL_Driver/Src/stm32f7xx_ll_usb.c ****    * max_packet size.
1919:Drivers/STM32F7xx_HAL_Driver/Src/stm32f7xx_ll_usb.c ****    */
1920:Drivers/STM32F7xx_HAL_Driver/Src/stm32f7xx_ll_usb.c ****   if (hc->ep_is_in != 0U)
1921:Drivers/STM32F7xx_HAL_Driver/Src/stm32f7xx_ll_usb.c ****   {
1922:Drivers/STM32F7xx_HAL_Driver/Src/stm32f7xx_ll_usb.c ****     hc->XferSize = (uint32_t)num_packets * hc->max_packet;
1923:Drivers/STM32F7xx_HAL_Driver/Src/stm32f7xx_ll_usb.c ****   }
1924:Drivers/STM32F7xx_HAL_Driver/Src/stm32f7xx_ll_usb.c ****   else
1925:Drivers/STM32F7xx_HAL_Driver/Src/stm32f7xx_ll_usb.c ****   {
1926:Drivers/STM32F7xx_HAL_Driver/Src/stm32f7xx_ll_usb.c ****     hc->XferSize = hc->xfer_len;
1927:Drivers/STM32F7xx_HAL_Driver/Src/stm32f7xx_ll_usb.c ****   }
ARM GAS  /tmp/ccrvI8Gd.s 			page 130


1928:Drivers/STM32F7xx_HAL_Driver/Src/stm32f7xx_ll_usb.c **** 
1929:Drivers/STM32F7xx_HAL_Driver/Src/stm32f7xx_ll_usb.c ****   /* Initialize the HCTSIZn register */
1930:Drivers/STM32F7xx_HAL_Driver/Src/stm32f7xx_ll_usb.c ****   USBx_HC(ch_num)->HCTSIZ = (hc->XferSize & USB_OTG_HCTSIZ_XFRSIZ) |
1931:Drivers/STM32F7xx_HAL_Driver/Src/stm32f7xx_ll_usb.c ****                             (((uint32_t)num_packets << 19) & USB_OTG_HCTSIZ_PKTCNT) |
1932:Drivers/STM32F7xx_HAL_Driver/Src/stm32f7xx_ll_usb.c ****                             (((uint32_t)hc->data_pid << 29) & USB_OTG_HCTSIZ_DPID);
1933:Drivers/STM32F7xx_HAL_Driver/Src/stm32f7xx_ll_usb.c **** 
1934:Drivers/STM32F7xx_HAL_Driver/Src/stm32f7xx_ll_usb.c ****   if (dma != 0U)
1935:Drivers/STM32F7xx_HAL_Driver/Src/stm32f7xx_ll_usb.c ****   {
1936:Drivers/STM32F7xx_HAL_Driver/Src/stm32f7xx_ll_usb.c ****     /* xfer_buff MUST be 32-bits aligned */
1937:Drivers/STM32F7xx_HAL_Driver/Src/stm32f7xx_ll_usb.c ****     USBx_HC(ch_num)->HCDMA = (uint32_t)hc->xfer_buff;
1938:Drivers/STM32F7xx_HAL_Driver/Src/stm32f7xx_ll_usb.c ****   }
1939:Drivers/STM32F7xx_HAL_Driver/Src/stm32f7xx_ll_usb.c **** 
1940:Drivers/STM32F7xx_HAL_Driver/Src/stm32f7xx_ll_usb.c ****   is_oddframe = (((uint32_t)USBx_HOST->HFNUM & 0x01U) != 0U) ? 0U : 1U;
1941:Drivers/STM32F7xx_HAL_Driver/Src/stm32f7xx_ll_usb.c ****   USBx_HC(ch_num)->HCCHAR &= ~USB_OTG_HCCHAR_ODDFRM;
1942:Drivers/STM32F7xx_HAL_Driver/Src/stm32f7xx_ll_usb.c ****   USBx_HC(ch_num)->HCCHAR |= (uint32_t)is_oddframe << 29;
1943:Drivers/STM32F7xx_HAL_Driver/Src/stm32f7xx_ll_usb.c **** 
1944:Drivers/STM32F7xx_HAL_Driver/Src/stm32f7xx_ll_usb.c ****   /* Set host channel enable */
1945:Drivers/STM32F7xx_HAL_Driver/Src/stm32f7xx_ll_usb.c ****   tmpreg = USBx_HC(ch_num)->HCCHAR;
1946:Drivers/STM32F7xx_HAL_Driver/Src/stm32f7xx_ll_usb.c ****   tmpreg &= ~USB_OTG_HCCHAR_CHDIS;
1947:Drivers/STM32F7xx_HAL_Driver/Src/stm32f7xx_ll_usb.c **** 
1948:Drivers/STM32F7xx_HAL_Driver/Src/stm32f7xx_ll_usb.c ****   /* make sure to set the correct ep direction */
1949:Drivers/STM32F7xx_HAL_Driver/Src/stm32f7xx_ll_usb.c ****   if (hc->ep_is_in != 0U)
1950:Drivers/STM32F7xx_HAL_Driver/Src/stm32f7xx_ll_usb.c ****   {
1951:Drivers/STM32F7xx_HAL_Driver/Src/stm32f7xx_ll_usb.c ****     tmpreg |= USB_OTG_HCCHAR_EPDIR;
1952:Drivers/STM32F7xx_HAL_Driver/Src/stm32f7xx_ll_usb.c ****   }
1953:Drivers/STM32F7xx_HAL_Driver/Src/stm32f7xx_ll_usb.c ****   else
1954:Drivers/STM32F7xx_HAL_Driver/Src/stm32f7xx_ll_usb.c ****   {
1955:Drivers/STM32F7xx_HAL_Driver/Src/stm32f7xx_ll_usb.c ****     tmpreg &= ~USB_OTG_HCCHAR_EPDIR;
1956:Drivers/STM32F7xx_HAL_Driver/Src/stm32f7xx_ll_usb.c ****   }
1957:Drivers/STM32F7xx_HAL_Driver/Src/stm32f7xx_ll_usb.c ****   tmpreg |= USB_OTG_HCCHAR_CHENA;
1958:Drivers/STM32F7xx_HAL_Driver/Src/stm32f7xx_ll_usb.c ****   USBx_HC(ch_num)->HCCHAR = tmpreg;
1959:Drivers/STM32F7xx_HAL_Driver/Src/stm32f7xx_ll_usb.c **** 
1960:Drivers/STM32F7xx_HAL_Driver/Src/stm32f7xx_ll_usb.c ****   if (dma != 0U) /* dma mode */
1961:Drivers/STM32F7xx_HAL_Driver/Src/stm32f7xx_ll_usb.c ****   {
1962:Drivers/STM32F7xx_HAL_Driver/Src/stm32f7xx_ll_usb.c ****     return HAL_OK;
1963:Drivers/STM32F7xx_HAL_Driver/Src/stm32f7xx_ll_usb.c ****   }
1964:Drivers/STM32F7xx_HAL_Driver/Src/stm32f7xx_ll_usb.c **** 
1965:Drivers/STM32F7xx_HAL_Driver/Src/stm32f7xx_ll_usb.c ****   if ((hc->ep_is_in == 0U) && (hc->xfer_len > 0U))
1966:Drivers/STM32F7xx_HAL_Driver/Src/stm32f7xx_ll_usb.c ****   {
1967:Drivers/STM32F7xx_HAL_Driver/Src/stm32f7xx_ll_usb.c ****     switch (hc->ep_type)
1968:Drivers/STM32F7xx_HAL_Driver/Src/stm32f7xx_ll_usb.c ****     {
1969:Drivers/STM32F7xx_HAL_Driver/Src/stm32f7xx_ll_usb.c ****       /* Non periodic transfer */
1970:Drivers/STM32F7xx_HAL_Driver/Src/stm32f7xx_ll_usb.c ****       case EP_TYPE_CTRL:
1971:Drivers/STM32F7xx_HAL_Driver/Src/stm32f7xx_ll_usb.c ****       case EP_TYPE_BULK:
1972:Drivers/STM32F7xx_HAL_Driver/Src/stm32f7xx_ll_usb.c **** 
1973:Drivers/STM32F7xx_HAL_Driver/Src/stm32f7xx_ll_usb.c ****         len_words = (uint16_t)((hc->xfer_len + 3U) / 4U);
1974:Drivers/STM32F7xx_HAL_Driver/Src/stm32f7xx_ll_usb.c **** 
1975:Drivers/STM32F7xx_HAL_Driver/Src/stm32f7xx_ll_usb.c ****         /* check if there is enough space in FIFO space */
1976:Drivers/STM32F7xx_HAL_Driver/Src/stm32f7xx_ll_usb.c ****         if (len_words > (USBx->HNPTXSTS & 0xFFFFU))
1977:Drivers/STM32F7xx_HAL_Driver/Src/stm32f7xx_ll_usb.c ****         {
1978:Drivers/STM32F7xx_HAL_Driver/Src/stm32f7xx_ll_usb.c ****           /* need to process data in nptxfempty interrupt */
1979:Drivers/STM32F7xx_HAL_Driver/Src/stm32f7xx_ll_usb.c ****           USBx->GINTMSK |= USB_OTG_GINTMSK_NPTXFEM;
1980:Drivers/STM32F7xx_HAL_Driver/Src/stm32f7xx_ll_usb.c ****         }
1981:Drivers/STM32F7xx_HAL_Driver/Src/stm32f7xx_ll_usb.c ****         break;
1982:Drivers/STM32F7xx_HAL_Driver/Src/stm32f7xx_ll_usb.c **** 
1983:Drivers/STM32F7xx_HAL_Driver/Src/stm32f7xx_ll_usb.c ****       /* Periodic transfer */
1984:Drivers/STM32F7xx_HAL_Driver/Src/stm32f7xx_ll_usb.c ****       case EP_TYPE_INTR:
ARM GAS  /tmp/ccrvI8Gd.s 			page 131


1985:Drivers/STM32F7xx_HAL_Driver/Src/stm32f7xx_ll_usb.c ****       case EP_TYPE_ISOC:
1986:Drivers/STM32F7xx_HAL_Driver/Src/stm32f7xx_ll_usb.c ****         len_words = (uint16_t)((hc->xfer_len + 3U) / 4U);
1987:Drivers/STM32F7xx_HAL_Driver/Src/stm32f7xx_ll_usb.c ****         /* check if there is enough space in FIFO space */
1988:Drivers/STM32F7xx_HAL_Driver/Src/stm32f7xx_ll_usb.c ****         if (len_words > (USBx_HOST->HPTXSTS & 0xFFFFU)) /* split the transfer */
1989:Drivers/STM32F7xx_HAL_Driver/Src/stm32f7xx_ll_usb.c ****         {
1990:Drivers/STM32F7xx_HAL_Driver/Src/stm32f7xx_ll_usb.c ****           /* need to process data in ptxfempty interrupt */
1991:Drivers/STM32F7xx_HAL_Driver/Src/stm32f7xx_ll_usb.c ****           USBx->GINTMSK |= USB_OTG_GINTMSK_PTXFEM;
1992:Drivers/STM32F7xx_HAL_Driver/Src/stm32f7xx_ll_usb.c ****         }
1993:Drivers/STM32F7xx_HAL_Driver/Src/stm32f7xx_ll_usb.c ****         break;
1994:Drivers/STM32F7xx_HAL_Driver/Src/stm32f7xx_ll_usb.c **** 
1995:Drivers/STM32F7xx_HAL_Driver/Src/stm32f7xx_ll_usb.c ****       default:
1996:Drivers/STM32F7xx_HAL_Driver/Src/stm32f7xx_ll_usb.c ****         break;
1997:Drivers/STM32F7xx_HAL_Driver/Src/stm32f7xx_ll_usb.c ****     }
1998:Drivers/STM32F7xx_HAL_Driver/Src/stm32f7xx_ll_usb.c **** 
1999:Drivers/STM32F7xx_HAL_Driver/Src/stm32f7xx_ll_usb.c ****     /* Write packet into the Tx FIFO. */
2000:Drivers/STM32F7xx_HAL_Driver/Src/stm32f7xx_ll_usb.c ****     (void)USB_WritePacket(USBx, hc->xfer_buff, hc->ch_num, (uint16_t)hc->xfer_len, 0);
2001:Drivers/STM32F7xx_HAL_Driver/Src/stm32f7xx_ll_usb.c ****   }
2002:Drivers/STM32F7xx_HAL_Driver/Src/stm32f7xx_ll_usb.c **** 
2003:Drivers/STM32F7xx_HAL_Driver/Src/stm32f7xx_ll_usb.c ****   return HAL_OK;
2004:Drivers/STM32F7xx_HAL_Driver/Src/stm32f7xx_ll_usb.c **** }
2005:Drivers/STM32F7xx_HAL_Driver/Src/stm32f7xx_ll_usb.c **** 
2006:Drivers/STM32F7xx_HAL_Driver/Src/stm32f7xx_ll_usb.c **** /**
2007:Drivers/STM32F7xx_HAL_Driver/Src/stm32f7xx_ll_usb.c ****   * @brief Read all host channel interrupts status
2008:Drivers/STM32F7xx_HAL_Driver/Src/stm32f7xx_ll_usb.c ****   * @param  USBx  Selected device
2009:Drivers/STM32F7xx_HAL_Driver/Src/stm32f7xx_ll_usb.c ****   * @retval HAL state
2010:Drivers/STM32F7xx_HAL_Driver/Src/stm32f7xx_ll_usb.c ****   */
2011:Drivers/STM32F7xx_HAL_Driver/Src/stm32f7xx_ll_usb.c **** uint32_t USB_HC_ReadInterrupt(USB_OTG_GlobalTypeDef *USBx)
2012:Drivers/STM32F7xx_HAL_Driver/Src/stm32f7xx_ll_usb.c **** {
 4373              		.loc 1 2012 1 is_stmt 1 view -0
 4374              		.cfi_startproc
 4375              		@ args = 0, pretend = 0, frame = 0
 4376              		@ frame_needed = 0, uses_anonymous_args = 0
 4377              		@ link register save eliminated.
2013:Drivers/STM32F7xx_HAL_Driver/Src/stm32f7xx_ll_usb.c ****   uint32_t USBx_BASE = (uint32_t)USBx;
 4378              		.loc 1 2013 3 view .LVU1363
2014:Drivers/STM32F7xx_HAL_Driver/Src/stm32f7xx_ll_usb.c **** 
2015:Drivers/STM32F7xx_HAL_Driver/Src/stm32f7xx_ll_usb.c ****   return ((USBx_HOST->HAINT) & 0xFFFFU);
 4379              		.loc 1 2015 3 view .LVU1364
 4380              		.loc 1 2015 12 is_stmt 0 view .LVU1365
 4381 0000 00F58060 		add	r0, r0, #1024
 4382              	.LVL347:
 4383              		.loc 1 2015 21 view .LVU1366
 4384 0004 4069     		ldr	r0, [r0, #20]
 4385              	.LVL348:
2016:Drivers/STM32F7xx_HAL_Driver/Src/stm32f7xx_ll_usb.c **** }
 4386              		.loc 1 2016 1 view .LVU1367
 4387 0006 80B2     		uxth	r0, r0
 4388 0008 7047     		bx	lr
 4389              		.cfi_endproc
 4390              	.LFE183:
 4392              		.section	.text.USB_HC_Halt,"ax",%progbits
 4393              		.align	1
 4394              		.global	USB_HC_Halt
 4395              		.syntax unified
 4396              		.thumb
 4397              		.thumb_func
 4398              		.fpu fpv5-d16
ARM GAS  /tmp/ccrvI8Gd.s 			page 132


 4400              	USB_HC_Halt:
 4401              	.LVL349:
 4402              	.LFB184:
2017:Drivers/STM32F7xx_HAL_Driver/Src/stm32f7xx_ll_usb.c **** 
2018:Drivers/STM32F7xx_HAL_Driver/Src/stm32f7xx_ll_usb.c **** /**
2019:Drivers/STM32F7xx_HAL_Driver/Src/stm32f7xx_ll_usb.c ****   * @brief  Halt a host channel
2020:Drivers/STM32F7xx_HAL_Driver/Src/stm32f7xx_ll_usb.c ****   * @param  USBx  Selected device
2021:Drivers/STM32F7xx_HAL_Driver/Src/stm32f7xx_ll_usb.c ****   * @param  hc_num  Host Channel number
2022:Drivers/STM32F7xx_HAL_Driver/Src/stm32f7xx_ll_usb.c ****   *         This parameter can be a value from 1 to 15
2023:Drivers/STM32F7xx_HAL_Driver/Src/stm32f7xx_ll_usb.c ****   * @retval HAL state
2024:Drivers/STM32F7xx_HAL_Driver/Src/stm32f7xx_ll_usb.c ****   */
2025:Drivers/STM32F7xx_HAL_Driver/Src/stm32f7xx_ll_usb.c **** HAL_StatusTypeDef USB_HC_Halt(USB_OTG_GlobalTypeDef *USBx, uint8_t hc_num)
2026:Drivers/STM32F7xx_HAL_Driver/Src/stm32f7xx_ll_usb.c **** {
 4403              		.loc 1 2026 1 is_stmt 1 view -0
 4404              		.cfi_startproc
 4405              		@ args = 0, pretend = 0, frame = 8
 4406              		@ frame_needed = 0, uses_anonymous_args = 0
 4407              		@ link register save eliminated.
 4408              		.loc 1 2026 1 is_stmt 0 view .LVU1369
 4409 0000 30B4     		push	{r4, r5}
 4410              	.LCFI65:
 4411              		.cfi_def_cfa_offset 8
 4412              		.cfi_offset 4, -8
 4413              		.cfi_offset 5, -4
 4414 0002 82B0     		sub	sp, sp, #8
 4415              	.LCFI66:
 4416              		.cfi_def_cfa_offset 16
2027:Drivers/STM32F7xx_HAL_Driver/Src/stm32f7xx_ll_usb.c ****   uint32_t USBx_BASE = (uint32_t)USBx;
 4417              		.loc 1 2027 3 is_stmt 1 view .LVU1370
 4418              	.LVL350:
2028:Drivers/STM32F7xx_HAL_Driver/Src/stm32f7xx_ll_usb.c ****   uint32_t hcnum = (uint32_t)hc_num;
 4419              		.loc 1 2028 3 view .LVU1371
2029:Drivers/STM32F7xx_HAL_Driver/Src/stm32f7xx_ll_usb.c ****   __IO uint32_t count = 0U;
 4420              		.loc 1 2029 3 view .LVU1372
 4421              		.loc 1 2029 17 is_stmt 0 view .LVU1373
 4422 0004 0023     		movs	r3, #0
 4423 0006 0193     		str	r3, [sp, #4]
2030:Drivers/STM32F7xx_HAL_Driver/Src/stm32f7xx_ll_usb.c ****   uint32_t HcEpType = (USBx_HC(hcnum)->HCCHAR & USB_OTG_HCCHAR_EPTYP) >> 18;
 4424              		.loc 1 2030 3 is_stmt 1 view .LVU1374
 4425              		.loc 1 2030 24 is_stmt 0 view .LVU1375
 4426 0008 00EB4111 		add	r1, r0, r1, lsl #5
 4427              	.LVL351:
 4428              		.loc 1 2030 24 view .LVU1376
 4429 000c 01F5A062 		add	r2, r1, #1280
 4430              		.loc 1 2030 38 view .LVU1377
 4431 0010 D1F80035 		ldr	r3, [r1, #1280]
 4432              		.loc 1 2030 12 view .LVU1378
 4433 0014 C3F38143 		ubfx	r3, r3, #18, #2
 4434              	.LVL352:
2031:Drivers/STM32F7xx_HAL_Driver/Src/stm32f7xx_ll_usb.c ****   uint32_t ChannelEna = (USBx_HC(hcnum)->HCCHAR & USB_OTG_HCCHAR_CHENA) >> 31;
 4435              		.loc 1 2031 3 is_stmt 1 view .LVU1379
 4436              		.loc 1 2031 40 is_stmt 0 view .LVU1380
 4437 0018 D1F80045 		ldr	r4, [r1, #1280]
 4438              		.loc 1 2031 73 view .LVU1381
 4439 001c E40F     		lsrs	r4, r4, #31
 4440              	.LVL353:
2032:Drivers/STM32F7xx_HAL_Driver/Src/stm32f7xx_ll_usb.c **** 
ARM GAS  /tmp/ccrvI8Gd.s 			page 133


2033:Drivers/STM32F7xx_HAL_Driver/Src/stm32f7xx_ll_usb.c ****   if (((USBx->GAHBCFG & USB_OTG_GAHBCFG_DMAEN) == USB_OTG_GAHBCFG_DMAEN) &&
 4441              		.loc 1 2033 3 is_stmt 1 view .LVU1382
 4442              		.loc 1 2033 13 is_stmt 0 view .LVU1383
 4443 001e 8568     		ldr	r5, [r0, #8]
 4444              		.loc 1 2033 6 view .LVU1384
 4445 0020 15F0200F 		tst	r5, #32
 4446 0024 01D0     		beq	.L288
 4447              		.loc 1 2033 74 discriminator 1 view .LVU1385
 4448 0026 002C     		cmp	r4, #0
 4449 0028 5AD0     		beq	.L289
 4450              	.L288:
2034:Drivers/STM32F7xx_HAL_Driver/Src/stm32f7xx_ll_usb.c ****       (ChannelEna == 0U))
2035:Drivers/STM32F7xx_HAL_Driver/Src/stm32f7xx_ll_usb.c ****   {
2036:Drivers/STM32F7xx_HAL_Driver/Src/stm32f7xx_ll_usb.c ****     return HAL_OK;
2037:Drivers/STM32F7xx_HAL_Driver/Src/stm32f7xx_ll_usb.c ****   }
2038:Drivers/STM32F7xx_HAL_Driver/Src/stm32f7xx_ll_usb.c **** 
2039:Drivers/STM32F7xx_HAL_Driver/Src/stm32f7xx_ll_usb.c ****   /* Check for space in the request queue to issue the halt. */
2040:Drivers/STM32F7xx_HAL_Driver/Src/stm32f7xx_ll_usb.c ****   if ((HcEpType == HCCHAR_CTRL) || (HcEpType == HCCHAR_BULK))
 4451              		.loc 1 2040 3 is_stmt 1 view .LVU1386
 4452              		.loc 1 2040 46 is_stmt 0 view .LVU1387
 4453 002a 022B     		cmp	r3, #2
 4454 002c 14BF     		ite	ne
 4455 002e 0024     		movne	r4, #0
 4456              	.LVL354:
 4457              		.loc 1 2040 46 view .LVU1388
 4458 0030 0124     		moveq	r4, #1
 4459              		.loc 1 2040 33 view .LVU1389
 4460 0032 002B     		cmp	r3, #0
 4461 0034 14BF     		ite	ne
 4462 0036 2346     		movne	r3, r4
 4463 0038 0123     		moveq	r3, #1
 4464              	.LVL355:
 4465              		.loc 1 2040 6 view .LVU1390
 4466 003a 53B3     		cbz	r3, .L290
2041:Drivers/STM32F7xx_HAL_Driver/Src/stm32f7xx_ll_usb.c ****   {
2042:Drivers/STM32F7xx_HAL_Driver/Src/stm32f7xx_ll_usb.c ****     USBx_HC(hcnum)->HCCHAR |= USB_OTG_HCCHAR_CHDIS;
 4467              		.loc 1 2042 5 is_stmt 1 view .LVU1391
 4468              		.loc 1 2042 28 is_stmt 0 view .LVU1392
 4469 003c D1F80035 		ldr	r3, [r1, #1280]
 4470 0040 43F08043 		orr	r3, r3, #1073741824
 4471 0044 C1F80035 		str	r3, [r1, #1280]
2043:Drivers/STM32F7xx_HAL_Driver/Src/stm32f7xx_ll_usb.c **** 
2044:Drivers/STM32F7xx_HAL_Driver/Src/stm32f7xx_ll_usb.c ****     if ((USBx->GAHBCFG & USB_OTG_GAHBCFG_DMAEN) == 0U)
 4472              		.loc 1 2044 5 is_stmt 1 view .LVU1393
 4473              		.loc 1 2044 14 is_stmt 0 view .LVU1394
 4474 0048 8368     		ldr	r3, [r0, #8]
 4475              		.loc 1 2044 8 view .LVU1395
 4476 004a 13F0200F 		tst	r3, #32
 4477 004e 47D1     		bne	.L289
2045:Drivers/STM32F7xx_HAL_Driver/Src/stm32f7xx_ll_usb.c ****     {
2046:Drivers/STM32F7xx_HAL_Driver/Src/stm32f7xx_ll_usb.c ****       if ((USBx->HNPTXSTS & (0xFFU << 16)) == 0U)
 4478              		.loc 1 2046 7 is_stmt 1 view .LVU1396
 4479              		.loc 1 2046 16 is_stmt 0 view .LVU1397
 4480 0050 C36A     		ldr	r3, [r0, #44]
 4481              		.loc 1 2046 10 view .LVU1398
 4482 0052 13F47F0F 		tst	r3, #16711680
 4483 0056 15D1     		bne	.L291
ARM GAS  /tmp/ccrvI8Gd.s 			page 134


2047:Drivers/STM32F7xx_HAL_Driver/Src/stm32f7xx_ll_usb.c ****       {
2048:Drivers/STM32F7xx_HAL_Driver/Src/stm32f7xx_ll_usb.c ****         USBx_HC(hcnum)->HCCHAR &= ~USB_OTG_HCCHAR_CHENA;
 4484              		.loc 1 2048 9 is_stmt 1 view .LVU1399
 4485              		.loc 1 2048 32 is_stmt 0 view .LVU1400
 4486 0058 D1F80035 		ldr	r3, [r1, #1280]
 4487 005c 23F00043 		bic	r3, r3, #-2147483648
 4488 0060 C1F80035 		str	r3, [r1, #1280]
2049:Drivers/STM32F7xx_HAL_Driver/Src/stm32f7xx_ll_usb.c ****         USBx_HC(hcnum)->HCCHAR |= USB_OTG_HCCHAR_CHENA;
 4489              		.loc 1 2049 9 is_stmt 1 view .LVU1401
 4490              		.loc 1 2049 32 is_stmt 0 view .LVU1402
 4491 0064 D1F80035 		ldr	r3, [r1, #1280]
 4492 0068 43F00043 		orr	r3, r3, #-2147483648
 4493 006c C1F80035 		str	r3, [r1, #1280]
 4494              	.L292:
2050:Drivers/STM32F7xx_HAL_Driver/Src/stm32f7xx_ll_usb.c ****         do
 4495              		.loc 1 2050 9 is_stmt 1 view .LVU1403
2051:Drivers/STM32F7xx_HAL_Driver/Src/stm32f7xx_ll_usb.c ****         {
2052:Drivers/STM32F7xx_HAL_Driver/Src/stm32f7xx_ll_usb.c ****           if (++count > 1000U)
 4496              		.loc 1 2052 11 view .LVU1404
 4497              		.loc 1 2052 15 is_stmt 0 view .LVU1405
 4498 0070 019B     		ldr	r3, [sp, #4]
 4499 0072 0133     		adds	r3, r3, #1
 4500              		.loc 1 2052 14 view .LVU1406
 4501 0074 0193     		str	r3, [sp, #4]
 4502 0076 B3F57A7F 		cmp	r3, #1000
 4503 007a 31D8     		bhi	.L289
2053:Drivers/STM32F7xx_HAL_Driver/Src/stm32f7xx_ll_usb.c ****           {
2054:Drivers/STM32F7xx_HAL_Driver/Src/stm32f7xx_ll_usb.c ****             break;
2055:Drivers/STM32F7xx_HAL_Driver/Src/stm32f7xx_ll_usb.c ****           }
2056:Drivers/STM32F7xx_HAL_Driver/Src/stm32f7xx_ll_usb.c ****         } while ((USBx_HC(hcnum)->HCCHAR & USB_OTG_HCCHAR_CHENA) == USB_OTG_HCCHAR_CHENA);
 4504              		.loc 1 2056 17 is_stmt 1 view .LVU1407
 4505              		.loc 1 2056 33 is_stmt 0 view .LVU1408
 4506 007c 1368     		ldr	r3, [r2]
 4507              		.loc 1 2056 9 view .LVU1409
 4508 007e 002B     		cmp	r3, #0
 4509 0080 F6DB     		blt	.L292
 4510 0082 2DE0     		b	.L289
 4511              	.L291:
2057:Drivers/STM32F7xx_HAL_Driver/Src/stm32f7xx_ll_usb.c ****       }
2058:Drivers/STM32F7xx_HAL_Driver/Src/stm32f7xx_ll_usb.c ****       else
2059:Drivers/STM32F7xx_HAL_Driver/Src/stm32f7xx_ll_usb.c ****       {
2060:Drivers/STM32F7xx_HAL_Driver/Src/stm32f7xx_ll_usb.c ****         USBx_HC(hcnum)->HCCHAR |= USB_OTG_HCCHAR_CHENA;
 4512              		.loc 1 2060 9 is_stmt 1 view .LVU1410
 4513              		.loc 1 2060 32 is_stmt 0 view .LVU1411
 4514 0084 D1F80035 		ldr	r3, [r1, #1280]
 4515 0088 43F00043 		orr	r3, r3, #-2147483648
 4516 008c C1F80035 		str	r3, [r1, #1280]
 4517 0090 26E0     		b	.L289
 4518              	.L290:
2061:Drivers/STM32F7xx_HAL_Driver/Src/stm32f7xx_ll_usb.c ****       }
2062:Drivers/STM32F7xx_HAL_Driver/Src/stm32f7xx_ll_usb.c ****     }
2063:Drivers/STM32F7xx_HAL_Driver/Src/stm32f7xx_ll_usb.c ****   }
2064:Drivers/STM32F7xx_HAL_Driver/Src/stm32f7xx_ll_usb.c ****   else
2065:Drivers/STM32F7xx_HAL_Driver/Src/stm32f7xx_ll_usb.c ****   {
2066:Drivers/STM32F7xx_HAL_Driver/Src/stm32f7xx_ll_usb.c ****     USBx_HC(hcnum)->HCCHAR |= USB_OTG_HCCHAR_CHDIS;
 4519              		.loc 1 2066 5 is_stmt 1 view .LVU1412
 4520              		.loc 1 2066 28 is_stmt 0 view .LVU1413
ARM GAS  /tmp/ccrvI8Gd.s 			page 135


 4521 0092 D1F80035 		ldr	r3, [r1, #1280]
 4522 0096 43F08043 		orr	r3, r3, #1073741824
 4523 009a C1F80035 		str	r3, [r1, #1280]
2067:Drivers/STM32F7xx_HAL_Driver/Src/stm32f7xx_ll_usb.c **** 
2068:Drivers/STM32F7xx_HAL_Driver/Src/stm32f7xx_ll_usb.c ****     if ((USBx_HOST->HPTXSTS & (0xFFU << 16)) == 0U)
 4524              		.loc 1 2068 5 is_stmt 1 view .LVU1414
 4525              		.loc 1 2068 19 is_stmt 0 view .LVU1415
 4526 009e D0F81034 		ldr	r3, [r0, #1040]
 4527              		.loc 1 2068 8 view .LVU1416
 4528 00a2 13F47F0F 		tst	r3, #16711680
 4529 00a6 15D1     		bne	.L293
2069:Drivers/STM32F7xx_HAL_Driver/Src/stm32f7xx_ll_usb.c ****     {
2070:Drivers/STM32F7xx_HAL_Driver/Src/stm32f7xx_ll_usb.c ****       USBx_HC(hcnum)->HCCHAR &= ~USB_OTG_HCCHAR_CHENA;
 4530              		.loc 1 2070 7 is_stmt 1 view .LVU1417
 4531              		.loc 1 2070 30 is_stmt 0 view .LVU1418
 4532 00a8 D1F80035 		ldr	r3, [r1, #1280]
 4533 00ac 23F00043 		bic	r3, r3, #-2147483648
 4534 00b0 C1F80035 		str	r3, [r1, #1280]
2071:Drivers/STM32F7xx_HAL_Driver/Src/stm32f7xx_ll_usb.c ****       USBx_HC(hcnum)->HCCHAR |= USB_OTG_HCCHAR_CHENA;
 4535              		.loc 1 2071 7 is_stmt 1 view .LVU1419
 4536              		.loc 1 2071 30 is_stmt 0 view .LVU1420
 4537 00b4 D1F80035 		ldr	r3, [r1, #1280]
 4538 00b8 43F00043 		orr	r3, r3, #-2147483648
 4539 00bc C1F80035 		str	r3, [r1, #1280]
 4540              	.L294:
2072:Drivers/STM32F7xx_HAL_Driver/Src/stm32f7xx_ll_usb.c ****       do
 4541              		.loc 1 2072 7 is_stmt 1 view .LVU1421
2073:Drivers/STM32F7xx_HAL_Driver/Src/stm32f7xx_ll_usb.c ****       {
2074:Drivers/STM32F7xx_HAL_Driver/Src/stm32f7xx_ll_usb.c ****         if (++count > 1000U)
 4542              		.loc 1 2074 9 view .LVU1422
 4543              		.loc 1 2074 13 is_stmt 0 view .LVU1423
 4544 00c0 019B     		ldr	r3, [sp, #4]
 4545 00c2 0133     		adds	r3, r3, #1
 4546              		.loc 1 2074 12 view .LVU1424
 4547 00c4 0193     		str	r3, [sp, #4]
 4548 00c6 B3F57A7F 		cmp	r3, #1000
 4549 00ca 09D8     		bhi	.L289
2075:Drivers/STM32F7xx_HAL_Driver/Src/stm32f7xx_ll_usb.c ****         {
2076:Drivers/STM32F7xx_HAL_Driver/Src/stm32f7xx_ll_usb.c ****           break;
2077:Drivers/STM32F7xx_HAL_Driver/Src/stm32f7xx_ll_usb.c ****         }
2078:Drivers/STM32F7xx_HAL_Driver/Src/stm32f7xx_ll_usb.c ****       } while ((USBx_HC(hcnum)->HCCHAR & USB_OTG_HCCHAR_CHENA) == USB_OTG_HCCHAR_CHENA);
 4550              		.loc 1 2078 15 is_stmt 1 view .LVU1425
 4551              		.loc 1 2078 31 is_stmt 0 view .LVU1426
 4552 00cc 1368     		ldr	r3, [r2]
 4553              		.loc 1 2078 7 view .LVU1427
 4554 00ce 002B     		cmp	r3, #0
 4555 00d0 F6DB     		blt	.L294
 4556 00d2 05E0     		b	.L289
 4557              	.L293:
2079:Drivers/STM32F7xx_HAL_Driver/Src/stm32f7xx_ll_usb.c ****     }
2080:Drivers/STM32F7xx_HAL_Driver/Src/stm32f7xx_ll_usb.c ****     else
2081:Drivers/STM32F7xx_HAL_Driver/Src/stm32f7xx_ll_usb.c ****     {
2082:Drivers/STM32F7xx_HAL_Driver/Src/stm32f7xx_ll_usb.c ****       USBx_HC(hcnum)->HCCHAR |= USB_OTG_HCCHAR_CHENA;
 4558              		.loc 1 2082 7 is_stmt 1 view .LVU1428
 4559              		.loc 1 2082 30 is_stmt 0 view .LVU1429
 4560 00d4 D1F80035 		ldr	r3, [r1, #1280]
 4561 00d8 43F00043 		orr	r3, r3, #-2147483648
ARM GAS  /tmp/ccrvI8Gd.s 			page 136


 4562 00dc C1F80035 		str	r3, [r1, #1280]
 4563              	.L289:
2083:Drivers/STM32F7xx_HAL_Driver/Src/stm32f7xx_ll_usb.c ****     }
2084:Drivers/STM32F7xx_HAL_Driver/Src/stm32f7xx_ll_usb.c ****   }
2085:Drivers/STM32F7xx_HAL_Driver/Src/stm32f7xx_ll_usb.c **** 
2086:Drivers/STM32F7xx_HAL_Driver/Src/stm32f7xx_ll_usb.c ****   return HAL_OK;
2087:Drivers/STM32F7xx_HAL_Driver/Src/stm32f7xx_ll_usb.c **** }
 4564              		.loc 1 2087 1 view .LVU1430
 4565 00e0 0020     		movs	r0, #0
 4566              	.LVL356:
 4567              		.loc 1 2087 1 view .LVU1431
 4568 00e2 02B0     		add	sp, sp, #8
 4569              	.LCFI67:
 4570              		.cfi_def_cfa_offset 8
 4571              		@ sp needed
 4572 00e4 30BC     		pop	{r4, r5}
 4573              	.LCFI68:
 4574              		.cfi_restore 5
 4575              		.cfi_restore 4
 4576              		.cfi_def_cfa_offset 0
 4577 00e6 7047     		bx	lr
 4578              		.cfi_endproc
 4579              	.LFE184:
 4581              		.section	.text.USB_DoPing,"ax",%progbits
 4582              		.align	1
 4583              		.global	USB_DoPing
 4584              		.syntax unified
 4585              		.thumb
 4586              		.thumb_func
 4587              		.fpu fpv5-d16
 4589              	USB_DoPing:
 4590              	.LVL357:
 4591              	.LFB185:
2088:Drivers/STM32F7xx_HAL_Driver/Src/stm32f7xx_ll_usb.c **** 
2089:Drivers/STM32F7xx_HAL_Driver/Src/stm32f7xx_ll_usb.c **** /**
2090:Drivers/STM32F7xx_HAL_Driver/Src/stm32f7xx_ll_usb.c ****   * @brief  Initiate Do Ping protocol
2091:Drivers/STM32F7xx_HAL_Driver/Src/stm32f7xx_ll_usb.c ****   * @param  USBx  Selected device
2092:Drivers/STM32F7xx_HAL_Driver/Src/stm32f7xx_ll_usb.c ****   * @param  hc_num  Host Channel number
2093:Drivers/STM32F7xx_HAL_Driver/Src/stm32f7xx_ll_usb.c ****   *         This parameter can be a value from 1 to 15
2094:Drivers/STM32F7xx_HAL_Driver/Src/stm32f7xx_ll_usb.c ****   * @retval HAL state
2095:Drivers/STM32F7xx_HAL_Driver/Src/stm32f7xx_ll_usb.c ****   */
2096:Drivers/STM32F7xx_HAL_Driver/Src/stm32f7xx_ll_usb.c **** HAL_StatusTypeDef USB_DoPing(USB_OTG_GlobalTypeDef *USBx, uint8_t ch_num)
2097:Drivers/STM32F7xx_HAL_Driver/Src/stm32f7xx_ll_usb.c **** {
 4592              		.loc 1 2097 1 is_stmt 1 view -0
 4593              		.cfi_startproc
 4594              		@ args = 0, pretend = 0, frame = 0
 4595              		@ frame_needed = 0, uses_anonymous_args = 0
 4596              		@ link register save eliminated.
2098:Drivers/STM32F7xx_HAL_Driver/Src/stm32f7xx_ll_usb.c ****   uint32_t USBx_BASE = (uint32_t)USBx;
 4597              		.loc 1 2098 3 view .LVU1433
2099:Drivers/STM32F7xx_HAL_Driver/Src/stm32f7xx_ll_usb.c ****   uint32_t chnum = (uint32_t)ch_num;
 4598              		.loc 1 2099 3 view .LVU1434
2100:Drivers/STM32F7xx_HAL_Driver/Src/stm32f7xx_ll_usb.c ****   uint32_t num_packets = 1U;
 4599              		.loc 1 2100 3 view .LVU1435
2101:Drivers/STM32F7xx_HAL_Driver/Src/stm32f7xx_ll_usb.c ****   uint32_t tmpreg;
 4600              		.loc 1 2101 3 view .LVU1436
2102:Drivers/STM32F7xx_HAL_Driver/Src/stm32f7xx_ll_usb.c **** 
ARM GAS  /tmp/ccrvI8Gd.s 			page 137


2103:Drivers/STM32F7xx_HAL_Driver/Src/stm32f7xx_ll_usb.c ****   USBx_HC(chnum)->HCTSIZ = ((num_packets << 19) & USB_OTG_HCTSIZ_PKTCNT) |
 4601              		.loc 1 2103 3 view .LVU1437
 4602 0000 00EB4111 		add	r1, r0, r1, lsl #5
 4603              	.LVL358:
 4604              		.loc 1 2103 26 is_stmt 0 view .LVU1438
 4605 0004 064A     		ldr	r2, .L297
 4606 0006 C1F81025 		str	r2, [r1, #1296]
2104:Drivers/STM32F7xx_HAL_Driver/Src/stm32f7xx_ll_usb.c ****                            USB_OTG_HCTSIZ_DOPING;
2105:Drivers/STM32F7xx_HAL_Driver/Src/stm32f7xx_ll_usb.c **** 
2106:Drivers/STM32F7xx_HAL_Driver/Src/stm32f7xx_ll_usb.c ****   /* Set host channel enable */
2107:Drivers/STM32F7xx_HAL_Driver/Src/stm32f7xx_ll_usb.c ****   tmpreg = USBx_HC(chnum)->HCCHAR;
 4607              		.loc 1 2107 3 is_stmt 1 view .LVU1439
 4608              		.loc 1 2107 10 is_stmt 0 view .LVU1440
 4609 000a D1F80035 		ldr	r3, [r1, #1280]
 4610              	.LVL359:
2108:Drivers/STM32F7xx_HAL_Driver/Src/stm32f7xx_ll_usb.c ****   tmpreg &= ~USB_OTG_HCCHAR_CHDIS;
 4611              		.loc 1 2108 3 is_stmt 1 view .LVU1441
 4612              		.loc 1 2108 10 is_stmt 0 view .LVU1442
 4613 000e 23F08043 		bic	r3, r3, #1073741824
 4614              	.LVL360:
2109:Drivers/STM32F7xx_HAL_Driver/Src/stm32f7xx_ll_usb.c ****   tmpreg |= USB_OTG_HCCHAR_CHENA;
 4615              		.loc 1 2109 3 is_stmt 1 view .LVU1443
 4616              		.loc 1 2109 10 is_stmt 0 view .LVU1444
 4617 0012 43F00043 		orr	r3, r3, #-2147483648
 4618              	.LVL361:
2110:Drivers/STM32F7xx_HAL_Driver/Src/stm32f7xx_ll_usb.c ****   USBx_HC(chnum)->HCCHAR = tmpreg;
 4619              		.loc 1 2110 3 is_stmt 1 view .LVU1445
 4620              		.loc 1 2110 26 is_stmt 0 view .LVU1446
 4621 0016 C1F80035 		str	r3, [r1, #1280]
2111:Drivers/STM32F7xx_HAL_Driver/Src/stm32f7xx_ll_usb.c **** 
2112:Drivers/STM32F7xx_HAL_Driver/Src/stm32f7xx_ll_usb.c ****   return HAL_OK;
 4622              		.loc 1 2112 3 is_stmt 1 view .LVU1447
2113:Drivers/STM32F7xx_HAL_Driver/Src/stm32f7xx_ll_usb.c **** }
 4623              		.loc 1 2113 1 is_stmt 0 view .LVU1448
 4624 001a 0020     		movs	r0, #0
 4625              	.LVL362:
 4626              		.loc 1 2113 1 view .LVU1449
 4627 001c 7047     		bx	lr
 4628              	.L298:
 4629 001e 00BF     		.align	2
 4630              	.L297:
 4631 0020 00000880 		.word	-2146959360
 4632              		.cfi_endproc
 4633              	.LFE185:
 4635              		.section	.text.USB_HC_StartXfer,"ax",%progbits
 4636              		.align	1
 4637              		.global	USB_HC_StartXfer
 4638              		.syntax unified
 4639              		.thumb
 4640              		.thumb_func
 4641              		.fpu fpv5-d16
 4643              	USB_HC_StartXfer:
 4644              	.LVL363:
 4645              	.LFB182:
1873:Drivers/STM32F7xx_HAL_Driver/Src/stm32f7xx_ll_usb.c ****   uint32_t USBx_BASE = (uint32_t)USBx;
 4646              		.loc 1 1873 1 is_stmt 1 view -0
 4647              		.cfi_startproc
ARM GAS  /tmp/ccrvI8Gd.s 			page 138


 4648              		@ args = 0, pretend = 0, frame = 8
 4649              		@ frame_needed = 0, uses_anonymous_args = 0
1873:Drivers/STM32F7xx_HAL_Driver/Src/stm32f7xx_ll_usb.c ****   uint32_t USBx_BASE = (uint32_t)USBx;
 4650              		.loc 1 1873 1 is_stmt 0 view .LVU1451
 4651 0000 70B5     		push	{r4, r5, r6, lr}
 4652              	.LCFI69:
 4653              		.cfi_def_cfa_offset 16
 4654              		.cfi_offset 4, -16
 4655              		.cfi_offset 5, -12
 4656              		.cfi_offset 6, -8
 4657              		.cfi_offset 14, -4
 4658 0002 84B0     		sub	sp, sp, #16
 4659              	.LCFI70:
 4660              		.cfi_def_cfa_offset 32
1874:Drivers/STM32F7xx_HAL_Driver/Src/stm32f7xx_ll_usb.c ****   uint32_t ch_num = (uint32_t)hc->ch_num;
 4661              		.loc 1 1874 3 is_stmt 1 view .LVU1452
 4662              	.LVL364:
1875:Drivers/STM32F7xx_HAL_Driver/Src/stm32f7xx_ll_usb.c ****   __IO uint32_t tmpreg;
 4663              		.loc 1 1875 3 view .LVU1453
1875:Drivers/STM32F7xx_HAL_Driver/Src/stm32f7xx_ll_usb.c ****   __IO uint32_t tmpreg;
 4664              		.loc 1 1875 33 is_stmt 0 view .LVU1454
 4665 0004 4B78     		ldrb	r3, [r1, #1]	@ zero_extendqisi2
 4666              	.LVL365:
1876:Drivers/STM32F7xx_HAL_Driver/Src/stm32f7xx_ll_usb.c ****   uint8_t  is_oddframe;
 4667              		.loc 1 1876 3 is_stmt 1 view .LVU1455
1877:Drivers/STM32F7xx_HAL_Driver/Src/stm32f7xx_ll_usb.c ****   uint16_t len_words;
 4668              		.loc 1 1877 3 view .LVU1456
1878:Drivers/STM32F7xx_HAL_Driver/Src/stm32f7xx_ll_usb.c ****   uint16_t num_packets;
 4669              		.loc 1 1878 3 view .LVU1457
1879:Drivers/STM32F7xx_HAL_Driver/Src/stm32f7xx_ll_usb.c ****   uint16_t max_hc_pkt_count = 256U;
 4670              		.loc 1 1879 3 view .LVU1458
1880:Drivers/STM32F7xx_HAL_Driver/Src/stm32f7xx_ll_usb.c **** 
 4671              		.loc 1 1880 3 view .LVU1459
1882:Drivers/STM32F7xx_HAL_Driver/Src/stm32f7xx_ll_usb.c ****   {
 4672              		.loc 1 1882 3 view .LVU1460
1882:Drivers/STM32F7xx_HAL_Driver/Src/stm32f7xx_ll_usb.c ****   {
 4673              		.loc 1 1882 13 is_stmt 0 view .LVU1461
 4674 0006 C46B     		ldr	r4, [r0, #60]
1882:Drivers/STM32F7xx_HAL_Driver/Src/stm32f7xx_ll_usb.c ****   {
 4675              		.loc 1 1882 6 view .LVU1462
 4676 0008 14F4807F 		tst	r4, #256
 4677 000c 07D0     		beq	.L300
1882:Drivers/STM32F7xx_HAL_Driver/Src/stm32f7xx_ll_usb.c ****   {
 4678              		.loc 1 1882 47 discriminator 1 view .LVU1463
 4679 000e 0C79     		ldrb	r4, [r1, #4]	@ zero_extendqisi2
1882:Drivers/STM32F7xx_HAL_Driver/Src/stm32f7xx_ll_usb.c ****   {
 4680              		.loc 1 1882 41 discriminator 1 view .LVU1464
 4681 0010 2CB9     		cbnz	r4, .L300
1885:Drivers/STM32F7xx_HAL_Driver/Src/stm32f7xx_ll_usb.c ****     {
 4682              		.loc 1 1885 5 is_stmt 1 view .LVU1465
1885:Drivers/STM32F7xx_HAL_Driver/Src/stm32f7xx_ll_usb.c ****     {
 4683              		.loc 1 1885 8 is_stmt 0 view .LVU1466
 4684 0012 012A     		cmp	r2, #1
 4685 0014 11D0     		beq	.L316
 4686              	.L301:
1892:Drivers/STM32F7xx_HAL_Driver/Src/stm32f7xx_ll_usb.c ****     {
 4687              		.loc 1 1892 5 is_stmt 1 view .LVU1467
ARM GAS  /tmp/ccrvI8Gd.s 			page 139


1892:Drivers/STM32F7xx_HAL_Driver/Src/stm32f7xx_ll_usb.c ****     {
 4688              		.loc 1 1892 8 is_stmt 0 view .LVU1468
 4689 0016 12B9     		cbnz	r2, .L300
1892:Drivers/STM32F7xx_HAL_Driver/Src/stm32f7xx_ll_usb.c ****     {
 4690              		.loc 1 1892 27 discriminator 1 view .LVU1469
 4691 0018 4C79     		ldrb	r4, [r1, #5]	@ zero_extendqisi2
1892:Drivers/STM32F7xx_HAL_Driver/Src/stm32f7xx_ll_usb.c ****     {
 4692              		.loc 1 1892 21 discriminator 1 view .LVU1470
 4693 001a 012C     		cmp	r4, #1
 4694 001c 20D0     		beq	.L317
 4695              	.L300:
1901:Drivers/STM32F7xx_HAL_Driver/Src/stm32f7xx_ll_usb.c ****   {
 4696              		.loc 1 1901 3 is_stmt 1 view .LVU1471
1901:Drivers/STM32F7xx_HAL_Driver/Src/stm32f7xx_ll_usb.c ****   {
 4697              		.loc 1 1901 9 is_stmt 0 view .LVU1472
 4698 001e 4E69     		ldr	r6, [r1, #20]
1901:Drivers/STM32F7xx_HAL_Driver/Src/stm32f7xx_ll_usb.c ****   {
 4699              		.loc 1 1901 6 view .LVU1473
 4700 0020 16B3     		cbz	r6, .L313
1903:Drivers/STM32F7xx_HAL_Driver/Src/stm32f7xx_ll_usb.c **** 
 4701              		.loc 1 1903 5 is_stmt 1 view .LVU1474
1903:Drivers/STM32F7xx_HAL_Driver/Src/stm32f7xx_ll_usb.c **** 
 4702              		.loc 1 1903 48 is_stmt 0 view .LVU1475
 4703 0022 0C89     		ldrh	r4, [r1, #8]
1903:Drivers/STM32F7xx_HAL_Driver/Src/stm32f7xx_ll_usb.c **** 
 4704              		.loc 1 1903 44 view .LVU1476
 4705 0024 3519     		adds	r5, r6, r4
1903:Drivers/STM32F7xx_HAL_Driver/Src/stm32f7xx_ll_usb.c **** 
 4706              		.loc 1 1903 61 view .LVU1477
 4707 0026 013D     		subs	r5, r5, #1
1903:Drivers/STM32F7xx_HAL_Driver/Src/stm32f7xx_ll_usb.c **** 
 4708              		.loc 1 1903 67 view .LVU1478
 4709 0028 B5FBF4F5 		udiv	r5, r5, r4
1903:Drivers/STM32F7xx_HAL_Driver/Src/stm32f7xx_ll_usb.c **** 
 4710              		.loc 1 1903 17 view .LVU1479
 4711 002c ADB2     		uxth	r5, r5
 4712              	.LVL366:
1905:Drivers/STM32F7xx_HAL_Driver/Src/stm32f7xx_ll_usb.c ****     {
 4713              		.loc 1 1905 5 is_stmt 1 view .LVU1480
1905:Drivers/STM32F7xx_HAL_Driver/Src/stm32f7xx_ll_usb.c ****     {
 4714              		.loc 1 1905 8 is_stmt 0 view .LVU1481
 4715 002e B5F5807F 		cmp	r5, #256
 4716 0032 1AD9     		bls	.L303
1907:Drivers/STM32F7xx_HAL_Driver/Src/stm32f7xx_ll_usb.c ****       hc->XferSize = (uint32_t)num_packets * hc->max_packet;
 4717              		.loc 1 1907 19 view .LVU1482
 4718 0034 4FF48075 		mov	r5, #256
 4719              	.LVL367:
1907:Drivers/STM32F7xx_HAL_Driver/Src/stm32f7xx_ll_usb.c ****       hc->XferSize = (uint32_t)num_packets * hc->max_packet;
 4720              		.loc 1 1907 19 view .LVU1483
 4721 0038 17E0     		b	.L303
 4722              	.LVL368:
 4723              	.L316:
1885:Drivers/STM32F7xx_HAL_Driver/Src/stm32f7xx_ll_usb.c ****     {
 4724              		.loc 1 1885 28 discriminator 1 view .LVU1484
 4725 003a CD79     		ldrb	r5, [r1, #7]	@ zero_extendqisi2
1885:Drivers/STM32F7xx_HAL_Driver/Src/stm32f7xx_ll_usb.c ****     {
 4726              		.loc 1 1885 55 discriminator 1 view .LVU1485
ARM GAS  /tmp/ccrvI8Gd.s 			page 140


 4727 003c 022D     		cmp	r5, #2
 4728 003e 14BF     		ite	ne
 4729 0040 0024     		movne	r4, #0
 4730 0042 0124     		moveq	r4, #1
 4731 0044 002D     		cmp	r5, #0
 4732 0046 08BF     		it	eq
 4733 0048 0124     		moveq	r4, #1
1885:Drivers/STM32F7xx_HAL_Driver/Src/stm32f7xx_ll_usb.c ****     {
 4734              		.loc 1 1885 21 discriminator 1 view .LVU1486
 4735 004a 002C     		cmp	r4, #0
 4736 004c E3D0     		beq	.L301
1887:Drivers/STM32F7xx_HAL_Driver/Src/stm32f7xx_ll_usb.c ****                                                USB_OTG_HCINTMSK_ACKM |
 4737              		.loc 1 1887 7 is_stmt 1 view .LVU1487
1887:Drivers/STM32F7xx_HAL_Driver/Src/stm32f7xx_ll_usb.c ****                                                USB_OTG_HCINTMSK_ACKM |
 4738              		.loc 1 1887 43 is_stmt 0 view .LVU1488
 4739 004e 00EB4314 		add	r4, r0, r3, lsl #5
 4740 0052 D4F80C55 		ldr	r5, [r4, #1292]
 4741 0056 25F07005 		bic	r5, r5, #112
 4742 005a C4F80C55 		str	r5, [r4, #1292]
 4743 005e DAE7     		b	.L301
 4744              	.L317:
1894:Drivers/STM32F7xx_HAL_Driver/Src/stm32f7xx_ll_usb.c ****       return HAL_OK;
 4745              		.loc 1 1894 7 is_stmt 1 view .LVU1489
1894:Drivers/STM32F7xx_HAL_Driver/Src/stm32f7xx_ll_usb.c ****       return HAL_OK;
 4746              		.loc 1 1894 13 is_stmt 0 view .LVU1490
 4747 0060 4978     		ldrb	r1, [r1, #1]	@ zero_extendqisi2
 4748              	.LVL369:
1894:Drivers/STM32F7xx_HAL_Driver/Src/stm32f7xx_ll_usb.c ****       return HAL_OK;
 4749              		.loc 1 1894 13 view .LVU1491
 4750 0062 FFF7FEFF 		bl	USB_DoPing
 4751              	.LVL370:
1895:Drivers/STM32F7xx_HAL_Driver/Src/stm32f7xx_ll_usb.c ****     }
 4752              		.loc 1 1895 7 is_stmt 1 view .LVU1492
1895:Drivers/STM32F7xx_HAL_Driver/Src/stm32f7xx_ll_usb.c ****     }
 4753              		.loc 1 1895 14 is_stmt 0 view .LVU1493
 4754 0066 6AE0     		b	.L302
 4755              	.LVL371:
 4756              	.L313:
1913:Drivers/STM32F7xx_HAL_Driver/Src/stm32f7xx_ll_usb.c ****   }
 4757              		.loc 1 1913 17 view .LVU1494
 4758 0068 0125     		movs	r5, #1
 4759              	.L303:
 4760              	.LVL372:
1920:Drivers/STM32F7xx_HAL_Driver/Src/stm32f7xx_ll_usb.c ****   {
 4761              		.loc 1 1920 3 is_stmt 1 view .LVU1495
1920:Drivers/STM32F7xx_HAL_Driver/Src/stm32f7xx_ll_usb.c ****   {
 4762              		.loc 1 1920 9 is_stmt 0 view .LVU1496
 4763 006a CC78     		ldrb	r4, [r1, #3]	@ zero_extendqisi2
1920:Drivers/STM32F7xx_HAL_Driver/Src/stm32f7xx_ll_usb.c ****   {
 4764              		.loc 1 1920 6 view .LVU1497
 4765 006c 002C     		cmp	r4, #0
 4766 006e 4DD0     		beq	.L304
1922:Drivers/STM32F7xx_HAL_Driver/Src/stm32f7xx_ll_usb.c ****   }
 4767              		.loc 1 1922 5 is_stmt 1 view .LVU1498
1922:Drivers/STM32F7xx_HAL_Driver/Src/stm32f7xx_ll_usb.c ****   }
 4768              		.loc 1 1922 46 is_stmt 0 view .LVU1499
 4769 0070 0C89     		ldrh	r4, [r1, #8]
ARM GAS  /tmp/ccrvI8Gd.s 			page 141


1922:Drivers/STM32F7xx_HAL_Driver/Src/stm32f7xx_ll_usb.c ****   }
 4770              		.loc 1 1922 42 view .LVU1500
 4771 0072 04FB05F4 		mul	r4, r4, r5
1922:Drivers/STM32F7xx_HAL_Driver/Src/stm32f7xx_ll_usb.c ****   }
 4772              		.loc 1 1922 18 view .LVU1501
 4773 0076 0C61     		str	r4, [r1, #16]
 4774              	.L305:
1930:Drivers/STM32F7xx_HAL_Driver/Src/stm32f7xx_ll_usb.c ****                             (((uint32_t)num_packets << 19) & USB_OTG_HCTSIZ_PKTCNT) |
 4775              		.loc 1 1930 3 is_stmt 1 view .LVU1502
1930:Drivers/STM32F7xx_HAL_Driver/Src/stm32f7xx_ll_usb.c ****                             (((uint32_t)num_packets << 19) & USB_OTG_HCTSIZ_PKTCNT) |
 4776              		.loc 1 1930 32 is_stmt 0 view .LVU1503
 4777 0078 0C69     		ldr	r4, [r1, #16]
1930:Drivers/STM32F7xx_HAL_Driver/Src/stm32f7xx_ll_usb.c ****                             (((uint32_t)num_packets << 19) & USB_OTG_HCTSIZ_PKTCNT) |
 4778              		.loc 1 1930 43 view .LVU1504
 4779 007a C4F31204 		ubfx	r4, r4, #0, #19
1931:Drivers/STM32F7xx_HAL_Driver/Src/stm32f7xx_ll_usb.c ****                             (((uint32_t)hc->data_pid << 29) & USB_OTG_HCTSIZ_DPID);
 4780              		.loc 1 1931 60 view .LVU1505
 4781 007e 374E     		ldr	r6, .L318
 4782 0080 06EAC545 		and	r5, r6, r5, lsl #19
 4783              	.LVL373:
1930:Drivers/STM32F7xx_HAL_Driver/Src/stm32f7xx_ll_usb.c ****                             (((uint32_t)num_packets << 19) & USB_OTG_HCTSIZ_PKTCNT) |
 4784              		.loc 1 1930 68 view .LVU1506
 4785 0084 2C43     		orrs	r4, r4, r5
1932:Drivers/STM32F7xx_HAL_Driver/Src/stm32f7xx_ll_usb.c **** 
 4786              		.loc 1 1932 43 view .LVU1507
 4787 0086 8D7A     		ldrb	r5, [r1, #10]	@ zero_extendqisi2
1932:Drivers/STM32F7xx_HAL_Driver/Src/stm32f7xx_ll_usb.c **** 
 4788              		.loc 1 1932 54 view .LVU1508
 4789 0088 6D07     		lsls	r5, r5, #29
1932:Drivers/STM32F7xx_HAL_Driver/Src/stm32f7xx_ll_usb.c **** 
 4790              		.loc 1 1932 61 view .LVU1509
 4791 008a 05F0C045 		and	r5, r5, #1610612736
1930:Drivers/STM32F7xx_HAL_Driver/Src/stm32f7xx_ll_usb.c ****                             (((uint32_t)num_packets << 19) & USB_OTG_HCTSIZ_PKTCNT) |
 4792              		.loc 1 1930 3 view .LVU1510
 4793 008e 00EB4313 		add	r3, r0, r3, lsl #5
 4794              	.LVL374:
1930:Drivers/STM32F7xx_HAL_Driver/Src/stm32f7xx_ll_usb.c ****                             (((uint32_t)num_packets << 19) & USB_OTG_HCTSIZ_PKTCNT) |
 4795              		.loc 1 1930 3 view .LVU1511
 4796 0092 03F5A066 		add	r6, r3, #1280
1931:Drivers/STM32F7xx_HAL_Driver/Src/stm32f7xx_ll_usb.c ****                             (((uint32_t)hc->data_pid << 29) & USB_OTG_HCTSIZ_DPID);
 4797              		.loc 1 1931 85 view .LVU1512
 4798 0096 2C43     		orrs	r4, r4, r5
1930:Drivers/STM32F7xx_HAL_Driver/Src/stm32f7xx_ll_usb.c ****                             (((uint32_t)num_packets << 19) & USB_OTG_HCTSIZ_PKTCNT) |
 4799              		.loc 1 1930 27 view .LVU1513
 4800 0098 C3F81045 		str	r4, [r3, #1296]
1934:Drivers/STM32F7xx_HAL_Driver/Src/stm32f7xx_ll_usb.c ****   {
 4801              		.loc 1 1934 3 is_stmt 1 view .LVU1514
1934:Drivers/STM32F7xx_HAL_Driver/Src/stm32f7xx_ll_usb.c ****   {
 4802              		.loc 1 1934 6 is_stmt 0 view .LVU1515
 4803 009c 12B1     		cbz	r2, .L306
1937:Drivers/STM32F7xx_HAL_Driver/Src/stm32f7xx_ll_usb.c ****   }
 4804              		.loc 1 1937 5 is_stmt 1 view .LVU1516
1937:Drivers/STM32F7xx_HAL_Driver/Src/stm32f7xx_ll_usb.c ****   }
 4805              		.loc 1 1937 42 is_stmt 0 view .LVU1517
 4806 009e CC68     		ldr	r4, [r1, #12]
1937:Drivers/STM32F7xx_HAL_Driver/Src/stm32f7xx_ll_usb.c ****   }
 4807              		.loc 1 1937 28 view .LVU1518
ARM GAS  /tmp/ccrvI8Gd.s 			page 142


 4808 00a0 C3F81445 		str	r4, [r3, #1300]
 4809              	.L306:
1940:Drivers/STM32F7xx_HAL_Driver/Src/stm32f7xx_ll_usb.c ****   USBx_HC(ch_num)->HCCHAR &= ~USB_OTG_HCCHAR_ODDFRM;
 4810              		.loc 1 1940 3 is_stmt 1 view .LVU1519
1940:Drivers/STM32F7xx_HAL_Driver/Src/stm32f7xx_ll_usb.c ****   USBx_HC(ch_num)->HCCHAR &= ~USB_OTG_HCCHAR_ODDFRM;
 4811              		.loc 1 1940 29 is_stmt 0 view .LVU1520
 4812 00a4 00F58065 		add	r5, r0, #1024
1940:Drivers/STM32F7xx_HAL_Driver/Src/stm32f7xx_ll_usb.c ****   USBx_HC(ch_num)->HCCHAR &= ~USB_OTG_HCCHAR_ODDFRM;
 4813              		.loc 1 1940 38 view .LVU1521
 4814 00a8 AC68     		ldr	r4, [r5, #8]
1940:Drivers/STM32F7xx_HAL_Driver/Src/stm32f7xx_ll_usb.c ****   USBx_HC(ch_num)->HCCHAR &= ~USB_OTG_HCCHAR_ODDFRM;
 4815              		.loc 1 1940 67 view .LVU1522
 4816 00aa 14F0010F 		tst	r4, #1
 4817              	.LVL375:
1941:Drivers/STM32F7xx_HAL_Driver/Src/stm32f7xx_ll_usb.c ****   USBx_HC(ch_num)->HCCHAR |= (uint32_t)is_oddframe << 29;
 4818              		.loc 1 1941 3 is_stmt 1 view .LVU1523
1941:Drivers/STM32F7xx_HAL_Driver/Src/stm32f7xx_ll_usb.c ****   USBx_HC(ch_num)->HCCHAR |= (uint32_t)is_oddframe << 29;
 4819              		.loc 1 1941 27 is_stmt 0 view .LVU1524
 4820 00ae D3F80045 		ldr	r4, [r3, #1280]
 4821 00b2 24F00054 		bic	r4, r4, #536870912
 4822 00b6 C3F80045 		str	r4, [r3, #1280]
1942:Drivers/STM32F7xx_HAL_Driver/Src/stm32f7xx_ll_usb.c **** 
 4823              		.loc 1 1942 3 is_stmt 1 view .LVU1525
1942:Drivers/STM32F7xx_HAL_Driver/Src/stm32f7xx_ll_usb.c **** 
 4824              		.loc 1 1942 27 is_stmt 0 view .LVU1526
 4825 00ba D3F80045 		ldr	r4, [r3, #1280]
1942:Drivers/STM32F7xx_HAL_Driver/Src/stm32f7xx_ll_usb.c **** 
 4826              		.loc 1 1942 52 view .LVU1527
 4827 00be 0CBF     		ite	eq
 4828 00c0 4FF00056 		moveq	r6, #536870912
 4829 00c4 0026     		movne	r6, #0
1942:Drivers/STM32F7xx_HAL_Driver/Src/stm32f7xx_ll_usb.c **** 
 4830              		.loc 1 1942 27 view .LVU1528
 4831 00c6 3443     		orrs	r4, r4, r6
 4832 00c8 C3F80045 		str	r4, [r3, #1280]
1945:Drivers/STM32F7xx_HAL_Driver/Src/stm32f7xx_ll_usb.c ****   tmpreg &= ~USB_OTG_HCCHAR_CHDIS;
 4833              		.loc 1 1945 3 is_stmt 1 view .LVU1529
1945:Drivers/STM32F7xx_HAL_Driver/Src/stm32f7xx_ll_usb.c ****   tmpreg &= ~USB_OTG_HCCHAR_CHDIS;
 4834              		.loc 1 1945 27 is_stmt 0 view .LVU1530
 4835 00cc D3F80045 		ldr	r4, [r3, #1280]
1945:Drivers/STM32F7xx_HAL_Driver/Src/stm32f7xx_ll_usb.c ****   tmpreg &= ~USB_OTG_HCCHAR_CHDIS;
 4836              		.loc 1 1945 10 view .LVU1531
 4837 00d0 0394     		str	r4, [sp, #12]
1946:Drivers/STM32F7xx_HAL_Driver/Src/stm32f7xx_ll_usb.c **** 
 4838              		.loc 1 1946 3 is_stmt 1 view .LVU1532
1946:Drivers/STM32F7xx_HAL_Driver/Src/stm32f7xx_ll_usb.c **** 
 4839              		.loc 1 1946 10 is_stmt 0 view .LVU1533
 4840 00d2 039C     		ldr	r4, [sp, #12]
 4841 00d4 24F08044 		bic	r4, r4, #1073741824
 4842 00d8 0394     		str	r4, [sp, #12]
1949:Drivers/STM32F7xx_HAL_Driver/Src/stm32f7xx_ll_usb.c ****   {
 4843              		.loc 1 1949 3 is_stmt 1 view .LVU1534
1949:Drivers/STM32F7xx_HAL_Driver/Src/stm32f7xx_ll_usb.c ****   {
 4844              		.loc 1 1949 9 is_stmt 0 view .LVU1535
 4845 00da CC78     		ldrb	r4, [r1, #3]	@ zero_extendqisi2
1949:Drivers/STM32F7xx_HAL_Driver/Src/stm32f7xx_ll_usb.c ****   {
 4846              		.loc 1 1949 6 view .LVU1536
ARM GAS  /tmp/ccrvI8Gd.s 			page 143


 4847 00dc C4B1     		cbz	r4, .L307
 4848              	.LVL376:
1951:Drivers/STM32F7xx_HAL_Driver/Src/stm32f7xx_ll_usb.c ****   }
 4849              		.loc 1 1951 5 is_stmt 1 view .LVU1537
1951:Drivers/STM32F7xx_HAL_Driver/Src/stm32f7xx_ll_usb.c ****   }
 4850              		.loc 1 1951 12 is_stmt 0 view .LVU1538
 4851 00de 039C     		ldr	r4, [sp, #12]
 4852 00e0 44F40044 		orr	r4, r4, #32768
 4853 00e4 0394     		str	r4, [sp, #12]
 4854              	.L308:
1957:Drivers/STM32F7xx_HAL_Driver/Src/stm32f7xx_ll_usb.c ****   USBx_HC(ch_num)->HCCHAR = tmpreg;
 4855              		.loc 1 1957 3 is_stmt 1 view .LVU1539
1957:Drivers/STM32F7xx_HAL_Driver/Src/stm32f7xx_ll_usb.c ****   USBx_HC(ch_num)->HCCHAR = tmpreg;
 4856              		.loc 1 1957 10 is_stmt 0 view .LVU1540
 4857 00e6 039C     		ldr	r4, [sp, #12]
 4858 00e8 44F00044 		orr	r4, r4, #-2147483648
 4859 00ec 0394     		str	r4, [sp, #12]
1958:Drivers/STM32F7xx_HAL_Driver/Src/stm32f7xx_ll_usb.c **** 
 4860              		.loc 1 1958 3 is_stmt 1 view .LVU1541
1958:Drivers/STM32F7xx_HAL_Driver/Src/stm32f7xx_ll_usb.c **** 
 4861              		.loc 1 1958 27 is_stmt 0 view .LVU1542
 4862 00ee 039C     		ldr	r4, [sp, #12]
 4863 00f0 C3F80045 		str	r4, [r3, #1280]
1960:Drivers/STM32F7xx_HAL_Driver/Src/stm32f7xx_ll_usb.c ****   {
 4864              		.loc 1 1960 3 is_stmt 1 view .LVU1543
1960:Drivers/STM32F7xx_HAL_Driver/Src/stm32f7xx_ll_usb.c ****   {
 4865              		.loc 1 1960 6 is_stmt 0 view .LVU1544
 4866 00f4 1ABB     		cbnz	r2, .L302
1965:Drivers/STM32F7xx_HAL_Driver/Src/stm32f7xx_ll_usb.c ****   {
 4867              		.loc 1 1965 3 is_stmt 1 view .LVU1545
1965:Drivers/STM32F7xx_HAL_Driver/Src/stm32f7xx_ll_usb.c ****   {
 4868              		.loc 1 1965 10 is_stmt 0 view .LVU1546
 4869 00f6 CB78     		ldrb	r3, [r1, #3]	@ zero_extendqisi2
1965:Drivers/STM32F7xx_HAL_Driver/Src/stm32f7xx_ll_usb.c ****   {
 4870              		.loc 1 1965 6 view .LVU1547
 4871 00f8 0BBB     		cbnz	r3, .L302
1965:Drivers/STM32F7xx_HAL_Driver/Src/stm32f7xx_ll_usb.c ****   {
 4872              		.loc 1 1965 34 discriminator 1 view .LVU1548
 4873 00fa 4B69     		ldr	r3, [r1, #20]
1965:Drivers/STM32F7xx_HAL_Driver/Src/stm32f7xx_ll_usb.c ****   {
 4874              		.loc 1 1965 28 discriminator 1 view .LVU1549
 4875 00fc FBB1     		cbz	r3, .L302
1967:Drivers/STM32F7xx_HAL_Driver/Src/stm32f7xx_ll_usb.c ****     {
 4876              		.loc 1 1967 5 is_stmt 1 view .LVU1550
1967:Drivers/STM32F7xx_HAL_Driver/Src/stm32f7xx_ll_usb.c ****     {
 4877              		.loc 1 1967 15 is_stmt 0 view .LVU1551
 4878 00fe CA79     		ldrb	r2, [r1, #7]	@ zero_extendqisi2
 4879              	.LVL377:
1967:Drivers/STM32F7xx_HAL_Driver/Src/stm32f7xx_ll_usb.c ****     {
 4880              		.loc 1 1967 15 view .LVU1552
 4881 0100 032A     		cmp	r2, #3
 4882 0102 15D8     		bhi	.L309
 4883 0104 DFE802F0 		tbb	[pc, r2]
 4884              	.L311:
 4885 0108 09       		.byte	(.L312-.L311)/2
 4886 0109 1E       		.byte	(.L310-.L311)/2
 4887 010a 09       		.byte	(.L312-.L311)/2
ARM GAS  /tmp/ccrvI8Gd.s 			page 144


 4888 010b 1E       		.byte	(.L310-.L311)/2
 4889              	.LVL378:
 4890              		.p2align 1
 4891              	.L304:
1926:Drivers/STM32F7xx_HAL_Driver/Src/stm32f7xx_ll_usb.c ****   }
 4892              		.loc 1 1926 5 is_stmt 1 view .LVU1553
1926:Drivers/STM32F7xx_HAL_Driver/Src/stm32f7xx_ll_usb.c ****   }
 4893              		.loc 1 1926 18 is_stmt 0 view .LVU1554
 4894 010c 0E61     		str	r6, [r1, #16]
 4895 010e B3E7     		b	.L305
 4896              	.LVL379:
 4897              	.L307:
1955:Drivers/STM32F7xx_HAL_Driver/Src/stm32f7xx_ll_usb.c ****   }
 4898              		.loc 1 1955 5 is_stmt 1 view .LVU1555
1955:Drivers/STM32F7xx_HAL_Driver/Src/stm32f7xx_ll_usb.c ****   }
 4899              		.loc 1 1955 12 is_stmt 0 view .LVU1556
 4900 0110 039C     		ldr	r4, [sp, #12]
 4901 0112 24F40044 		bic	r4, r4, #32768
 4902 0116 0394     		str	r4, [sp, #12]
 4903 0118 E5E7     		b	.L308
 4904              	.LVL380:
 4905              	.L312:
1973:Drivers/STM32F7xx_HAL_Driver/Src/stm32f7xx_ll_usb.c **** 
 4906              		.loc 1 1973 9 is_stmt 1 view .LVU1557
1973:Drivers/STM32F7xx_HAL_Driver/Src/stm32f7xx_ll_usb.c **** 
 4907              		.loc 1 1973 46 is_stmt 0 view .LVU1558
 4908 011a 0333     		adds	r3, r3, #3
 4909              	.LVL381:
1976:Drivers/STM32F7xx_HAL_Driver/Src/stm32f7xx_ll_usb.c ****         {
 4910              		.loc 1 1976 9 is_stmt 1 view .LVU1559
1976:Drivers/STM32F7xx_HAL_Driver/Src/stm32f7xx_ll_usb.c ****         {
 4911              		.loc 1 1976 30 is_stmt 0 view .LVU1560
 4912 011c C26A     		ldr	r2, [r0, #44]
1976:Drivers/STM32F7xx_HAL_Driver/Src/stm32f7xx_ll_usb.c ****         {
 4913              		.loc 1 1976 41 view .LVU1561
 4914 011e 92B2     		uxth	r2, r2
1976:Drivers/STM32F7xx_HAL_Driver/Src/stm32f7xx_ll_usb.c ****         {
 4915              		.loc 1 1976 12 view .LVU1562
 4916 0120 C3F38F03 		ubfx	r3, r3, #2, #16
 4917              	.LVL382:
1976:Drivers/STM32F7xx_HAL_Driver/Src/stm32f7xx_ll_usb.c ****         {
 4918              		.loc 1 1976 12 view .LVU1563
 4919 0124 9A42     		cmp	r2, r3
 4920 0126 03D2     		bcs	.L309
1979:Drivers/STM32F7xx_HAL_Driver/Src/stm32f7xx_ll_usb.c ****         }
 4921              		.loc 1 1979 11 is_stmt 1 view .LVU1564
1979:Drivers/STM32F7xx_HAL_Driver/Src/stm32f7xx_ll_usb.c ****         }
 4922              		.loc 1 1979 25 is_stmt 0 view .LVU1565
 4923 0128 8369     		ldr	r3, [r0, #24]
 4924 012a 43F02003 		orr	r3, r3, #32
 4925 012e 8361     		str	r3, [r0, #24]
 4926              	.LVL383:
 4927              	.L309:
2000:Drivers/STM32F7xx_HAL_Driver/Src/stm32f7xx_ll_usb.c ****   }
 4928              		.loc 1 2000 5 is_stmt 1 view .LVU1566
2000:Drivers/STM32F7xx_HAL_Driver/Src/stm32f7xx_ll_usb.c ****   }
 4929              		.loc 1 2000 11 is_stmt 0 view .LVU1567
ARM GAS  /tmp/ccrvI8Gd.s 			page 145


 4930 0130 0023     		movs	r3, #0
 4931 0132 0093     		str	r3, [sp]
 4932 0134 8B8A     		ldrh	r3, [r1, #20]
 4933 0136 4A78     		ldrb	r2, [r1, #1]	@ zero_extendqisi2
 4934 0138 C968     		ldr	r1, [r1, #12]
 4935              	.LVL384:
2000:Drivers/STM32F7xx_HAL_Driver/Src/stm32f7xx_ll_usb.c ****   }
 4936              		.loc 1 2000 11 view .LVU1568
 4937 013a FFF7FEFF 		bl	USB_WritePacket
 4938              	.LVL385:
 4939              	.L302:
2004:Drivers/STM32F7xx_HAL_Driver/Src/stm32f7xx_ll_usb.c **** 
 4940              		.loc 1 2004 1 view .LVU1569
 4941 013e 0020     		movs	r0, #0
 4942 0140 04B0     		add	sp, sp, #16
 4943              	.LCFI71:
 4944              		.cfi_remember_state
 4945              		.cfi_def_cfa_offset 16
 4946              		@ sp needed
 4947 0142 70BD     		pop	{r4, r5, r6, pc}
 4948              	.LVL386:
 4949              	.L310:
 4950              	.LCFI72:
 4951              		.cfi_restore_state
1986:Drivers/STM32F7xx_HAL_Driver/Src/stm32f7xx_ll_usb.c ****         /* check if there is enough space in FIFO space */
 4952              		.loc 1 1986 9 is_stmt 1 view .LVU1570
1986:Drivers/STM32F7xx_HAL_Driver/Src/stm32f7xx_ll_usb.c ****         /* check if there is enough space in FIFO space */
 4953              		.loc 1 1986 46 is_stmt 0 view .LVU1571
 4954 0144 0333     		adds	r3, r3, #3
 4955              	.LVL387:
1988:Drivers/STM32F7xx_HAL_Driver/Src/stm32f7xx_ll_usb.c ****         {
 4956              		.loc 1 1988 9 is_stmt 1 view .LVU1572
1988:Drivers/STM32F7xx_HAL_Driver/Src/stm32f7xx_ll_usb.c ****         {
 4957              		.loc 1 1988 35 is_stmt 0 view .LVU1573
 4958 0146 2A69     		ldr	r2, [r5, #16]
1988:Drivers/STM32F7xx_HAL_Driver/Src/stm32f7xx_ll_usb.c ****         {
 4959              		.loc 1 1988 45 view .LVU1574
 4960 0148 92B2     		uxth	r2, r2
1988:Drivers/STM32F7xx_HAL_Driver/Src/stm32f7xx_ll_usb.c ****         {
 4961              		.loc 1 1988 12 view .LVU1575
 4962 014a C3F38F03 		ubfx	r3, r3, #2, #16
 4963              	.LVL388:
1988:Drivers/STM32F7xx_HAL_Driver/Src/stm32f7xx_ll_usb.c ****         {
 4964              		.loc 1 1988 12 view .LVU1576
 4965 014e 9A42     		cmp	r2, r3
 4966 0150 EED2     		bcs	.L309
1991:Drivers/STM32F7xx_HAL_Driver/Src/stm32f7xx_ll_usb.c ****         }
 4967              		.loc 1 1991 11 is_stmt 1 view .LVU1577
1991:Drivers/STM32F7xx_HAL_Driver/Src/stm32f7xx_ll_usb.c ****         }
 4968              		.loc 1 1991 25 is_stmt 0 view .LVU1578
 4969 0152 8369     		ldr	r3, [r0, #24]
 4970 0154 43F08063 		orr	r3, r3, #67108864
 4971 0158 8361     		str	r3, [r0, #24]
 4972              	.LVL389:
1991:Drivers/STM32F7xx_HAL_Driver/Src/stm32f7xx_ll_usb.c ****         }
 4973              		.loc 1 1991 25 view .LVU1579
 4974 015a E9E7     		b	.L309
ARM GAS  /tmp/ccrvI8Gd.s 			page 146


 4975              	.L319:
 4976              		.align	2
 4977              	.L318:
 4978 015c 0000F81F 		.word	536346624
 4979              		.cfi_endproc
 4980              	.LFE182:
 4982              		.section	.text.USB_StopHost,"ax",%progbits
 4983              		.align	1
 4984              		.global	USB_StopHost
 4985              		.syntax unified
 4986              		.thumb
 4987              		.thumb_func
 4988              		.fpu fpv5-d16
 4990              	USB_StopHost:
 4991              	.LVL390:
 4992              	.LFB186:
2114:Drivers/STM32F7xx_HAL_Driver/Src/stm32f7xx_ll_usb.c **** 
2115:Drivers/STM32F7xx_HAL_Driver/Src/stm32f7xx_ll_usb.c **** /**
2116:Drivers/STM32F7xx_HAL_Driver/Src/stm32f7xx_ll_usb.c ****   * @brief  Stop Host Core
2117:Drivers/STM32F7xx_HAL_Driver/Src/stm32f7xx_ll_usb.c ****   * @param  USBx  Selected device
2118:Drivers/STM32F7xx_HAL_Driver/Src/stm32f7xx_ll_usb.c ****   * @retval HAL state
2119:Drivers/STM32F7xx_HAL_Driver/Src/stm32f7xx_ll_usb.c ****   */
2120:Drivers/STM32F7xx_HAL_Driver/Src/stm32f7xx_ll_usb.c **** HAL_StatusTypeDef USB_StopHost(USB_OTG_GlobalTypeDef *USBx)
2121:Drivers/STM32F7xx_HAL_Driver/Src/stm32f7xx_ll_usb.c **** {
 4993              		.loc 1 2121 1 is_stmt 1 view -0
 4994              		.cfi_startproc
 4995              		@ args = 0, pretend = 0, frame = 8
 4996              		@ frame_needed = 0, uses_anonymous_args = 0
 4997              		.loc 1 2121 1 is_stmt 0 view .LVU1581
 4998 0000 70B5     		push	{r4, r5, r6, lr}
 4999              	.LCFI73:
 5000              		.cfi_def_cfa_offset 16
 5001              		.cfi_offset 4, -16
 5002              		.cfi_offset 5, -12
 5003              		.cfi_offset 6, -8
 5004              		.cfi_offset 14, -4
 5005 0002 82B0     		sub	sp, sp, #8
 5006              	.LCFI74:
 5007              		.cfi_def_cfa_offset 24
 5008 0004 0546     		mov	r5, r0
2122:Drivers/STM32F7xx_HAL_Driver/Src/stm32f7xx_ll_usb.c ****   HAL_StatusTypeDef ret = HAL_OK;
 5009              		.loc 1 2122 3 is_stmt 1 view .LVU1582
 5010              	.LVL391:
2123:Drivers/STM32F7xx_HAL_Driver/Src/stm32f7xx_ll_usb.c ****   uint32_t USBx_BASE = (uint32_t)USBx;
 5011              		.loc 1 2123 3 view .LVU1583
 5012              		.loc 1 2123 12 is_stmt 0 view .LVU1584
 5013 0006 0446     		mov	r4, r0
 5014              	.LVL392:
2124:Drivers/STM32F7xx_HAL_Driver/Src/stm32f7xx_ll_usb.c ****   __IO uint32_t count = 0U;
 5015              		.loc 1 2124 3 is_stmt 1 view .LVU1585
 5016              		.loc 1 2124 17 is_stmt 0 view .LVU1586
 5017 0008 0023     		movs	r3, #0
 5018 000a 0193     		str	r3, [sp, #4]
2125:Drivers/STM32F7xx_HAL_Driver/Src/stm32f7xx_ll_usb.c ****   uint32_t value;
 5019              		.loc 1 2125 3 is_stmt 1 view .LVU1587
2126:Drivers/STM32F7xx_HAL_Driver/Src/stm32f7xx_ll_usb.c ****   uint32_t i;
 5020              		.loc 1 2126 3 view .LVU1588
ARM GAS  /tmp/ccrvI8Gd.s 			page 147


2127:Drivers/STM32F7xx_HAL_Driver/Src/stm32f7xx_ll_usb.c **** 
2128:Drivers/STM32F7xx_HAL_Driver/Src/stm32f7xx_ll_usb.c ****   (void)USB_DisableGlobalInt(USBx);
 5021              		.loc 1 2128 3 view .LVU1589
 5022              		.loc 1 2128 9 is_stmt 0 view .LVU1590
 5023 000c FFF7FEFF 		bl	USB_DisableGlobalInt
 5024              	.LVL393:
2129:Drivers/STM32F7xx_HAL_Driver/Src/stm32f7xx_ll_usb.c **** 
2130:Drivers/STM32F7xx_HAL_Driver/Src/stm32f7xx_ll_usb.c ****   /* Flush USB FIFO */
2131:Drivers/STM32F7xx_HAL_Driver/Src/stm32f7xx_ll_usb.c ****   if (USB_FlushTxFifo(USBx, 0x10U) != HAL_OK) /* all Tx FIFOs */
 5025              		.loc 1 2131 3 is_stmt 1 view .LVU1591
 5026              		.loc 1 2131 7 is_stmt 0 view .LVU1592
 5027 0010 1021     		movs	r1, #16
 5028 0012 2846     		mov	r0, r5
 5029 0014 FFF7FEFF 		bl	USB_FlushTxFifo
 5030              	.LVL394:
 5031              		.loc 1 2131 6 view .LVU1593
 5032 0018 0646     		mov	r6, r0
 5033 001a 00B1     		cbz	r0, .L321
2132:Drivers/STM32F7xx_HAL_Driver/Src/stm32f7xx_ll_usb.c ****   {
2133:Drivers/STM32F7xx_HAL_Driver/Src/stm32f7xx_ll_usb.c ****     ret = HAL_ERROR;
 5034              		.loc 1 2133 9 view .LVU1594
 5035 001c 0126     		movs	r6, #1
 5036              	.L321:
 5037              	.LVL395:
2134:Drivers/STM32F7xx_HAL_Driver/Src/stm32f7xx_ll_usb.c ****   }
2135:Drivers/STM32F7xx_HAL_Driver/Src/stm32f7xx_ll_usb.c **** 
2136:Drivers/STM32F7xx_HAL_Driver/Src/stm32f7xx_ll_usb.c ****   if (USB_FlushRxFifo(USBx) != HAL_OK)
 5038              		.loc 1 2136 3 is_stmt 1 view .LVU1595
 5039              		.loc 1 2136 7 is_stmt 0 view .LVU1596
 5040 001e 2846     		mov	r0, r5
 5041 0020 FFF7FEFF 		bl	USB_FlushRxFifo
 5042              	.LVL396:
 5043              		.loc 1 2136 6 view .LVU1597
 5044 0024 00B1     		cbz	r0, .L322
2137:Drivers/STM32F7xx_HAL_Driver/Src/stm32f7xx_ll_usb.c ****   {
2138:Drivers/STM32F7xx_HAL_Driver/Src/stm32f7xx_ll_usb.c ****     ret = HAL_ERROR;
 5045              		.loc 1 2138 9 view .LVU1598
 5046 0026 0126     		movs	r6, #1
 5047              	.LVL397:
 5048              	.L322:
2139:Drivers/STM32F7xx_HAL_Driver/Src/stm32f7xx_ll_usb.c ****   }
2140:Drivers/STM32F7xx_HAL_Driver/Src/stm32f7xx_ll_usb.c **** 
2141:Drivers/STM32F7xx_HAL_Driver/Src/stm32f7xx_ll_usb.c ****   /* Flush out any leftover queued requests. */
2142:Drivers/STM32F7xx_HAL_Driver/Src/stm32f7xx_ll_usb.c ****   for (i = 0U; i <= 15U; i++)
 5049              		.loc 1 2142 3 is_stmt 1 view .LVU1599
 5050              		.loc 1 2142 10 is_stmt 0 view .LVU1600
 5051 0028 0022     		movs	r2, #0
 5052              		.loc 1 2142 3 view .LVU1601
 5053 002a 0AE0     		b	.L323
 5054              	.LVL398:
 5055              	.L324:
2143:Drivers/STM32F7xx_HAL_Driver/Src/stm32f7xx_ll_usb.c ****   {
2144:Drivers/STM32F7xx_HAL_Driver/Src/stm32f7xx_ll_usb.c ****     value = USBx_HC(i)->HCCHAR;
 5056              		.loc 1 2144 5 is_stmt 1 discriminator 3 view .LVU1602
 5057              		.loc 1 2144 13 is_stmt 0 discriminator 3 view .LVU1603
 5058 002c 04EB4211 		add	r1, r4, r2, lsl #5
 5059              		.loc 1 2144 11 discriminator 3 view .LVU1604
ARM GAS  /tmp/ccrvI8Gd.s 			page 148


 5060 0030 D1F80035 		ldr	r3, [r1, #1280]
 5061              	.LVL399:
2145:Drivers/STM32F7xx_HAL_Driver/Src/stm32f7xx_ll_usb.c ****     value |=  USB_OTG_HCCHAR_CHDIS;
 5062              		.loc 1 2145 5 is_stmt 1 discriminator 3 view .LVU1605
2146:Drivers/STM32F7xx_HAL_Driver/Src/stm32f7xx_ll_usb.c ****     value &= ~USB_OTG_HCCHAR_CHENA;
 5063              		.loc 1 2146 5 discriminator 3 view .LVU1606
2147:Drivers/STM32F7xx_HAL_Driver/Src/stm32f7xx_ll_usb.c ****     value &= ~USB_OTG_HCCHAR_EPDIR;
 5064              		.loc 1 2147 5 discriminator 3 view .LVU1607
 5065 0034 23F08023 		bic	r3, r3, #-2147450880
 5066              	.LVL400:
 5067              		.loc 1 2147 11 is_stmt 0 discriminator 3 view .LVU1608
 5068 0038 43F08043 		orr	r3, r3, #1073741824
 5069              	.LVL401:
2148:Drivers/STM32F7xx_HAL_Driver/Src/stm32f7xx_ll_usb.c ****     USBx_HC(i)->HCCHAR = value;
 5070              		.loc 1 2148 5 is_stmt 1 discriminator 3 view .LVU1609
 5071              		.loc 1 2148 24 is_stmt 0 discriminator 3 view .LVU1610
 5072 003c C1F80035 		str	r3, [r1, #1280]
2142:Drivers/STM32F7xx_HAL_Driver/Src/stm32f7xx_ll_usb.c ****   {
 5073              		.loc 1 2142 26 is_stmt 1 discriminator 3 view .LVU1611
2142:Drivers/STM32F7xx_HAL_Driver/Src/stm32f7xx_ll_usb.c ****   {
 5074              		.loc 1 2142 27 is_stmt 0 discriminator 3 view .LVU1612
 5075 0040 0132     		adds	r2, r2, #1
 5076              	.LVL402:
 5077              	.L323:
2142:Drivers/STM32F7xx_HAL_Driver/Src/stm32f7xx_ll_usb.c ****   {
 5078              		.loc 1 2142 16 is_stmt 1 discriminator 1 view .LVU1613
2142:Drivers/STM32F7xx_HAL_Driver/Src/stm32f7xx_ll_usb.c ****   {
 5079              		.loc 1 2142 3 is_stmt 0 discriminator 1 view .LVU1614
 5080 0042 0F2A     		cmp	r2, #15
 5081 0044 F2D9     		bls	.L324
2149:Drivers/STM32F7xx_HAL_Driver/Src/stm32f7xx_ll_usb.c ****   }
2150:Drivers/STM32F7xx_HAL_Driver/Src/stm32f7xx_ll_usb.c **** 
2151:Drivers/STM32F7xx_HAL_Driver/Src/stm32f7xx_ll_usb.c ****   /* Halt all channels to put them into a known state. */
2152:Drivers/STM32F7xx_HAL_Driver/Src/stm32f7xx_ll_usb.c ****   for (i = 0U; i <= 15U; i++)
 5082              		.loc 1 2152 10 view .LVU1615
 5083 0046 0021     		movs	r1, #0
 5084 0048 00E0     		b	.L325
 5085              	.LVL403:
 5086              	.L326:
 5087              		.loc 1 2152 26 is_stmt 1 discriminator 2 view .LVU1616
 5088              		.loc 1 2152 27 is_stmt 0 discriminator 2 view .LVU1617
 5089 004a 0131     		adds	r1, r1, #1
 5090              	.LVL404:
 5091              	.L325:
 5092              		.loc 1 2152 16 is_stmt 1 discriminator 1 view .LVU1618
 5093              		.loc 1 2152 3 is_stmt 0 discriminator 1 view .LVU1619
 5094 004c 0F29     		cmp	r1, #15
 5095 004e 15D8     		bhi	.L332
2153:Drivers/STM32F7xx_HAL_Driver/Src/stm32f7xx_ll_usb.c ****   {
2154:Drivers/STM32F7xx_HAL_Driver/Src/stm32f7xx_ll_usb.c ****     value = USBx_HC(i)->HCCHAR;
 5096              		.loc 1 2154 5 is_stmt 1 view .LVU1620
 5097              		.loc 1 2154 13 is_stmt 0 view .LVU1621
 5098 0050 04EB4110 		add	r0, r4, r1, lsl #5
 5099 0054 00F5A062 		add	r2, r0, #1280
 5100              		.loc 1 2154 11 view .LVU1622
 5101 0058 D0F80035 		ldr	r3, [r0, #1280]
 5102              	.LVL405:
ARM GAS  /tmp/ccrvI8Gd.s 			page 149


2155:Drivers/STM32F7xx_HAL_Driver/Src/stm32f7xx_ll_usb.c ****     value |= USB_OTG_HCCHAR_CHDIS;
 5103              		.loc 1 2155 5 is_stmt 1 view .LVU1623
2156:Drivers/STM32F7xx_HAL_Driver/Src/stm32f7xx_ll_usb.c ****     value |= USB_OTG_HCCHAR_CHENA;
 5104              		.loc 1 2156 5 view .LVU1624
2157:Drivers/STM32F7xx_HAL_Driver/Src/stm32f7xx_ll_usb.c ****     value &= ~USB_OTG_HCCHAR_EPDIR;
 5105              		.loc 1 2157 5 view .LVU1625
 5106 005c 23F40043 		bic	r3, r3, #32768
 5107              	.LVL406:
 5108              		.loc 1 2157 11 is_stmt 0 view .LVU1626
 5109 0060 43F04043 		orr	r3, r3, #-1073741824
 5110              	.LVL407:
2158:Drivers/STM32F7xx_HAL_Driver/Src/stm32f7xx_ll_usb.c ****     USBx_HC(i)->HCCHAR = value;
 5111              		.loc 1 2158 5 is_stmt 1 view .LVU1627
 5112              		.loc 1 2158 24 is_stmt 0 view .LVU1628
 5113 0064 C0F80035 		str	r3, [r0, #1280]
 5114              	.LVL408:
 5115              	.L327:
2159:Drivers/STM32F7xx_HAL_Driver/Src/stm32f7xx_ll_usb.c **** 
2160:Drivers/STM32F7xx_HAL_Driver/Src/stm32f7xx_ll_usb.c ****     do
 5116              		.loc 1 2160 5 is_stmt 1 view .LVU1629
2161:Drivers/STM32F7xx_HAL_Driver/Src/stm32f7xx_ll_usb.c ****     {
2162:Drivers/STM32F7xx_HAL_Driver/Src/stm32f7xx_ll_usb.c ****       if (++count > 1000U)
 5117              		.loc 1 2162 7 view .LVU1630
 5118              		.loc 1 2162 11 is_stmt 0 view .LVU1631
 5119 0068 019B     		ldr	r3, [sp, #4]
 5120 006a 0133     		adds	r3, r3, #1
 5121              		.loc 1 2162 10 view .LVU1632
 5122 006c 0193     		str	r3, [sp, #4]
 5123 006e B3F57A7F 		cmp	r3, #1000
 5124 0072 EAD8     		bhi	.L326
2163:Drivers/STM32F7xx_HAL_Driver/Src/stm32f7xx_ll_usb.c ****       {
2164:Drivers/STM32F7xx_HAL_Driver/Src/stm32f7xx_ll_usb.c ****         break;
2165:Drivers/STM32F7xx_HAL_Driver/Src/stm32f7xx_ll_usb.c ****       }
2166:Drivers/STM32F7xx_HAL_Driver/Src/stm32f7xx_ll_usb.c ****     } while ((USBx_HC(i)->HCCHAR & USB_OTG_HCCHAR_CHENA) == USB_OTG_HCCHAR_CHENA);
 5125              		.loc 1 2166 13 is_stmt 1 view .LVU1633
 5126              		.loc 1 2166 25 is_stmt 0 view .LVU1634
 5127 0074 1368     		ldr	r3, [r2]
 5128              		.loc 1 2166 5 view .LVU1635
 5129 0076 002B     		cmp	r3, #0
 5130 0078 F6DB     		blt	.L327
 5131 007a E6E7     		b	.L326
 5132              	.L332:
2167:Drivers/STM32F7xx_HAL_Driver/Src/stm32f7xx_ll_usb.c ****   }
2168:Drivers/STM32F7xx_HAL_Driver/Src/stm32f7xx_ll_usb.c **** 
2169:Drivers/STM32F7xx_HAL_Driver/Src/stm32f7xx_ll_usb.c ****   /* Clear any pending Host interrupts */
2170:Drivers/STM32F7xx_HAL_Driver/Src/stm32f7xx_ll_usb.c ****   USBx_HOST->HAINT = 0xFFFFFFFFU;
 5133              		.loc 1 2170 3 is_stmt 1 view .LVU1636
 5134              		.loc 1 2170 20 is_stmt 0 view .LVU1637
 5135 007c 4FF0FF33 		mov	r3, #-1
 5136 0080 C5F81434 		str	r3, [r5, #1044]
2171:Drivers/STM32F7xx_HAL_Driver/Src/stm32f7xx_ll_usb.c ****   USBx->GINTSTS = 0xFFFFFFFFU;
 5137              		.loc 1 2171 3 is_stmt 1 view .LVU1638
 5138              		.loc 1 2171 17 is_stmt 0 view .LVU1639
 5139 0084 6B61     		str	r3, [r5, #20]
2172:Drivers/STM32F7xx_HAL_Driver/Src/stm32f7xx_ll_usb.c **** 
2173:Drivers/STM32F7xx_HAL_Driver/Src/stm32f7xx_ll_usb.c ****   (void)USB_EnableGlobalInt(USBx);
 5140              		.loc 1 2173 3 is_stmt 1 view .LVU1640
ARM GAS  /tmp/ccrvI8Gd.s 			page 150


 5141              		.loc 1 2173 9 is_stmt 0 view .LVU1641
 5142 0086 2846     		mov	r0, r5
 5143 0088 FFF7FEFF 		bl	USB_EnableGlobalInt
 5144              	.LVL409:
2174:Drivers/STM32F7xx_HAL_Driver/Src/stm32f7xx_ll_usb.c **** 
2175:Drivers/STM32F7xx_HAL_Driver/Src/stm32f7xx_ll_usb.c ****   return ret;
 5145              		.loc 1 2175 3 is_stmt 1 view .LVU1642
2176:Drivers/STM32F7xx_HAL_Driver/Src/stm32f7xx_ll_usb.c **** }
 5146              		.loc 1 2176 1 is_stmt 0 view .LVU1643
 5147 008c 3046     		mov	r0, r6
 5148 008e 02B0     		add	sp, sp, #8
 5149              	.LCFI75:
 5150              		.cfi_def_cfa_offset 16
 5151              		@ sp needed
 5152 0090 70BD     		pop	{r4, r5, r6, pc}
 5153              		.loc 1 2176 1 view .LVU1644
 5154              		.cfi_endproc
 5155              	.LFE186:
 5157              		.section	.text.USB_ActivateRemoteWakeup,"ax",%progbits
 5158              		.align	1
 5159              		.global	USB_ActivateRemoteWakeup
 5160              		.syntax unified
 5161              		.thumb
 5162              		.thumb_func
 5163              		.fpu fpv5-d16
 5165              	USB_ActivateRemoteWakeup:
 5166              	.LVL410:
 5167              	.LFB187:
2177:Drivers/STM32F7xx_HAL_Driver/Src/stm32f7xx_ll_usb.c **** 
2178:Drivers/STM32F7xx_HAL_Driver/Src/stm32f7xx_ll_usb.c **** /**
2179:Drivers/STM32F7xx_HAL_Driver/Src/stm32f7xx_ll_usb.c ****   * @brief  USB_ActivateRemoteWakeup active remote wakeup signalling
2180:Drivers/STM32F7xx_HAL_Driver/Src/stm32f7xx_ll_usb.c ****   * @param  USBx Selected device
2181:Drivers/STM32F7xx_HAL_Driver/Src/stm32f7xx_ll_usb.c ****   * @retval HAL status
2182:Drivers/STM32F7xx_HAL_Driver/Src/stm32f7xx_ll_usb.c ****   */
2183:Drivers/STM32F7xx_HAL_Driver/Src/stm32f7xx_ll_usb.c **** HAL_StatusTypeDef USB_ActivateRemoteWakeup(USB_OTG_GlobalTypeDef *USBx)
2184:Drivers/STM32F7xx_HAL_Driver/Src/stm32f7xx_ll_usb.c **** {
 5168              		.loc 1 2184 1 is_stmt 1 view -0
 5169              		.cfi_startproc
 5170              		@ args = 0, pretend = 0, frame = 0
 5171              		@ frame_needed = 0, uses_anonymous_args = 0
 5172              		@ link register save eliminated.
2185:Drivers/STM32F7xx_HAL_Driver/Src/stm32f7xx_ll_usb.c ****   uint32_t USBx_BASE = (uint32_t)USBx;
 5173              		.loc 1 2185 3 view .LVU1646
2186:Drivers/STM32F7xx_HAL_Driver/Src/stm32f7xx_ll_usb.c **** 
2187:Drivers/STM32F7xx_HAL_Driver/Src/stm32f7xx_ll_usb.c ****   if ((USBx_DEVICE->DSTS & USB_OTG_DSTS_SUSPSTS) == USB_OTG_DSTS_SUSPSTS)
 5174              		.loc 1 2187 3 view .LVU1647
 5175              		.loc 1 2187 19 is_stmt 0 view .LVU1648
 5176 0000 D0F80838 		ldr	r3, [r0, #2056]
 5177              		.loc 1 2187 8 view .LVU1649
 5178 0004 00F50060 		add	r0, r0, #2048
 5179              	.LVL411:
 5180              		.loc 1 2187 6 view .LVU1650
 5181 0008 13F0010F 		tst	r3, #1
 5182 000c 03D0     		beq	.L334
2188:Drivers/STM32F7xx_HAL_Driver/Src/stm32f7xx_ll_usb.c ****   {
2189:Drivers/STM32F7xx_HAL_Driver/Src/stm32f7xx_ll_usb.c ****     /* active Remote wakeup signalling */
2190:Drivers/STM32F7xx_HAL_Driver/Src/stm32f7xx_ll_usb.c ****     USBx_DEVICE->DCTL |= USB_OTG_DCTL_RWUSIG;
ARM GAS  /tmp/ccrvI8Gd.s 			page 151


 5183              		.loc 1 2190 5 is_stmt 1 view .LVU1651
 5184              		.loc 1 2190 23 is_stmt 0 view .LVU1652
 5185 000e 4368     		ldr	r3, [r0, #4]
 5186 0010 43F00103 		orr	r3, r3, #1
 5187 0014 4360     		str	r3, [r0, #4]
 5188              	.L334:
2191:Drivers/STM32F7xx_HAL_Driver/Src/stm32f7xx_ll_usb.c ****   }
2192:Drivers/STM32F7xx_HAL_Driver/Src/stm32f7xx_ll_usb.c **** 
2193:Drivers/STM32F7xx_HAL_Driver/Src/stm32f7xx_ll_usb.c ****   return HAL_OK;
 5189              		.loc 1 2193 3 is_stmt 1 view .LVU1653
2194:Drivers/STM32F7xx_HAL_Driver/Src/stm32f7xx_ll_usb.c **** }
 5190              		.loc 1 2194 1 is_stmt 0 view .LVU1654
 5191 0016 0020     		movs	r0, #0
 5192              	.LVL412:
 5193              		.loc 1 2194 1 view .LVU1655
 5194 0018 7047     		bx	lr
 5195              		.cfi_endproc
 5196              	.LFE187:
 5198              		.section	.text.USB_DeActivateRemoteWakeup,"ax",%progbits
 5199              		.align	1
 5200              		.global	USB_DeActivateRemoteWakeup
 5201              		.syntax unified
 5202              		.thumb
 5203              		.thumb_func
 5204              		.fpu fpv5-d16
 5206              	USB_DeActivateRemoteWakeup:
 5207              	.LVL413:
 5208              	.LFB188:
2195:Drivers/STM32F7xx_HAL_Driver/Src/stm32f7xx_ll_usb.c **** 
2196:Drivers/STM32F7xx_HAL_Driver/Src/stm32f7xx_ll_usb.c **** /**
2197:Drivers/STM32F7xx_HAL_Driver/Src/stm32f7xx_ll_usb.c ****   * @brief  USB_DeActivateRemoteWakeup de-active remote wakeup signalling
2198:Drivers/STM32F7xx_HAL_Driver/Src/stm32f7xx_ll_usb.c ****   * @param  USBx Selected device
2199:Drivers/STM32F7xx_HAL_Driver/Src/stm32f7xx_ll_usb.c ****   * @retval HAL status
2200:Drivers/STM32F7xx_HAL_Driver/Src/stm32f7xx_ll_usb.c ****   */
2201:Drivers/STM32F7xx_HAL_Driver/Src/stm32f7xx_ll_usb.c **** HAL_StatusTypeDef USB_DeActivateRemoteWakeup(USB_OTG_GlobalTypeDef *USBx)
2202:Drivers/STM32F7xx_HAL_Driver/Src/stm32f7xx_ll_usb.c **** {
 5209              		.loc 1 2202 1 is_stmt 1 view -0
 5210              		.cfi_startproc
 5211              		@ args = 0, pretend = 0, frame = 0
 5212              		@ frame_needed = 0, uses_anonymous_args = 0
 5213              		@ link register save eliminated.
2203:Drivers/STM32F7xx_HAL_Driver/Src/stm32f7xx_ll_usb.c ****   uint32_t USBx_BASE = (uint32_t)USBx;
 5214              		.loc 1 2203 3 view .LVU1657
2204:Drivers/STM32F7xx_HAL_Driver/Src/stm32f7xx_ll_usb.c **** 
2205:Drivers/STM32F7xx_HAL_Driver/Src/stm32f7xx_ll_usb.c ****   /* active Remote wakeup signalling */
2206:Drivers/STM32F7xx_HAL_Driver/Src/stm32f7xx_ll_usb.c ****   USBx_DEVICE->DCTL &= ~(USB_OTG_DCTL_RWUSIG);
 5215              		.loc 1 2206 3 view .LVU1658
 5216              		.loc 1 2206 21 is_stmt 0 view .LVU1659
 5217 0000 D0F80438 		ldr	r3, [r0, #2052]
 5218 0004 23F00103 		bic	r3, r3, #1
 5219 0008 C0F80438 		str	r3, [r0, #2052]
2207:Drivers/STM32F7xx_HAL_Driver/Src/stm32f7xx_ll_usb.c **** 
2208:Drivers/STM32F7xx_HAL_Driver/Src/stm32f7xx_ll_usb.c ****   return HAL_OK;
 5220              		.loc 1 2208 3 is_stmt 1 view .LVU1660
2209:Drivers/STM32F7xx_HAL_Driver/Src/stm32f7xx_ll_usb.c **** }
 5221              		.loc 1 2209 1 is_stmt 0 view .LVU1661
 5222 000c 0020     		movs	r0, #0
ARM GAS  /tmp/ccrvI8Gd.s 			page 152


 5223              	.LVL414:
 5224              		.loc 1 2209 1 view .LVU1662
 5225 000e 7047     		bx	lr
 5226              		.cfi_endproc
 5227              	.LFE188:
 5229              		.text
 5230              	.Letext0:
 5231              		.file 2 "/usr/lib/gcc/arm-none-eabi/9.2.1/include/stdint.h"
 5232              		.file 3 "Drivers/CMSIS/Include/cmsis_gcc.h"
 5233              		.file 4 "Drivers/CMSIS/Include/core_cm7.h"
 5234              		.file 5 "Drivers/CMSIS/Device/ST/STM32F7xx/Include/system_stm32f7xx.h"
 5235              		.file 6 "Drivers/CMSIS/Device/ST/STM32F7xx/Include/stm32f765xx.h"
 5236              		.file 7 "Drivers/STM32F7xx_HAL_Driver/Inc/stm32f7xx_hal_def.h"
 5237              		.file 8 "Drivers/STM32F7xx_HAL_Driver/Inc/stm32f7xx_ll_usb.h"
 5238              		.file 9 "Drivers/STM32F7xx_HAL_Driver/Inc/stm32f7xx_hal.h"
ARM GAS  /tmp/ccrvI8Gd.s 			page 153


DEFINED SYMBOLS
                            *ABS*:0000000000000000 stm32f7xx_ll_usb.c
     /tmp/ccrvI8Gd.s:17     .text.USB_CoreReset:0000000000000000 $t
     /tmp/ccrvI8Gd.s:24     .text.USB_CoreReset:0000000000000000 USB_CoreReset
     /tmp/ccrvI8Gd.s:114    .text.USB_CoreReset:0000000000000048 $d
     /tmp/ccrvI8Gd.s:119    .text.USB_CoreInit:0000000000000000 $t
     /tmp/ccrvI8Gd.s:126    .text.USB_CoreInit:0000000000000000 USB_CoreInit
     /tmp/ccrvI8Gd.s:246    .text.USB_CoreInit:0000000000000078 $d
     /tmp/ccrvI8Gd.s:251    .text.USB_SetTurnaroundTime:0000000000000000 $t
     /tmp/ccrvI8Gd.s:258    .text.USB_SetTurnaroundTime:0000000000000000 USB_SetTurnaroundTime
     /tmp/ccrvI8Gd.s:438    .text.USB_SetTurnaroundTime:000000000000009c $d
     /tmp/ccrvI8Gd.s:460    .text.USB_EnableGlobalInt:0000000000000000 $t
     /tmp/ccrvI8Gd.s:467    .text.USB_EnableGlobalInt:0000000000000000 USB_EnableGlobalInt
     /tmp/ccrvI8Gd.s:490    .text.USB_DisableGlobalInt:0000000000000000 $t
     /tmp/ccrvI8Gd.s:497    .text.USB_DisableGlobalInt:0000000000000000 USB_DisableGlobalInt
     /tmp/ccrvI8Gd.s:520    .text.USB_FlushTxFifo:0000000000000000 $t
     /tmp/ccrvI8Gd.s:527    .text.USB_FlushTxFifo:0000000000000000 USB_FlushTxFifo
     /tmp/ccrvI8Gd.s:619    .text.USB_FlushTxFifo:0000000000000048 $d
     /tmp/ccrvI8Gd.s:624    .text.USB_FlushRxFifo:0000000000000000 $t
     /tmp/ccrvI8Gd.s:631    .text.USB_FlushRxFifo:0000000000000000 USB_FlushRxFifo
     /tmp/ccrvI8Gd.s:719    .text.USB_FlushRxFifo:0000000000000044 $d
     /tmp/ccrvI8Gd.s:724    .text.USB_SetDevSpeed:0000000000000000 $t
     /tmp/ccrvI8Gd.s:731    .text.USB_SetDevSpeed:0000000000000000 USB_SetDevSpeed
     /tmp/ccrvI8Gd.s:757    .text.USB_DevInit:0000000000000000 $t
     /tmp/ccrvI8Gd.s:764    .text.USB_DevInit:0000000000000000 USB_DevInit
     /tmp/ccrvI8Gd.s:1126   .text.USB_DevInit:0000000000000188 $d
     /tmp/ccrvI8Gd.s:1132   .text.USB_GetDevSpeed:0000000000000000 $t
     /tmp/ccrvI8Gd.s:1139   .text.USB_GetDevSpeed:0000000000000000 USB_GetDevSpeed
     /tmp/ccrvI8Gd.s:1189   .text.USB_ActivateEndpoint:0000000000000000 $t
     /tmp/ccrvI8Gd.s:1196   .text.USB_ActivateEndpoint:0000000000000000 USB_ActivateEndpoint
     /tmp/ccrvI8Gd.s:1322   .text.USB_ActivateEndpoint:000000000000008c $d
     /tmp/ccrvI8Gd.s:1327   .text.USB_ActivateDedicatedEndpoint:0000000000000000 $t
     /tmp/ccrvI8Gd.s:1334   .text.USB_ActivateDedicatedEndpoint:0000000000000000 USB_ActivateDedicatedEndpoint
     /tmp/ccrvI8Gd.s:1468   .text.USB_ActivateDedicatedEndpoint:0000000000000098 $d
     /tmp/ccrvI8Gd.s:1473   .text.USB_DeactivateEndpoint:0000000000000000 $t
     /tmp/ccrvI8Gd.s:1480   .text.USB_DeactivateEndpoint:0000000000000000 USB_DeactivateEndpoint
     /tmp/ccrvI8Gd.s:1645   .text.USB_DeactivateEndpoint:00000000000000d4 $d
     /tmp/ccrvI8Gd.s:1651   .text.USB_DeactivateDedicatedEndpoint:0000000000000000 $t
     /tmp/ccrvI8Gd.s:1658   .text.USB_DeactivateDedicatedEndpoint:0000000000000000 USB_DeactivateDedicatedEndpoint
     /tmp/ccrvI8Gd.s:1781   .text.USB_EP0StartXfer:0000000000000000 $t
     /tmp/ccrvI8Gd.s:1788   .text.USB_EP0StartXfer:0000000000000000 USB_EP0StartXfer
     /tmp/ccrvI8Gd.s:2029   .text.USB_EP0StartXfer:0000000000000110 $d
     /tmp/ccrvI8Gd.s:2035   .text.USB_WritePacket:0000000000000000 $t
     /tmp/ccrvI8Gd.s:2042   .text.USB_WritePacket:0000000000000000 USB_WritePacket
     /tmp/ccrvI8Gd.s:2118   .text.USB_EPStartXfer:0000000000000000 $t
     /tmp/ccrvI8Gd.s:2125   .text.USB_EPStartXfer:0000000000000000 USB_EPStartXfer
     /tmp/ccrvI8Gd.s:2520   .text.USB_EPStartXfer:0000000000000208 $d
     /tmp/ccrvI8Gd.s:2527   .text.USB_ReadPacket:0000000000000000 $t
     /tmp/ccrvI8Gd.s:2534   .text.USB_ReadPacket:0000000000000000 USB_ReadPacket
     /tmp/ccrvI8Gd.s:2659   .text.USB_EPSetStall:0000000000000000 $t
     /tmp/ccrvI8Gd.s:2666   .text.USB_EPSetStall:0000000000000000 USB_EPSetStall
     /tmp/ccrvI8Gd.s:2747   .text.USB_EPClearStall:0000000000000000 $t
     /tmp/ccrvI8Gd.s:2754   .text.USB_EPClearStall:0000000000000000 USB_EPClearStall
     /tmp/ccrvI8Gd.s:2837   .text.USB_StopDevice:0000000000000000 $t
     /tmp/ccrvI8Gd.s:2844   .text.USB_StopDevice:0000000000000000 USB_StopDevice
     /tmp/ccrvI8Gd.s:2931   .text.USB_SetDevAddress:0000000000000000 $t
     /tmp/ccrvI8Gd.s:2938   .text.USB_SetDevAddress:0000000000000000 USB_SetDevAddress
ARM GAS  /tmp/ccrvI8Gd.s 			page 154


     /tmp/ccrvI8Gd.s:2973   .text.USB_DevConnect:0000000000000000 $t
     /tmp/ccrvI8Gd.s:2980   .text.USB_DevConnect:0000000000000000 USB_DevConnect
     /tmp/ccrvI8Gd.s:3009   .text.USB_DevDisconnect:0000000000000000 $t
     /tmp/ccrvI8Gd.s:3016   .text.USB_DevDisconnect:0000000000000000 USB_DevDisconnect
     /tmp/ccrvI8Gd.s:3045   .text.USB_ReadInterrupts:0000000000000000 $t
     /tmp/ccrvI8Gd.s:3052   .text.USB_ReadInterrupts:0000000000000000 USB_ReadInterrupts
     /tmp/ccrvI8Gd.s:3079   .text.USB_ReadDevAllOutEpInterrupt:0000000000000000 $t
     /tmp/ccrvI8Gd.s:3086   .text.USB_ReadDevAllOutEpInterrupt:0000000000000000 USB_ReadDevAllOutEpInterrupt
     /tmp/ccrvI8Gd.s:3119   .text.USB_ReadDevAllInEpInterrupt:0000000000000000 $t
     /tmp/ccrvI8Gd.s:3126   .text.USB_ReadDevAllInEpInterrupt:0000000000000000 USB_ReadDevAllInEpInterrupt
     /tmp/ccrvI8Gd.s:3159   .text.USB_ReadDevOutEPInterrupt:0000000000000000 $t
     /tmp/ccrvI8Gd.s:3166   .text.USB_ReadDevOutEPInterrupt:0000000000000000 USB_ReadDevOutEPInterrupt
     /tmp/ccrvI8Gd.s:3200   .text.USB_ReadDevInEPInterrupt:0000000000000000 $t
     /tmp/ccrvI8Gd.s:3207   .text.USB_ReadDevInEPInterrupt:0000000000000000 USB_ReadDevInEPInterrupt
     /tmp/ccrvI8Gd.s:3268   .text.USB_ClearInterrupts:0000000000000000 $t
     /tmp/ccrvI8Gd.s:3275   .text.USB_ClearInterrupts:0000000000000000 USB_ClearInterrupts
     /tmp/ccrvI8Gd.s:3294   .text.USB_GetMode:0000000000000000 $t
     /tmp/ccrvI8Gd.s:3301   .text.USB_GetMode:0000000000000000 USB_GetMode
     /tmp/ccrvI8Gd.s:3320   .text.USB_SetCurrentMode:0000000000000000 $t
     /tmp/ccrvI8Gd.s:3327   .text.USB_SetCurrentMode:0000000000000000 USB_SetCurrentMode
     /tmp/ccrvI8Gd.s:3444   .text.USB_ActivateSetup:0000000000000000 $t
     /tmp/ccrvI8Gd.s:3451   .text.USB_ActivateSetup:0000000000000000 USB_ActivateSetup
     /tmp/ccrvI8Gd.s:3480   .text.USB_ActivateSetup:000000000000001c $d
     /tmp/ccrvI8Gd.s:3485   .text.USB_EP0_OutStart:0000000000000000 $t
     /tmp/ccrvI8Gd.s:3492   .text.USB_EP0_OutStart:0000000000000000 USB_EP0_OutStart
     /tmp/ccrvI8Gd.s:3575   .text.USB_EP0_OutStart:000000000000005c $d
     /tmp/ccrvI8Gd.s:3580   .text.USB_HostInit:0000000000000000 $t
     /tmp/ccrvI8Gd.s:3587   .text.USB_HostInit:0000000000000000 USB_HostInit
     /tmp/ccrvI8Gd.s:3792   .text.USB_HostInit:00000000000000dc $d
     /tmp/ccrvI8Gd.s:3799   .text.USB_InitFSLSPClkSel:0000000000000000 $t
     /tmp/ccrvI8Gd.s:3806   .text.USB_InitFSLSPClkSel:0000000000000000 USB_InitFSLSPClkSel
     /tmp/ccrvI8Gd.s:3877   .text.USB_ResetPort:0000000000000000 $t
     /tmp/ccrvI8Gd.s:3884   .text.USB_ResetPort:0000000000000000 USB_ResetPort
     /tmp/ccrvI8Gd.s:3953   .text.USB_DriveVbus:0000000000000000 $t
     /tmp/ccrvI8Gd.s:3960   .text.USB_DriveVbus:0000000000000000 USB_DriveVbus
     /tmp/ccrvI8Gd.s:4039   .text.USB_GetHostSpeed:0000000000000000 $t
     /tmp/ccrvI8Gd.s:4046   .text.USB_GetHostSpeed:0000000000000000 USB_GetHostSpeed
     /tmp/ccrvI8Gd.s:4084   .text.USB_GetCurrentFrame:0000000000000000 $t
     /tmp/ccrvI8Gd.s:4091   .text.USB_GetCurrentFrame:0000000000000000 USB_GetCurrentFrame
     /tmp/ccrvI8Gd.s:4114   .text.USB_HC_Init:0000000000000000 $t
     /tmp/ccrvI8Gd.s:4121   .text.USB_HC_Init:0000000000000000 USB_HC_Init
     /tmp/ccrvI8Gd.s:4163   .text.USB_HC_Init:0000000000000022 $d
     /tmp/ccrvI8Gd.s:4167   .text.USB_HC_Init:0000000000000026 $t
     /tmp/ccrvI8Gd.s:4363   .text.USB_HC_ReadInterrupt:0000000000000000 $t
     /tmp/ccrvI8Gd.s:4370   .text.USB_HC_ReadInterrupt:0000000000000000 USB_HC_ReadInterrupt
     /tmp/ccrvI8Gd.s:4393   .text.USB_HC_Halt:0000000000000000 $t
     /tmp/ccrvI8Gd.s:4400   .text.USB_HC_Halt:0000000000000000 USB_HC_Halt
     /tmp/ccrvI8Gd.s:4582   .text.USB_DoPing:0000000000000000 $t
     /tmp/ccrvI8Gd.s:4589   .text.USB_DoPing:0000000000000000 USB_DoPing
     /tmp/ccrvI8Gd.s:4631   .text.USB_DoPing:0000000000000020 $d
     /tmp/ccrvI8Gd.s:4636   .text.USB_HC_StartXfer:0000000000000000 $t
     /tmp/ccrvI8Gd.s:4643   .text.USB_HC_StartXfer:0000000000000000 USB_HC_StartXfer
     /tmp/ccrvI8Gd.s:4885   .text.USB_HC_StartXfer:0000000000000108 $d
     /tmp/ccrvI8Gd.s:4890   .text.USB_HC_StartXfer:000000000000010c $t
     /tmp/ccrvI8Gd.s:4978   .text.USB_HC_StartXfer:000000000000015c $d
     /tmp/ccrvI8Gd.s:4983   .text.USB_StopHost:0000000000000000 $t
     /tmp/ccrvI8Gd.s:4990   .text.USB_StopHost:0000000000000000 USB_StopHost
ARM GAS  /tmp/ccrvI8Gd.s 			page 155


     /tmp/ccrvI8Gd.s:5158   .text.USB_ActivateRemoteWakeup:0000000000000000 $t
     /tmp/ccrvI8Gd.s:5165   .text.USB_ActivateRemoteWakeup:0000000000000000 USB_ActivateRemoteWakeup
     /tmp/ccrvI8Gd.s:5199   .text.USB_DeActivateRemoteWakeup:0000000000000000 $t
     /tmp/ccrvI8Gd.s:5206   .text.USB_DeActivateRemoteWakeup:0000000000000000 USB_DeActivateRemoteWakeup

UNDEFINED SYMBOLS
HAL_Delay
